
usb_transmit.elf:     file format elf32-littlearm

Sections:
Idx Name          Size      VMA       LMA       File off  Algn
  0 .isr_vector   000001ac  08000000  08000000  00010000  2**0
                  CONTENTS, ALLOC, LOAD, READONLY, DATA
  1 .text         00006eb4  080001ac  080001ac  000101ac  2**2
                  CONTENTS, ALLOC, LOAD, READONLY, CODE
  2 .rodata       00000070  08007060  08007060  00017060  2**2
                  CONTENTS, ALLOC, LOAD, READONLY, DATA
  3 .ARM.extab    00000000  080070d0  080070d0  000201ec  2**0
                  CONTENTS
  4 .ARM          00000008  080070d0  080070d0  000170d0  2**2
                  CONTENTS, ALLOC, LOAD, READONLY, DATA
  5 .preinit_array 00000000  080070d8  080070d8  000201ec  2**0
                  CONTENTS, ALLOC, LOAD, DATA
  6 .init_array   00000004  080070d8  080070d8  000170d8  2**2
                  CONTENTS, ALLOC, LOAD, DATA
  7 .fini_array   00000004  080070dc  080070dc  000170dc  2**2
                  CONTENTS, ALLOC, LOAD, DATA
  8 .data         000001ec  20000000  080070e0  00020000  2**2
                  CONTENTS, ALLOC, LOAD, DATA
  9 .bss          000009a4  200001ec  080072cc  000201ec  2**2
                  ALLOC
 10 ._user_heap_stack 00000600  20000b90  080072cc  00020b90  2**0
                  ALLOC
 11 .ARM.attributes 00000030  00000000  00000000  000201ec  2**0
                  CONTENTS, READONLY
 12 .debug_info   00014e3f  00000000  00000000  0002021c  2**0
                  CONTENTS, READONLY, DEBUGGING
 13 .debug_abbrev 00002e3e  00000000  00000000  0003505b  2**0
                  CONTENTS, READONLY, DEBUGGING
 14 .debug_aranges 00000d28  00000000  00000000  00037ea0  2**3
                  CONTENTS, READONLY, DEBUGGING
 15 .debug_ranges 00000bd0  00000000  00000000  00038bc8  2**3
                  CONTENTS, READONLY, DEBUGGING
 16 .debug_macro  0002709d  00000000  00000000  00039798  2**0
                  CONTENTS, READONLY, DEBUGGING
 17 .debug_line   0000d796  00000000  00000000  00060835  2**0
                  CONTENTS, READONLY, DEBUGGING
 18 .debug_str    000df9bd  00000000  00000000  0006dfcb  2**0
                  CONTENTS, READONLY, DEBUGGING
 19 .comment      0000007b  00000000  00000000  0014d988  2**0
                  CONTENTS, READONLY
 20 .debug_frame  00003628  00000000  00000000  0014da04  2**2
                  CONTENTS, READONLY, DEBUGGING

Disassembly of section .text:

080001ac <__do_global_dtors_aux>:
 80001ac:	b510      	push	{r4, lr}
 80001ae:	4c05      	ldr	r4, [pc, #20]	; (80001c4 <__do_global_dtors_aux+0x18>)
 80001b0:	7823      	ldrb	r3, [r4, #0]
 80001b2:	b933      	cbnz	r3, 80001c2 <__do_global_dtors_aux+0x16>
 80001b4:	4b04      	ldr	r3, [pc, #16]	; (80001c8 <__do_global_dtors_aux+0x1c>)
 80001b6:	b113      	cbz	r3, 80001be <__do_global_dtors_aux+0x12>
 80001b8:	4804      	ldr	r0, [pc, #16]	; (80001cc <__do_global_dtors_aux+0x20>)
 80001ba:	f3af 8000 	nop.w
 80001be:	2301      	movs	r3, #1
 80001c0:	7023      	strb	r3, [r4, #0]
 80001c2:	bd10      	pop	{r4, pc}
 80001c4:	200001ec 	.word	0x200001ec
 80001c8:	00000000 	.word	0x00000000
 80001cc:	08007048 	.word	0x08007048

080001d0 <frame_dummy>:
 80001d0:	b508      	push	{r3, lr}
 80001d2:	4b03      	ldr	r3, [pc, #12]	; (80001e0 <frame_dummy+0x10>)
 80001d4:	b11b      	cbz	r3, 80001de <frame_dummy+0xe>
 80001d6:	4903      	ldr	r1, [pc, #12]	; (80001e4 <frame_dummy+0x14>)
 80001d8:	4803      	ldr	r0, [pc, #12]	; (80001e8 <frame_dummy+0x18>)
 80001da:	f3af 8000 	nop.w
 80001de:	bd08      	pop	{r3, pc}
 80001e0:	00000000 	.word	0x00000000
 80001e4:	200001f0 	.word	0x200001f0
 80001e8:	08007048 	.word	0x08007048

080001ec <strlen>:
 80001ec:	4603      	mov	r3, r0
 80001ee:	f813 2b01 	ldrb.w	r2, [r3], #1
 80001f2:	2a00      	cmp	r2, #0
 80001f4:	d1fb      	bne.n	80001ee <strlen+0x2>
 80001f6:	1a18      	subs	r0, r3, r0
 80001f8:	3801      	subs	r0, #1
 80001fa:	4770      	bx	lr

080001fc <__aeabi_uldivmod>:
 80001fc:	b953      	cbnz	r3, 8000214 <__aeabi_uldivmod+0x18>
 80001fe:	b94a      	cbnz	r2, 8000214 <__aeabi_uldivmod+0x18>
 8000200:	2900      	cmp	r1, #0
 8000202:	bf08      	it	eq
 8000204:	2800      	cmpeq	r0, #0
 8000206:	bf1c      	itt	ne
 8000208:	f04f 31ff 	movne.w	r1, #4294967295
 800020c:	f04f 30ff 	movne.w	r0, #4294967295
 8000210:	f000 b972 	b.w	80004f8 <__aeabi_idiv0>
 8000214:	f1ad 0c08 	sub.w	ip, sp, #8
 8000218:	e96d ce04 	strd	ip, lr, [sp, #-16]!
 800021c:	f000 f806 	bl	800022c <__udivmoddi4>
 8000220:	f8dd e004 	ldr.w	lr, [sp, #4]
 8000224:	e9dd 2302 	ldrd	r2, r3, [sp, #8]
 8000228:	b004      	add	sp, #16
 800022a:	4770      	bx	lr

0800022c <__udivmoddi4>:
 800022c:	e92d 47f0 	stmdb	sp!, {r4, r5, r6, r7, r8, r9, sl, lr}
 8000230:	9e08      	ldr	r6, [sp, #32]
 8000232:	4604      	mov	r4, r0
 8000234:	4688      	mov	r8, r1
 8000236:	2b00      	cmp	r3, #0
 8000238:	d14b      	bne.n	80002d2 <__udivmoddi4+0xa6>
 800023a:	428a      	cmp	r2, r1
 800023c:	4615      	mov	r5, r2
 800023e:	d967      	bls.n	8000310 <__udivmoddi4+0xe4>
 8000240:	fab2 f282 	clz	r2, r2
 8000244:	b14a      	cbz	r2, 800025a <__udivmoddi4+0x2e>
 8000246:	f1c2 0720 	rsb	r7, r2, #32
 800024a:	fa01 f302 	lsl.w	r3, r1, r2
 800024e:	fa20 f707 	lsr.w	r7, r0, r7
 8000252:	4095      	lsls	r5, r2
 8000254:	ea47 0803 	orr.w	r8, r7, r3
 8000258:	4094      	lsls	r4, r2
 800025a:	ea4f 4e15 	mov.w	lr, r5, lsr #16
 800025e:	0c23      	lsrs	r3, r4, #16
 8000260:	fbb8 f7fe 	udiv	r7, r8, lr
 8000264:	fa1f fc85 	uxth.w	ip, r5
 8000268:	fb0e 8817 	mls	r8, lr, r7, r8
 800026c:	ea43 4308 	orr.w	r3, r3, r8, lsl #16
 8000270:	fb07 f10c 	mul.w	r1, r7, ip
 8000274:	4299      	cmp	r1, r3
 8000276:	d909      	bls.n	800028c <__udivmoddi4+0x60>
 8000278:	18eb      	adds	r3, r5, r3
 800027a:	f107 30ff 	add.w	r0, r7, #4294967295
 800027e:	f080 811b 	bcs.w	80004b8 <__udivmoddi4+0x28c>
 8000282:	4299      	cmp	r1, r3
 8000284:	f240 8118 	bls.w	80004b8 <__udivmoddi4+0x28c>
 8000288:	3f02      	subs	r7, #2
 800028a:	442b      	add	r3, r5
 800028c:	1a5b      	subs	r3, r3, r1
 800028e:	b2a4      	uxth	r4, r4
 8000290:	fbb3 f0fe 	udiv	r0, r3, lr
 8000294:	fb0e 3310 	mls	r3, lr, r0, r3
 8000298:	ea44 4403 	orr.w	r4, r4, r3, lsl #16
 800029c:	fb00 fc0c 	mul.w	ip, r0, ip
 80002a0:	45a4      	cmp	ip, r4
 80002a2:	d909      	bls.n	80002b8 <__udivmoddi4+0x8c>
 80002a4:	192c      	adds	r4, r5, r4
 80002a6:	f100 33ff 	add.w	r3, r0, #4294967295
 80002aa:	f080 8107 	bcs.w	80004bc <__udivmoddi4+0x290>
 80002ae:	45a4      	cmp	ip, r4
 80002b0:	f240 8104 	bls.w	80004bc <__udivmoddi4+0x290>
 80002b4:	3802      	subs	r0, #2
 80002b6:	442c      	add	r4, r5
 80002b8:	ea40 4007 	orr.w	r0, r0, r7, lsl #16
 80002bc:	eba4 040c 	sub.w	r4, r4, ip
 80002c0:	2700      	movs	r7, #0
 80002c2:	b11e      	cbz	r6, 80002cc <__udivmoddi4+0xa0>
 80002c4:	40d4      	lsrs	r4, r2
 80002c6:	2300      	movs	r3, #0
 80002c8:	e9c6 4300 	strd	r4, r3, [r6]
 80002cc:	4639      	mov	r1, r7
 80002ce:	e8bd 87f0 	ldmia.w	sp!, {r4, r5, r6, r7, r8, r9, sl, pc}
 80002d2:	428b      	cmp	r3, r1
 80002d4:	d909      	bls.n	80002ea <__udivmoddi4+0xbe>
 80002d6:	2e00      	cmp	r6, #0
 80002d8:	f000 80eb 	beq.w	80004b2 <__udivmoddi4+0x286>
 80002dc:	2700      	movs	r7, #0
 80002de:	e9c6 0100 	strd	r0, r1, [r6]
 80002e2:	4638      	mov	r0, r7
 80002e4:	4639      	mov	r1, r7
 80002e6:	e8bd 87f0 	ldmia.w	sp!, {r4, r5, r6, r7, r8, r9, sl, pc}
 80002ea:	fab3 f783 	clz	r7, r3
 80002ee:	2f00      	cmp	r7, #0
 80002f0:	d147      	bne.n	8000382 <__udivmoddi4+0x156>
 80002f2:	428b      	cmp	r3, r1
 80002f4:	d302      	bcc.n	80002fc <__udivmoddi4+0xd0>
 80002f6:	4282      	cmp	r2, r0
 80002f8:	f200 80fa 	bhi.w	80004f0 <__udivmoddi4+0x2c4>
 80002fc:	1a84      	subs	r4, r0, r2
 80002fe:	eb61 0303 	sbc.w	r3, r1, r3
 8000302:	2001      	movs	r0, #1
 8000304:	4698      	mov	r8, r3
 8000306:	2e00      	cmp	r6, #0
 8000308:	d0e0      	beq.n	80002cc <__udivmoddi4+0xa0>
 800030a:	e9c6 4800 	strd	r4, r8, [r6]
 800030e:	e7dd      	b.n	80002cc <__udivmoddi4+0xa0>
 8000310:	b902      	cbnz	r2, 8000314 <__udivmoddi4+0xe8>
 8000312:	deff      	udf	#255	; 0xff
 8000314:	fab2 f282 	clz	r2, r2
 8000318:	2a00      	cmp	r2, #0
 800031a:	f040 808f 	bne.w	800043c <__udivmoddi4+0x210>
 800031e:	1b49      	subs	r1, r1, r5
 8000320:	ea4f 4e15 	mov.w	lr, r5, lsr #16
 8000324:	fa1f f885 	uxth.w	r8, r5
 8000328:	2701      	movs	r7, #1
 800032a:	fbb1 fcfe 	udiv	ip, r1, lr
 800032e:	0c23      	lsrs	r3, r4, #16
 8000330:	fb0e 111c 	mls	r1, lr, ip, r1
 8000334:	ea43 4301 	orr.w	r3, r3, r1, lsl #16
 8000338:	fb08 f10c 	mul.w	r1, r8, ip
 800033c:	4299      	cmp	r1, r3
 800033e:	d907      	bls.n	8000350 <__udivmoddi4+0x124>
 8000340:	18eb      	adds	r3, r5, r3
 8000342:	f10c 30ff 	add.w	r0, ip, #4294967295
 8000346:	d202      	bcs.n	800034e <__udivmoddi4+0x122>
 8000348:	4299      	cmp	r1, r3
 800034a:	f200 80cd 	bhi.w	80004e8 <__udivmoddi4+0x2bc>
 800034e:	4684      	mov	ip, r0
 8000350:	1a59      	subs	r1, r3, r1
 8000352:	b2a3      	uxth	r3, r4
 8000354:	fbb1 f0fe 	udiv	r0, r1, lr
 8000358:	fb0e 1410 	mls	r4, lr, r0, r1
 800035c:	ea43 4404 	orr.w	r4, r3, r4, lsl #16
 8000360:	fb08 f800 	mul.w	r8, r8, r0
 8000364:	45a0      	cmp	r8, r4
 8000366:	d907      	bls.n	8000378 <__udivmoddi4+0x14c>
 8000368:	192c      	adds	r4, r5, r4
 800036a:	f100 33ff 	add.w	r3, r0, #4294967295
 800036e:	d202      	bcs.n	8000376 <__udivmoddi4+0x14a>
 8000370:	45a0      	cmp	r8, r4
 8000372:	f200 80b6 	bhi.w	80004e2 <__udivmoddi4+0x2b6>
 8000376:	4618      	mov	r0, r3
 8000378:	eba4 0408 	sub.w	r4, r4, r8
 800037c:	ea40 400c 	orr.w	r0, r0, ip, lsl #16
 8000380:	e79f      	b.n	80002c2 <__udivmoddi4+0x96>
 8000382:	f1c7 0c20 	rsb	ip, r7, #32
 8000386:	40bb      	lsls	r3, r7
 8000388:	fa22 fe0c 	lsr.w	lr, r2, ip
 800038c:	ea4e 0e03 	orr.w	lr, lr, r3
 8000390:	fa01 f407 	lsl.w	r4, r1, r7
 8000394:	fa20 f50c 	lsr.w	r5, r0, ip
 8000398:	fa21 f30c 	lsr.w	r3, r1, ip
 800039c:	ea4f 481e 	mov.w	r8, lr, lsr #16
 80003a0:	4325      	orrs	r5, r4
 80003a2:	fbb3 f9f8 	udiv	r9, r3, r8
 80003a6:	0c2c      	lsrs	r4, r5, #16
 80003a8:	fb08 3319 	mls	r3, r8, r9, r3
 80003ac:	fa1f fa8e 	uxth.w	sl, lr
 80003b0:	ea44 4303 	orr.w	r3, r4, r3, lsl #16
 80003b4:	fb09 f40a 	mul.w	r4, r9, sl
 80003b8:	429c      	cmp	r4, r3
 80003ba:	fa02 f207 	lsl.w	r2, r2, r7
 80003be:	fa00 f107 	lsl.w	r1, r0, r7
 80003c2:	d90b      	bls.n	80003dc <__udivmoddi4+0x1b0>
 80003c4:	eb1e 0303 	adds.w	r3, lr, r3
 80003c8:	f109 30ff 	add.w	r0, r9, #4294967295
 80003cc:	f080 8087 	bcs.w	80004de <__udivmoddi4+0x2b2>
 80003d0:	429c      	cmp	r4, r3
 80003d2:	f240 8084 	bls.w	80004de <__udivmoddi4+0x2b2>
 80003d6:	f1a9 0902 	sub.w	r9, r9, #2
 80003da:	4473      	add	r3, lr
 80003dc:	1b1b      	subs	r3, r3, r4
 80003de:	b2ad      	uxth	r5, r5
 80003e0:	fbb3 f0f8 	udiv	r0, r3, r8
 80003e4:	fb08 3310 	mls	r3, r8, r0, r3
 80003e8:	ea45 4403 	orr.w	r4, r5, r3, lsl #16
 80003ec:	fb00 fa0a 	mul.w	sl, r0, sl
 80003f0:	45a2      	cmp	sl, r4
 80003f2:	d908      	bls.n	8000406 <__udivmoddi4+0x1da>
 80003f4:	eb1e 0404 	adds.w	r4, lr, r4
 80003f8:	f100 33ff 	add.w	r3, r0, #4294967295
 80003fc:	d26b      	bcs.n	80004d6 <__udivmoddi4+0x2aa>
 80003fe:	45a2      	cmp	sl, r4
 8000400:	d969      	bls.n	80004d6 <__udivmoddi4+0x2aa>
 8000402:	3802      	subs	r0, #2
 8000404:	4474      	add	r4, lr
 8000406:	ea40 4009 	orr.w	r0, r0, r9, lsl #16
 800040a:	fba0 8902 	umull	r8, r9, r0, r2
 800040e:	eba4 040a 	sub.w	r4, r4, sl
 8000412:	454c      	cmp	r4, r9
 8000414:	46c2      	mov	sl, r8
 8000416:	464b      	mov	r3, r9
 8000418:	d354      	bcc.n	80004c4 <__udivmoddi4+0x298>
 800041a:	d051      	beq.n	80004c0 <__udivmoddi4+0x294>
 800041c:	2e00      	cmp	r6, #0
 800041e:	d069      	beq.n	80004f4 <__udivmoddi4+0x2c8>
 8000420:	ebb1 050a 	subs.w	r5, r1, sl
 8000424:	eb64 0403 	sbc.w	r4, r4, r3
 8000428:	fa04 fc0c 	lsl.w	ip, r4, ip
 800042c:	40fd      	lsrs	r5, r7
 800042e:	40fc      	lsrs	r4, r7
 8000430:	ea4c 0505 	orr.w	r5, ip, r5
 8000434:	e9c6 5400 	strd	r5, r4, [r6]
 8000438:	2700      	movs	r7, #0
 800043a:	e747      	b.n	80002cc <__udivmoddi4+0xa0>
 800043c:	f1c2 0320 	rsb	r3, r2, #32
 8000440:	fa20 f703 	lsr.w	r7, r0, r3
 8000444:	4095      	lsls	r5, r2
 8000446:	fa01 f002 	lsl.w	r0, r1, r2
 800044a:	fa21 f303 	lsr.w	r3, r1, r3
 800044e:	ea4f 4e15 	mov.w	lr, r5, lsr #16
 8000452:	4338      	orrs	r0, r7
 8000454:	0c01      	lsrs	r1, r0, #16
 8000456:	fbb3 f7fe 	udiv	r7, r3, lr
 800045a:	fa1f f885 	uxth.w	r8, r5
 800045e:	fb0e 3317 	mls	r3, lr, r7, r3
 8000462:	ea41 4103 	orr.w	r1, r1, r3, lsl #16
 8000466:	fb07 f308 	mul.w	r3, r7, r8
 800046a:	428b      	cmp	r3, r1
 800046c:	fa04 f402 	lsl.w	r4, r4, r2
 8000470:	d907      	bls.n	8000482 <__udivmoddi4+0x256>
 8000472:	1869      	adds	r1, r5, r1
 8000474:	f107 3cff 	add.w	ip, r7, #4294967295
 8000478:	d22f      	bcs.n	80004da <__udivmoddi4+0x2ae>
 800047a:	428b      	cmp	r3, r1
 800047c:	d92d      	bls.n	80004da <__udivmoddi4+0x2ae>
 800047e:	3f02      	subs	r7, #2
 8000480:	4429      	add	r1, r5
 8000482:	1acb      	subs	r3, r1, r3
 8000484:	b281      	uxth	r1, r0
 8000486:	fbb3 f0fe 	udiv	r0, r3, lr
 800048a:	fb0e 3310 	mls	r3, lr, r0, r3
 800048e:	ea41 4103 	orr.w	r1, r1, r3, lsl #16
 8000492:	fb00 f308 	mul.w	r3, r0, r8
 8000496:	428b      	cmp	r3, r1
 8000498:	d907      	bls.n	80004aa <__udivmoddi4+0x27e>
 800049a:	1869      	adds	r1, r5, r1
 800049c:	f100 3cff 	add.w	ip, r0, #4294967295
 80004a0:	d217      	bcs.n	80004d2 <__udivmoddi4+0x2a6>
 80004a2:	428b      	cmp	r3, r1
 80004a4:	d915      	bls.n	80004d2 <__udivmoddi4+0x2a6>
 80004a6:	3802      	subs	r0, #2
 80004a8:	4429      	add	r1, r5
 80004aa:	1ac9      	subs	r1, r1, r3
 80004ac:	ea40 4707 	orr.w	r7, r0, r7, lsl #16
 80004b0:	e73b      	b.n	800032a <__udivmoddi4+0xfe>
 80004b2:	4637      	mov	r7, r6
 80004b4:	4630      	mov	r0, r6
 80004b6:	e709      	b.n	80002cc <__udivmoddi4+0xa0>
 80004b8:	4607      	mov	r7, r0
 80004ba:	e6e7      	b.n	800028c <__udivmoddi4+0x60>
 80004bc:	4618      	mov	r0, r3
 80004be:	e6fb      	b.n	80002b8 <__udivmoddi4+0x8c>
 80004c0:	4541      	cmp	r1, r8
 80004c2:	d2ab      	bcs.n	800041c <__udivmoddi4+0x1f0>
 80004c4:	ebb8 0a02 	subs.w	sl, r8, r2
 80004c8:	eb69 020e 	sbc.w	r2, r9, lr
 80004cc:	3801      	subs	r0, #1
 80004ce:	4613      	mov	r3, r2
 80004d0:	e7a4      	b.n	800041c <__udivmoddi4+0x1f0>
 80004d2:	4660      	mov	r0, ip
 80004d4:	e7e9      	b.n	80004aa <__udivmoddi4+0x27e>
 80004d6:	4618      	mov	r0, r3
 80004d8:	e795      	b.n	8000406 <__udivmoddi4+0x1da>
 80004da:	4667      	mov	r7, ip
 80004dc:	e7d1      	b.n	8000482 <__udivmoddi4+0x256>
 80004de:	4681      	mov	r9, r0
 80004e0:	e77c      	b.n	80003dc <__udivmoddi4+0x1b0>
 80004e2:	3802      	subs	r0, #2
 80004e4:	442c      	add	r4, r5
 80004e6:	e747      	b.n	8000378 <__udivmoddi4+0x14c>
 80004e8:	f1ac 0c02 	sub.w	ip, ip, #2
 80004ec:	442b      	add	r3, r5
 80004ee:	e72f      	b.n	8000350 <__udivmoddi4+0x124>
 80004f0:	4638      	mov	r0, r7
 80004f2:	e708      	b.n	8000306 <__udivmoddi4+0xda>
 80004f4:	4637      	mov	r7, r6
 80004f6:	e6e9      	b.n	80002cc <__udivmoddi4+0xa0>

080004f8 <__aeabi_idiv0>:
 80004f8:	4770      	bx	lr
 80004fa:	bf00      	nop

080004fc <main>:
/**
  * @brief  The application entry point.
  * @retval int
  */
int main(void)
{
 80004fc:	b590      	push	{r4, r7, lr}
 80004fe:	b08b      	sub	sp, #44	; 0x2c
 8000500:	af00      	add	r7, sp, #0
  /* USER CODE BEGIN 1 */
	GPIO_Init_USB_Connect();
 8000502:	f000 f9a7 	bl	8000854 <GPIO_Init_USB_Connect>
  /* USER CODE END 1 */

  /* MCU Configuration--------------------------------------------------------*/

  /* Reset of all peripherals, Initializes the Flash interface and the Systick. */
  HAL_Init();
 8000506:	f000 fae7 	bl	8000ad8 <HAL_Init>
  /* USER CODE BEGIN Init */

  /* USER CODE END Init */

  /* Configure the system clock */
  SystemClock_Config();
 800050a:	f000 f861 	bl	80005d0 <SystemClock_Config>
  /* USER CODE BEGIN SysInit */

  /* USER CODE END SysInit */

  /* Initialize all configured peripherals */
  MX_GPIO_Init();
 800050e:	f000 f8f3 	bl	80006f8 <MX_GPIO_Init>
  //MX_ETH_Init();
  MX_USART3_UART_Init();
 8000512:	f000 f8c7 	bl	80006a4 <MX_USART3_UART_Init>
  MX_USB_DEVICE_Init();
 8000516:	f005 ff45 	bl	80063a4 <MX_USB_DEVICE_Init>
  /* USER CODE BEGIN 2 */

	uint8_t i = 0;
 800051a:	2300      	movs	r3, #0
 800051c:	f887 3027 	strb.w	r3, [r7, #39]	; 0x27
	uint8_t clk = 0, new_clk = 0;
 8000520:	2300      	movs	r3, #0
 8000522:	f887 3026 	strb.w	r3, [r7, #38]	; 0x26
 8000526:	2300      	movs	r3, #0
 8000528:	f887 3025 	strb.w	r3, [r7, #37]	; 0x25
	uint8_t buffer[4];
	uint64_t packet = 0;
 800052c:	f04f 0300 	mov.w	r3, #0
 8000530:	f04f 0400 	mov.w	r4, #0
 8000534:	e9c7 3406 	strd	r3, r4, [r7, #24]
	uint8_t test[] = "Hello World!\r\n";
 8000538:	4b22      	ldr	r3, [pc, #136]	; (80005c4 <main+0xc8>)
 800053a:	1d3c      	adds	r4, r7, #4
 800053c:	cb0f      	ldmia	r3, {r0, r1, r2, r3}
 800053e:	c407      	stmia	r4!, {r0, r1, r2}
 8000540:	8023      	strh	r3, [r4, #0]
 8000542:	3402      	adds	r4, #2
 8000544:	0c1b      	lsrs	r3, r3, #16
 8000546:	7023      	strb	r3, [r4, #0]
	extern USBD_HandleTypeDef hUsbDeviceFS;
	HAL_GPIO_WritePin( GPIOB, GPIO_PIN_9, GPIO_PIN_RESET);
 8000548:	2200      	movs	r2, #0
 800054a:	f44f 7100 	mov.w	r1, #512	; 0x200
 800054e:	481e      	ldr	r0, [pc, #120]	; (80005c8 <main+0xcc>)
 8000550:	f000 fe12 	bl	8001178 <HAL_GPIO_WritePin>
  /* USER CODE BEGIN WHILE */
  while (1)
  {
	  while (1)
	  {
		  if (CDC_Transmit_FS(test, strlen((char*)test)) == USBD_OK)
 8000554:	1d3b      	adds	r3, r7, #4
 8000556:	4618      	mov	r0, r3
 8000558:	f7ff fe48 	bl	80001ec <strlen>
 800055c:	4603      	mov	r3, r0
 800055e:	b29a      	uxth	r2, r3
 8000560:	1d3b      	adds	r3, r7, #4
 8000562:	4611      	mov	r1, r2
 8000564:	4618      	mov	r0, r3
 8000566:	f006 f823 	bl	80065b0 <CDC_Transmit_FS>
 800056a:	4603      	mov	r3, r0
 800056c:	2b00      	cmp	r3, #0
 800056e:	d107      	bne.n	8000580 <main+0x84>
		  {
			  // blue
			  HAL_GPIO_TogglePin(GPIOB, GPIO_PIN_7);
 8000570:	2180      	movs	r1, #128	; 0x80
 8000572:	4815      	ldr	r0, [pc, #84]	; (80005c8 <main+0xcc>)
 8000574:	f000 fe19 	bl	80011aa <HAL_GPIO_TogglePin>
			  HAL_Delay(1000);
 8000578:	f44f 707a 	mov.w	r0, #1000	; 0x3e8
 800057c:	f000 fb1e 	bl	8000bbc <HAL_Delay>
		  }
		  if (CDC_Transmit_FS(test, strlen((char*)test)) == USBD_BUSY)
 8000580:	1d3b      	adds	r3, r7, #4
 8000582:	4618      	mov	r0, r3
 8000584:	f7ff fe32 	bl	80001ec <strlen>
 8000588:	4603      	mov	r3, r0
 800058a:	b29a      	uxth	r2, r3
 800058c:	1d3b      	adds	r3, r7, #4
 800058e:	4611      	mov	r1, r2
 8000590:	4618      	mov	r0, r3
 8000592:	f006 f80d 	bl	80065b0 <CDC_Transmit_FS>
 8000596:	4603      	mov	r3, r0
 8000598:	2b01      	cmp	r3, #1
 800059a:	d1db      	bne.n	8000554 <main+0x58>
		  {
			  // red
			  if (hUsbDeviceFS.dev_state != USBD_STATE_CONFIGURED)
 800059c:	4b0b      	ldr	r3, [pc, #44]	; (80005cc <main+0xd0>)
 800059e:	f893 329c 	ldrb.w	r3, [r3, #668]	; 0x29c
 80005a2:	2b03      	cmp	r3, #3
 80005a4:	d003      	beq.n	80005ae <main+0xb2>
			  {
				  // gern
				  HAL_GPIO_TogglePin(GPIOB, GPIO_PIN_0);
 80005a6:	2101      	movs	r1, #1
 80005a8:	4807      	ldr	r0, [pc, #28]	; (80005c8 <main+0xcc>)
 80005aa:	f000 fdfe 	bl	80011aa <HAL_GPIO_TogglePin>
			  }
			  HAL_GPIO_TogglePin(GPIOB, GPIO_PIN_14);
 80005ae:	f44f 4180 	mov.w	r1, #16384	; 0x4000
 80005b2:	4805      	ldr	r0, [pc, #20]	; (80005c8 <main+0xcc>)
 80005b4:	f000 fdf9 	bl	80011aa <HAL_GPIO_TogglePin>
			  HAL_Delay(1000);
 80005b8:	f44f 707a 	mov.w	r0, #1000	; 0x3e8
 80005bc:	f000 fafe 	bl	8000bbc <HAL_Delay>
		  if (CDC_Transmit_FS(test, strlen((char*)test)) == USBD_OK)
 80005c0:	e7c8      	b.n	8000554 <main+0x58>
 80005c2:	bf00      	nop
 80005c4:	08007060 	.word	0x08007060
 80005c8:	40020400 	.word	0x40020400
 80005cc:	200002a4 	.word	0x200002a4

080005d0 <SystemClock_Config>:
/**
  * @brief System Clock Configuration
  * @retval None
  */
void SystemClock_Config(void)
{
 80005d0:	b580      	push	{r7, lr}
 80005d2:	b094      	sub	sp, #80	; 0x50
 80005d4:	af00      	add	r7, sp, #0
  RCC_OscInitTypeDef RCC_OscInitStruct = {0};
 80005d6:	f107 0320 	add.w	r3, r7, #32
 80005da:	2230      	movs	r2, #48	; 0x30
 80005dc:	2100      	movs	r1, #0
 80005de:	4618      	mov	r0, r3
 80005e0:	f006 fc70 	bl	8006ec4 <memset>
  RCC_ClkInitTypeDef RCC_ClkInitStruct = {0};
 80005e4:	f107 030c 	add.w	r3, r7, #12
 80005e8:	2200      	movs	r2, #0
 80005ea:	601a      	str	r2, [r3, #0]
 80005ec:	605a      	str	r2, [r3, #4]
 80005ee:	609a      	str	r2, [r3, #8]
 80005f0:	60da      	str	r2, [r3, #12]
 80005f2:	611a      	str	r2, [r3, #16]

  /** Configure the main internal regulator output voltage
  */
  __HAL_RCC_PWR_CLK_ENABLE();
 80005f4:	2300      	movs	r3, #0
 80005f6:	60bb      	str	r3, [r7, #8]
 80005f8:	4b28      	ldr	r3, [pc, #160]	; (800069c <SystemClock_Config+0xcc>)
 80005fa:	6c1b      	ldr	r3, [r3, #64]	; 0x40
 80005fc:	4a27      	ldr	r2, [pc, #156]	; (800069c <SystemClock_Config+0xcc>)
 80005fe:	f043 5380 	orr.w	r3, r3, #268435456	; 0x10000000
 8000602:	6413      	str	r3, [r2, #64]	; 0x40
 8000604:	4b25      	ldr	r3, [pc, #148]	; (800069c <SystemClock_Config+0xcc>)
 8000606:	6c1b      	ldr	r3, [r3, #64]	; 0x40
 8000608:	f003 5380 	and.w	r3, r3, #268435456	; 0x10000000
 800060c:	60bb      	str	r3, [r7, #8]
 800060e:	68bb      	ldr	r3, [r7, #8]
  __HAL_PWR_VOLTAGESCALING_CONFIG(PWR_REGULATOR_VOLTAGE_SCALE1);
 8000610:	2300      	movs	r3, #0
 8000612:	607b      	str	r3, [r7, #4]
 8000614:	4b22      	ldr	r3, [pc, #136]	; (80006a0 <SystemClock_Config+0xd0>)
 8000616:	681b      	ldr	r3, [r3, #0]
 8000618:	4a21      	ldr	r2, [pc, #132]	; (80006a0 <SystemClock_Config+0xd0>)
 800061a:	f443 4340 	orr.w	r3, r3, #49152	; 0xc000
 800061e:	6013      	str	r3, [r2, #0]
 8000620:	4b1f      	ldr	r3, [pc, #124]	; (80006a0 <SystemClock_Config+0xd0>)
 8000622:	681b      	ldr	r3, [r3, #0]
 8000624:	f403 4340 	and.w	r3, r3, #49152	; 0xc000
 8000628:	607b      	str	r3, [r7, #4]
 800062a:	687b      	ldr	r3, [r7, #4]
  /** Initializes the RCC Oscillators according to the specified parameters
  * in the RCC_OscInitTypeDef structure.
  */
  RCC_OscInitStruct.OscillatorType = RCC_OSCILLATORTYPE_HSE;
 800062c:	2301      	movs	r3, #1
 800062e:	623b      	str	r3, [r7, #32]
  RCC_OscInitStruct.HSEState = RCC_HSE_ON;
 8000630:	f44f 3380 	mov.w	r3, #65536	; 0x10000
 8000634:	627b      	str	r3, [r7, #36]	; 0x24
  RCC_OscInitStruct.PLL.PLLState = RCC_PLL_ON;
 8000636:	2302      	movs	r3, #2
 8000638:	63bb      	str	r3, [r7, #56]	; 0x38
  RCC_OscInitStruct.PLL.PLLSource = RCC_PLLSOURCE_HSE;
 800063a:	f44f 0380 	mov.w	r3, #4194304	; 0x400000
 800063e:	63fb      	str	r3, [r7, #60]	; 0x3c
  RCC_OscInitStruct.PLL.PLLM = 4;
 8000640:	2304      	movs	r3, #4
 8000642:	643b      	str	r3, [r7, #64]	; 0x40
  RCC_OscInitStruct.PLL.PLLN = 168;
 8000644:	23a8      	movs	r3, #168	; 0xa8
 8000646:	647b      	str	r3, [r7, #68]	; 0x44
  RCC_OscInitStruct.PLL.PLLP = RCC_PLLP_DIV2;
 8000648:	2302      	movs	r3, #2
 800064a:	64bb      	str	r3, [r7, #72]	; 0x48
  RCC_OscInitStruct.PLL.PLLQ = 7;
 800064c:	2307      	movs	r3, #7
 800064e:	64fb      	str	r3, [r7, #76]	; 0x4c
  if (HAL_RCC_OscConfig(&RCC_OscInitStruct) != HAL_OK)
 8000650:	f107 0320 	add.w	r3, r7, #32
 8000654:	4618      	mov	r0, r3
 8000656:	f001 ff47 	bl	80024e8 <HAL_RCC_OscConfig>
 800065a:	4603      	mov	r3, r0
 800065c:	2b00      	cmp	r3, #0
 800065e:	d001      	beq.n	8000664 <SystemClock_Config+0x94>
  {
    Error_Handler();
 8000660:	f000 f91c 	bl	800089c <Error_Handler>
  }
  /** Initializes the CPU, AHB and APB buses clocks
  */
  RCC_ClkInitStruct.ClockType = RCC_CLOCKTYPE_HCLK|RCC_CLOCKTYPE_SYSCLK
 8000664:	230f      	movs	r3, #15
 8000666:	60fb      	str	r3, [r7, #12]
                              |RCC_CLOCKTYPE_PCLK1|RCC_CLOCKTYPE_PCLK2;
  RCC_ClkInitStruct.SYSCLKSource = RCC_SYSCLKSOURCE_PLLCLK;
 8000668:	2302      	movs	r3, #2
 800066a:	613b      	str	r3, [r7, #16]
  RCC_ClkInitStruct.AHBCLKDivider = RCC_SYSCLK_DIV1;
 800066c:	2300      	movs	r3, #0
 800066e:	617b      	str	r3, [r7, #20]
  RCC_ClkInitStruct.APB1CLKDivider = RCC_HCLK_DIV4;
 8000670:	f44f 53a0 	mov.w	r3, #5120	; 0x1400
 8000674:	61bb      	str	r3, [r7, #24]
  RCC_ClkInitStruct.APB2CLKDivider = RCC_HCLK_DIV2;
 8000676:	f44f 5380 	mov.w	r3, #4096	; 0x1000
 800067a:	61fb      	str	r3, [r7, #28]

  if (HAL_RCC_ClockConfig(&RCC_ClkInitStruct, FLASH_LATENCY_5) != HAL_OK)
 800067c:	f107 030c 	add.w	r3, r7, #12
 8000680:	2105      	movs	r1, #5
 8000682:	4618      	mov	r0, r3
 8000684:	f002 f9a0 	bl	80029c8 <HAL_RCC_ClockConfig>
 8000688:	4603      	mov	r3, r0
 800068a:	2b00      	cmp	r3, #0
 800068c:	d001      	beq.n	8000692 <SystemClock_Config+0xc2>
  {
    Error_Handler();
 800068e:	f000 f905 	bl	800089c <Error_Handler>
  }
}
 8000692:	bf00      	nop
 8000694:	3750      	adds	r7, #80	; 0x50
 8000696:	46bd      	mov	sp, r7
 8000698:	bd80      	pop	{r7, pc}
 800069a:	bf00      	nop
 800069c:	40023800 	.word	0x40023800
 80006a0:	40007000 	.word	0x40007000

080006a4 <MX_USART3_UART_Init>:
  * @brief USART3 Initialization Function
  * @param None
  * @retval None
  */
static void MX_USART3_UART_Init(void)
{
 80006a4:	b580      	push	{r7, lr}
 80006a6:	af00      	add	r7, sp, #0
  /* USER CODE END USART3_Init 0 */

  /* USER CODE BEGIN USART3_Init 1 */

  /* USER CODE END USART3_Init 1 */
  huart3.Instance = USART3;
 80006a8:	4b11      	ldr	r3, [pc, #68]	; (80006f0 <MX_USART3_UART_Init+0x4c>)
 80006aa:	4a12      	ldr	r2, [pc, #72]	; (80006f4 <MX_USART3_UART_Init+0x50>)
 80006ac:	601a      	str	r2, [r3, #0]
  huart3.Init.BaudRate = 115200;
 80006ae:	4b10      	ldr	r3, [pc, #64]	; (80006f0 <MX_USART3_UART_Init+0x4c>)
 80006b0:	f44f 32e1 	mov.w	r2, #115200	; 0x1c200
 80006b4:	605a      	str	r2, [r3, #4]
  huart3.Init.WordLength = UART_WORDLENGTH_8B;
 80006b6:	4b0e      	ldr	r3, [pc, #56]	; (80006f0 <MX_USART3_UART_Init+0x4c>)
 80006b8:	2200      	movs	r2, #0
 80006ba:	609a      	str	r2, [r3, #8]
  huart3.Init.StopBits = UART_STOPBITS_1;
 80006bc:	4b0c      	ldr	r3, [pc, #48]	; (80006f0 <MX_USART3_UART_Init+0x4c>)
 80006be:	2200      	movs	r2, #0
 80006c0:	60da      	str	r2, [r3, #12]
  huart3.Init.Parity = UART_PARITY_NONE;
 80006c2:	4b0b      	ldr	r3, [pc, #44]	; (80006f0 <MX_USART3_UART_Init+0x4c>)
 80006c4:	2200      	movs	r2, #0
 80006c6:	611a      	str	r2, [r3, #16]
  huart3.Init.Mode = UART_MODE_TX_RX;
 80006c8:	4b09      	ldr	r3, [pc, #36]	; (80006f0 <MX_USART3_UART_Init+0x4c>)
 80006ca:	220c      	movs	r2, #12
 80006cc:	615a      	str	r2, [r3, #20]
  huart3.Init.HwFlowCtl = UART_HWCONTROL_NONE;
 80006ce:	4b08      	ldr	r3, [pc, #32]	; (80006f0 <MX_USART3_UART_Init+0x4c>)
 80006d0:	2200      	movs	r2, #0
 80006d2:	619a      	str	r2, [r3, #24]
  huart3.Init.OverSampling = UART_OVERSAMPLING_16;
 80006d4:	4b06      	ldr	r3, [pc, #24]	; (80006f0 <MX_USART3_UART_Init+0x4c>)
 80006d6:	2200      	movs	r2, #0
 80006d8:	61da      	str	r2, [r3, #28]
  if (HAL_UART_Init(&huart3) != HAL_OK)
 80006da:	4805      	ldr	r0, [pc, #20]	; (80006f0 <MX_USART3_UART_Init+0x4c>)
 80006dc:	f002 fb66 	bl	8002dac <HAL_UART_Init>
 80006e0:	4603      	mov	r3, r0
 80006e2:	2b00      	cmp	r3, #0
 80006e4:	d001      	beq.n	80006ea <MX_USART3_UART_Init+0x46>
  {
    Error_Handler();
 80006e6:	f000 f8d9 	bl	800089c <Error_Handler>
  }
  /* USER CODE BEGIN USART3_Init 2 */

  /* USER CODE END USART3_Init 2 */

}
 80006ea:	bf00      	nop
 80006ec:	bd80      	pop	{r7, pc}
 80006ee:	bf00      	nop
 80006f0:	20000218 	.word	0x20000218
 80006f4:	40004800 	.word	0x40004800

080006f8 <MX_GPIO_Init>:
  * @brief GPIO Initialization Function
  * @param None
  * @retval None
  */
static void MX_GPIO_Init(void)
{
 80006f8:	b580      	push	{r7, lr}
 80006fa:	b08c      	sub	sp, #48	; 0x30
 80006fc:	af00      	add	r7, sp, #0
  GPIO_InitTypeDef GPIO_InitStruct = {0};
 80006fe:	f107 031c 	add.w	r3, r7, #28
 8000702:	2200      	movs	r2, #0
 8000704:	601a      	str	r2, [r3, #0]
 8000706:	605a      	str	r2, [r3, #4]
 8000708:	609a      	str	r2, [r3, #8]
 800070a:	60da      	str	r2, [r3, #12]
 800070c:	611a      	str	r2, [r3, #16]

  /* GPIO Ports Clock Enable */
  __HAL_RCC_GPIOC_CLK_ENABLE();
 800070e:	2300      	movs	r3, #0
 8000710:	61bb      	str	r3, [r7, #24]
 8000712:	4b4b      	ldr	r3, [pc, #300]	; (8000840 <MX_GPIO_Init+0x148>)
 8000714:	6b1b      	ldr	r3, [r3, #48]	; 0x30
 8000716:	4a4a      	ldr	r2, [pc, #296]	; (8000840 <MX_GPIO_Init+0x148>)
 8000718:	f043 0304 	orr.w	r3, r3, #4
 800071c:	6313      	str	r3, [r2, #48]	; 0x30
 800071e:	4b48      	ldr	r3, [pc, #288]	; (8000840 <MX_GPIO_Init+0x148>)
 8000720:	6b1b      	ldr	r3, [r3, #48]	; 0x30
 8000722:	f003 0304 	and.w	r3, r3, #4
 8000726:	61bb      	str	r3, [r7, #24]
 8000728:	69bb      	ldr	r3, [r7, #24]
  __HAL_RCC_GPIOH_CLK_ENABLE();
 800072a:	2300      	movs	r3, #0
 800072c:	617b      	str	r3, [r7, #20]
 800072e:	4b44      	ldr	r3, [pc, #272]	; (8000840 <MX_GPIO_Init+0x148>)
 8000730:	6b1b      	ldr	r3, [r3, #48]	; 0x30
 8000732:	4a43      	ldr	r2, [pc, #268]	; (8000840 <MX_GPIO_Init+0x148>)
 8000734:	f043 0380 	orr.w	r3, r3, #128	; 0x80
 8000738:	6313      	str	r3, [r2, #48]	; 0x30
 800073a:	4b41      	ldr	r3, [pc, #260]	; (8000840 <MX_GPIO_Init+0x148>)
 800073c:	6b1b      	ldr	r3, [r3, #48]	; 0x30
 800073e:	f003 0380 	and.w	r3, r3, #128	; 0x80
 8000742:	617b      	str	r3, [r7, #20]
 8000744:	697b      	ldr	r3, [r7, #20]
  __HAL_RCC_GPIOA_CLK_ENABLE();
 8000746:	2300      	movs	r3, #0
 8000748:	613b      	str	r3, [r7, #16]
 800074a:	4b3d      	ldr	r3, [pc, #244]	; (8000840 <MX_GPIO_Init+0x148>)
 800074c:	6b1b      	ldr	r3, [r3, #48]	; 0x30
 800074e:	4a3c      	ldr	r2, [pc, #240]	; (8000840 <MX_GPIO_Init+0x148>)
 8000750:	f043 0301 	orr.w	r3, r3, #1
 8000754:	6313      	str	r3, [r2, #48]	; 0x30
 8000756:	4b3a      	ldr	r3, [pc, #232]	; (8000840 <MX_GPIO_Init+0x148>)
 8000758:	6b1b      	ldr	r3, [r3, #48]	; 0x30
 800075a:	f003 0301 	and.w	r3, r3, #1
 800075e:	613b      	str	r3, [r7, #16]
 8000760:	693b      	ldr	r3, [r7, #16]
  __HAL_RCC_GPIOB_CLK_ENABLE();
 8000762:	2300      	movs	r3, #0
 8000764:	60fb      	str	r3, [r7, #12]
 8000766:	4b36      	ldr	r3, [pc, #216]	; (8000840 <MX_GPIO_Init+0x148>)
 8000768:	6b1b      	ldr	r3, [r3, #48]	; 0x30
 800076a:	4a35      	ldr	r2, [pc, #212]	; (8000840 <MX_GPIO_Init+0x148>)
 800076c:	f043 0302 	orr.w	r3, r3, #2
 8000770:	6313      	str	r3, [r2, #48]	; 0x30
 8000772:	4b33      	ldr	r3, [pc, #204]	; (8000840 <MX_GPIO_Init+0x148>)
 8000774:	6b1b      	ldr	r3, [r3, #48]	; 0x30
 8000776:	f003 0302 	and.w	r3, r3, #2
 800077a:	60fb      	str	r3, [r7, #12]
 800077c:	68fb      	ldr	r3, [r7, #12]
  __HAL_RCC_GPIOD_CLK_ENABLE();
 800077e:	2300      	movs	r3, #0
 8000780:	60bb      	str	r3, [r7, #8]
 8000782:	4b2f      	ldr	r3, [pc, #188]	; (8000840 <MX_GPIO_Init+0x148>)
 8000784:	6b1b      	ldr	r3, [r3, #48]	; 0x30
 8000786:	4a2e      	ldr	r2, [pc, #184]	; (8000840 <MX_GPIO_Init+0x148>)
 8000788:	f043 0308 	orr.w	r3, r3, #8
 800078c:	6313      	str	r3, [r2, #48]	; 0x30
 800078e:	4b2c      	ldr	r3, [pc, #176]	; (8000840 <MX_GPIO_Init+0x148>)
 8000790:	6b1b      	ldr	r3, [r3, #48]	; 0x30
 8000792:	f003 0308 	and.w	r3, r3, #8
 8000796:	60bb      	str	r3, [r7, #8]
 8000798:	68bb      	ldr	r3, [r7, #8]
  __HAL_RCC_GPIOG_CLK_ENABLE();
 800079a:	2300      	movs	r3, #0
 800079c:	607b      	str	r3, [r7, #4]
 800079e:	4b28      	ldr	r3, [pc, #160]	; (8000840 <MX_GPIO_Init+0x148>)
 80007a0:	6b1b      	ldr	r3, [r3, #48]	; 0x30
 80007a2:	4a27      	ldr	r2, [pc, #156]	; (8000840 <MX_GPIO_Init+0x148>)
 80007a4:	f043 0340 	orr.w	r3, r3, #64	; 0x40
 80007a8:	6313      	str	r3, [r2, #48]	; 0x30
 80007aa:	4b25      	ldr	r3, [pc, #148]	; (8000840 <MX_GPIO_Init+0x148>)
 80007ac:	6b1b      	ldr	r3, [r3, #48]	; 0x30
 80007ae:	f003 0340 	and.w	r3, r3, #64	; 0x40
 80007b2:	607b      	str	r3, [r7, #4]
 80007b4:	687b      	ldr	r3, [r7, #4]

  /*Configure GPIO pin Output Level */
  HAL_GPIO_WritePin(GPIOB, LD1_Pin|LD3_Pin|LD2_Pin, GPIO_PIN_RESET);
 80007b6:	2200      	movs	r2, #0
 80007b8:	f244 0181 	movw	r1, #16513	; 0x4081
 80007bc:	4821      	ldr	r0, [pc, #132]	; (8000844 <MX_GPIO_Init+0x14c>)
 80007be:	f000 fcdb 	bl	8001178 <HAL_GPIO_WritePin>

  /*Configure GPIO pin Output Level */
  HAL_GPIO_WritePin(USB_PowerSwitchOn_GPIO_Port, USB_PowerSwitchOn_Pin, GPIO_PIN_RESET);
 80007c2:	2200      	movs	r2, #0
 80007c4:	2140      	movs	r1, #64	; 0x40
 80007c6:	4820      	ldr	r0, [pc, #128]	; (8000848 <MX_GPIO_Init+0x150>)
 80007c8:	f000 fcd6 	bl	8001178 <HAL_GPIO_WritePin>

  /*Configure GPIO pin : USER_Btn_Pin */
  GPIO_InitStruct.Pin = USER_Btn_Pin;
 80007cc:	f44f 5300 	mov.w	r3, #8192	; 0x2000
 80007d0:	61fb      	str	r3, [r7, #28]
  GPIO_InitStruct.Mode = GPIO_MODE_IT_RISING;
 80007d2:	4b1e      	ldr	r3, [pc, #120]	; (800084c <MX_GPIO_Init+0x154>)
 80007d4:	623b      	str	r3, [r7, #32]
  GPIO_InitStruct.Pull = GPIO_NOPULL;
 80007d6:	2300      	movs	r3, #0
 80007d8:	627b      	str	r3, [r7, #36]	; 0x24
  HAL_GPIO_Init(USER_Btn_GPIO_Port, &GPIO_InitStruct);
 80007da:	f107 031c 	add.w	r3, r7, #28
 80007de:	4619      	mov	r1, r3
 80007e0:	481b      	ldr	r0, [pc, #108]	; (8000850 <MX_GPIO_Init+0x158>)
 80007e2:	f000 fb1f 	bl	8000e24 <HAL_GPIO_Init>

  /*Configure GPIO pins : LD1_Pin LD3_Pin LD2_Pin */
  GPIO_InitStruct.Pin = LD1_Pin|LD3_Pin|LD2_Pin;
 80007e6:	f244 0381 	movw	r3, #16513	; 0x4081
 80007ea:	61fb      	str	r3, [r7, #28]
  GPIO_InitStruct.Mode = GPIO_MODE_OUTPUT_PP;
 80007ec:	2301      	movs	r3, #1
 80007ee:	623b      	str	r3, [r7, #32]
  GPIO_InitStruct.Pull = GPIO_NOPULL;
 80007f0:	2300      	movs	r3, #0
 80007f2:	627b      	str	r3, [r7, #36]	; 0x24
  GPIO_InitStruct.Speed = GPIO_SPEED_FREQ_LOW;
 80007f4:	2300      	movs	r3, #0
 80007f6:	62bb      	str	r3, [r7, #40]	; 0x28
  HAL_GPIO_Init(GPIOB, &GPIO_InitStruct);
 80007f8:	f107 031c 	add.w	r3, r7, #28
 80007fc:	4619      	mov	r1, r3
 80007fe:	4811      	ldr	r0, [pc, #68]	; (8000844 <MX_GPIO_Init+0x14c>)
 8000800:	f000 fb10 	bl	8000e24 <HAL_GPIO_Init>

  /*Configure GPIO pin : USB_PowerSwitchOn_Pin */
  GPIO_InitStruct.Pin = USB_PowerSwitchOn_Pin;
 8000804:	2340      	movs	r3, #64	; 0x40
 8000806:	61fb      	str	r3, [r7, #28]
  GPIO_InitStruct.Mode = GPIO_MODE_OUTPUT_PP;
 8000808:	2301      	movs	r3, #1
 800080a:	623b      	str	r3, [r7, #32]
  GPIO_InitStruct.Pull = GPIO_NOPULL;
 800080c:	2300      	movs	r3, #0
 800080e:	627b      	str	r3, [r7, #36]	; 0x24
  GPIO_InitStruct.Speed = GPIO_SPEED_FREQ_LOW;
 8000810:	2300      	movs	r3, #0
 8000812:	62bb      	str	r3, [r7, #40]	; 0x28
  HAL_GPIO_Init(USB_PowerSwitchOn_GPIO_Port, &GPIO_InitStruct);
 8000814:	f107 031c 	add.w	r3, r7, #28
 8000818:	4619      	mov	r1, r3
 800081a:	480b      	ldr	r0, [pc, #44]	; (8000848 <MX_GPIO_Init+0x150>)
 800081c:	f000 fb02 	bl	8000e24 <HAL_GPIO_Init>

  /*Configure GPIO pin : USB_OverCurrent_Pin */
  GPIO_InitStruct.Pin = USB_OverCurrent_Pin;
 8000820:	2380      	movs	r3, #128	; 0x80
 8000822:	61fb      	str	r3, [r7, #28]
  GPIO_InitStruct.Mode = GPIO_MODE_INPUT;
 8000824:	2300      	movs	r3, #0
 8000826:	623b      	str	r3, [r7, #32]
  GPIO_InitStruct.Pull = GPIO_NOPULL;
 8000828:	2300      	movs	r3, #0
 800082a:	627b      	str	r3, [r7, #36]	; 0x24
  HAL_GPIO_Init(USB_OverCurrent_GPIO_Port, &GPIO_InitStruct);
 800082c:	f107 031c 	add.w	r3, r7, #28
 8000830:	4619      	mov	r1, r3
 8000832:	4805      	ldr	r0, [pc, #20]	; (8000848 <MX_GPIO_Init+0x150>)
 8000834:	f000 faf6 	bl	8000e24 <HAL_GPIO_Init>

}
 8000838:	bf00      	nop
 800083a:	3730      	adds	r7, #48	; 0x30
 800083c:	46bd      	mov	sp, r7
 800083e:	bd80      	pop	{r7, pc}
 8000840:	40023800 	.word	0x40023800
 8000844:	40020400 	.word	0x40020400
 8000848:	40021800 	.word	0x40021800
 800084c:	10110000 	.word	0x10110000
 8000850:	40020800 	.word	0x40020800

08000854 <GPIO_Init_USB_Connect>:

/* USER CODE BEGIN 4 */

static void GPIO_Init_USB_Connect(void)
{
 8000854:	b580      	push	{r7, lr}
 8000856:	b086      	sub	sp, #24
 8000858:	af00      	add	r7, sp, #0
  GPIO_InitTypeDef GPIO_InitStruct = {0};
 800085a:	1d3b      	adds	r3, r7, #4
 800085c:	2200      	movs	r2, #0
 800085e:	601a      	str	r2, [r3, #0]
 8000860:	605a      	str	r2, [r3, #4]
 8000862:	609a      	str	r2, [r3, #8]
 8000864:	60da      	str	r2, [r3, #12]
 8000866:	611a      	str	r2, [r3, #16]

  /*Configure GPIO pin Output Level */
  HAL_GPIO_WritePin(GPIOB, GPIO_PIN_9, GPIO_PIN_RESET);
 8000868:	2200      	movs	r2, #0
 800086a:	f44f 7100 	mov.w	r1, #512	; 0x200
 800086e:	480a      	ldr	r0, [pc, #40]	; (8000898 <GPIO_Init_USB_Connect+0x44>)
 8000870:	f000 fc82 	bl	8001178 <HAL_GPIO_WritePin>

  /*Configure GPIO pin : GPIO_PIN_9 */
  GPIO_InitStruct.Pin = GPIO_PIN_9;
 8000874:	f44f 7300 	mov.w	r3, #512	; 0x200
 8000878:	607b      	str	r3, [r7, #4]
  GPIO_InitStruct.Mode = GPIO_MODE_OUTPUT_PP;
 800087a:	2301      	movs	r3, #1
 800087c:	60bb      	str	r3, [r7, #8]
  GPIO_InitStruct.Pull = GPIO_NOPULL;
 800087e:	2300      	movs	r3, #0
 8000880:	60fb      	str	r3, [r7, #12]
  GPIO_InitStruct.Speed = GPIO_SPEED_FREQ_LOW;
 8000882:	2300      	movs	r3, #0
 8000884:	613b      	str	r3, [r7, #16]
  HAL_GPIO_Init(GPIOB, &GPIO_InitStruct);
 8000886:	1d3b      	adds	r3, r7, #4
 8000888:	4619      	mov	r1, r3
 800088a:	4803      	ldr	r0, [pc, #12]	; (8000898 <GPIO_Init_USB_Connect+0x44>)
 800088c:	f000 faca 	bl	8000e24 <HAL_GPIO_Init>
}
 8000890:	bf00      	nop
 8000892:	3718      	adds	r7, #24
 8000894:	46bd      	mov	sp, r7
 8000896:	bd80      	pop	{r7, pc}
 8000898:	40020400 	.word	0x40020400

0800089c <Error_Handler>:
/**
  * @brief  This function is executed in case of error occurrence.
  * @retval None
  */
void Error_Handler(void)
{
 800089c:	b480      	push	{r7}
 800089e:	af00      	add	r7, sp, #0
  \details Disables IRQ interrupts by setting the I-bit in the CPSR.
           Can only be executed in Privileged modes.
 */
__STATIC_FORCEINLINE void __disable_irq(void)
{
  __ASM volatile ("cpsid i" : : : "memory");
 80008a0:	b672      	cpsid	i
  /* USER CODE BEGIN Error_Handler_Debug */
  /* User can add his own implementation to report the HAL error return state */
  __disable_irq();
  while (1)
 80008a2:	e7fe      	b.n	80008a2 <Error_Handler+0x6>

080008a4 <HAL_MspInit>:
/* USER CODE END 0 */
/**
  * Initializes the Global MSP.
  */
void HAL_MspInit(void)
{
 80008a4:	b480      	push	{r7}
 80008a6:	b083      	sub	sp, #12
 80008a8:	af00      	add	r7, sp, #0
  /* USER CODE BEGIN MspInit 0 */

  /* USER CODE END MspInit 0 */

  __HAL_RCC_SYSCFG_CLK_ENABLE();
 80008aa:	2300      	movs	r3, #0
 80008ac:	607b      	str	r3, [r7, #4]
 80008ae:	4b10      	ldr	r3, [pc, #64]	; (80008f0 <HAL_MspInit+0x4c>)
 80008b0:	6c5b      	ldr	r3, [r3, #68]	; 0x44
 80008b2:	4a0f      	ldr	r2, [pc, #60]	; (80008f0 <HAL_MspInit+0x4c>)
 80008b4:	f443 4380 	orr.w	r3, r3, #16384	; 0x4000
 80008b8:	6453      	str	r3, [r2, #68]	; 0x44
 80008ba:	4b0d      	ldr	r3, [pc, #52]	; (80008f0 <HAL_MspInit+0x4c>)
 80008bc:	6c5b      	ldr	r3, [r3, #68]	; 0x44
 80008be:	f403 4380 	and.w	r3, r3, #16384	; 0x4000
 80008c2:	607b      	str	r3, [r7, #4]
 80008c4:	687b      	ldr	r3, [r7, #4]
  __HAL_RCC_PWR_CLK_ENABLE();
 80008c6:	2300      	movs	r3, #0
 80008c8:	603b      	str	r3, [r7, #0]
 80008ca:	4b09      	ldr	r3, [pc, #36]	; (80008f0 <HAL_MspInit+0x4c>)
 80008cc:	6c1b      	ldr	r3, [r3, #64]	; 0x40
 80008ce:	4a08      	ldr	r2, [pc, #32]	; (80008f0 <HAL_MspInit+0x4c>)
 80008d0:	f043 5380 	orr.w	r3, r3, #268435456	; 0x10000000
 80008d4:	6413      	str	r3, [r2, #64]	; 0x40
 80008d6:	4b06      	ldr	r3, [pc, #24]	; (80008f0 <HAL_MspInit+0x4c>)
 80008d8:	6c1b      	ldr	r3, [r3, #64]	; 0x40
 80008da:	f003 5380 	and.w	r3, r3, #268435456	; 0x10000000
 80008de:	603b      	str	r3, [r7, #0]
 80008e0:	683b      	ldr	r3, [r7, #0]
  /* System interrupt init*/

  /* USER CODE BEGIN MspInit 1 */

  /* USER CODE END MspInit 1 */
}
 80008e2:	bf00      	nop
 80008e4:	370c      	adds	r7, #12
 80008e6:	46bd      	mov	sp, r7
 80008e8:	f85d 7b04 	ldr.w	r7, [sp], #4
 80008ec:	4770      	bx	lr
 80008ee:	bf00      	nop
 80008f0:	40023800 	.word	0x40023800

080008f4 <HAL_UART_MspInit>:
* This function configures the hardware resources used in this example
* @param huart: UART handle pointer
* @retval None
*/
void HAL_UART_MspInit(UART_HandleTypeDef* huart)
{
 80008f4:	b580      	push	{r7, lr}
 80008f6:	b08a      	sub	sp, #40	; 0x28
 80008f8:	af00      	add	r7, sp, #0
 80008fa:	6078      	str	r0, [r7, #4]
  GPIO_InitTypeDef GPIO_InitStruct = {0};
 80008fc:	f107 0314 	add.w	r3, r7, #20
 8000900:	2200      	movs	r2, #0
 8000902:	601a      	str	r2, [r3, #0]
 8000904:	605a      	str	r2, [r3, #4]
 8000906:	609a      	str	r2, [r3, #8]
 8000908:	60da      	str	r2, [r3, #12]
 800090a:	611a      	str	r2, [r3, #16]
  if(huart->Instance==USART3)
 800090c:	687b      	ldr	r3, [r7, #4]
 800090e:	681b      	ldr	r3, [r3, #0]
 8000910:	4a19      	ldr	r2, [pc, #100]	; (8000978 <HAL_UART_MspInit+0x84>)
 8000912:	4293      	cmp	r3, r2
 8000914:	d12c      	bne.n	8000970 <HAL_UART_MspInit+0x7c>
  {
  /* USER CODE BEGIN USART3_MspInit 0 */

  /* USER CODE END USART3_MspInit 0 */
    /* Peripheral clock enable */
    __HAL_RCC_USART3_CLK_ENABLE();
 8000916:	2300      	movs	r3, #0
 8000918:	613b      	str	r3, [r7, #16]
 800091a:	4b18      	ldr	r3, [pc, #96]	; (800097c <HAL_UART_MspInit+0x88>)
 800091c:	6c1b      	ldr	r3, [r3, #64]	; 0x40
 800091e:	4a17      	ldr	r2, [pc, #92]	; (800097c <HAL_UART_MspInit+0x88>)
 8000920:	f443 2380 	orr.w	r3, r3, #262144	; 0x40000
 8000924:	6413      	str	r3, [r2, #64]	; 0x40
 8000926:	4b15      	ldr	r3, [pc, #84]	; (800097c <HAL_UART_MspInit+0x88>)
 8000928:	6c1b      	ldr	r3, [r3, #64]	; 0x40
 800092a:	f403 2380 	and.w	r3, r3, #262144	; 0x40000
 800092e:	613b      	str	r3, [r7, #16]
 8000930:	693b      	ldr	r3, [r7, #16]

    __HAL_RCC_GPIOD_CLK_ENABLE();
 8000932:	2300      	movs	r3, #0
 8000934:	60fb      	str	r3, [r7, #12]
 8000936:	4b11      	ldr	r3, [pc, #68]	; (800097c <HAL_UART_MspInit+0x88>)
 8000938:	6b1b      	ldr	r3, [r3, #48]	; 0x30
 800093a:	4a10      	ldr	r2, [pc, #64]	; (800097c <HAL_UART_MspInit+0x88>)
 800093c:	f043 0308 	orr.w	r3, r3, #8
 8000940:	6313      	str	r3, [r2, #48]	; 0x30
 8000942:	4b0e      	ldr	r3, [pc, #56]	; (800097c <HAL_UART_MspInit+0x88>)
 8000944:	6b1b      	ldr	r3, [r3, #48]	; 0x30
 8000946:	f003 0308 	and.w	r3, r3, #8
 800094a:	60fb      	str	r3, [r7, #12]
 800094c:	68fb      	ldr	r3, [r7, #12]
    /**USART3 GPIO Configuration
    PD8     ------> USART3_TX
    PD9     ------> USART3_RX
    */
    GPIO_InitStruct.Pin = STLK_RX_Pin|STLK_TX_Pin;
 800094e:	f44f 7340 	mov.w	r3, #768	; 0x300
 8000952:	617b      	str	r3, [r7, #20]
    GPIO_InitStruct.Mode = GPIO_MODE_AF_PP;
 8000954:	2302      	movs	r3, #2
 8000956:	61bb      	str	r3, [r7, #24]
    GPIO_InitStruct.Pull = GPIO_NOPULL;
 8000958:	2300      	movs	r3, #0
 800095a:	61fb      	str	r3, [r7, #28]
    GPIO_InitStruct.Speed = GPIO_SPEED_FREQ_VERY_HIGH;
 800095c:	2303      	movs	r3, #3
 800095e:	623b      	str	r3, [r7, #32]
    GPIO_InitStruct.Alternate = GPIO_AF7_USART3;
 8000960:	2307      	movs	r3, #7
 8000962:	627b      	str	r3, [r7, #36]	; 0x24
    HAL_GPIO_Init(GPIOD, &GPIO_InitStruct);
 8000964:	f107 0314 	add.w	r3, r7, #20
 8000968:	4619      	mov	r1, r3
 800096a:	4805      	ldr	r0, [pc, #20]	; (8000980 <HAL_UART_MspInit+0x8c>)
 800096c:	f000 fa5a 	bl	8000e24 <HAL_GPIO_Init>
  /* USER CODE BEGIN USART3_MspInit 1 */

  /* USER CODE END USART3_MspInit 1 */
  }

}
 8000970:	bf00      	nop
 8000972:	3728      	adds	r7, #40	; 0x28
 8000974:	46bd      	mov	sp, r7
 8000976:	bd80      	pop	{r7, pc}
 8000978:	40004800 	.word	0x40004800
 800097c:	40023800 	.word	0x40023800
 8000980:	40020c00 	.word	0x40020c00

08000984 <NMI_Handler>:
/******************************************************************************/
/**
  * @brief This function handles Non maskable interrupt.
  */
void NMI_Handler(void)
{
 8000984:	b480      	push	{r7}
 8000986:	af00      	add	r7, sp, #0
  /* USER CODE BEGIN NonMaskableInt_IRQn 0 */

  /* USER CODE END NonMaskableInt_IRQn 0 */
  /* USER CODE BEGIN NonMaskableInt_IRQn 1 */
  while (1)
 8000988:	e7fe      	b.n	8000988 <NMI_Handler+0x4>

0800098a <HardFault_Handler>:

/**
  * @brief This function handles Hard fault interrupt.
  */
void HardFault_Handler(void)
{
 800098a:	b480      	push	{r7}
 800098c:	af00      	add	r7, sp, #0
  /* USER CODE BEGIN HardFault_IRQn 0 */

  /* USER CODE END HardFault_IRQn 0 */
  while (1)
 800098e:	e7fe      	b.n	800098e <HardFault_Handler+0x4>

08000990 <MemManage_Handler>:

/**
  * @brief This function handles Memory management fault.
  */
void MemManage_Handler(void)
{
 8000990:	b480      	push	{r7}
 8000992:	af00      	add	r7, sp, #0
  /* USER CODE BEGIN MemoryManagement_IRQn 0 */

  /* USER CODE END MemoryManagement_IRQn 0 */
  while (1)
 8000994:	e7fe      	b.n	8000994 <MemManage_Handler+0x4>

08000996 <BusFault_Handler>:

/**
  * @brief This function handles Pre-fetch fault, memory access fault.
  */
void BusFault_Handler(void)
{
 8000996:	b480      	push	{r7}
 8000998:	af00      	add	r7, sp, #0
  /* USER CODE BEGIN BusFault_IRQn 0 */

  /* USER CODE END BusFault_IRQn 0 */
  while (1)
 800099a:	e7fe      	b.n	800099a <BusFault_Handler+0x4>

0800099c <UsageFault_Handler>:

/**
  * @brief This function handles Undefined instruction or illegal state.
  */
void UsageFault_Handler(void)
{
 800099c:	b480      	push	{r7}
 800099e:	af00      	add	r7, sp, #0
  /* USER CODE BEGIN UsageFault_IRQn 0 */

  /* USER CODE END UsageFault_IRQn 0 */
  while (1)
 80009a0:	e7fe      	b.n	80009a0 <UsageFault_Handler+0x4>

080009a2 <SVC_Handler>:

/**
  * @brief This function handles System service call via SWI instruction.
  */
void SVC_Handler(void)
{
 80009a2:	b480      	push	{r7}
 80009a4:	af00      	add	r7, sp, #0

  /* USER CODE END SVCall_IRQn 0 */
  /* USER CODE BEGIN SVCall_IRQn 1 */

  /* USER CODE END SVCall_IRQn 1 */
}
 80009a6:	bf00      	nop
 80009a8:	46bd      	mov	sp, r7
 80009aa:	f85d 7b04 	ldr.w	r7, [sp], #4
 80009ae:	4770      	bx	lr

080009b0 <DebugMon_Handler>:

/**
  * @brief This function handles Debug monitor.
  */
void DebugMon_Handler(void)
{
 80009b0:	b480      	push	{r7}
 80009b2:	af00      	add	r7, sp, #0

  /* USER CODE END DebugMonitor_IRQn 0 */
  /* USER CODE BEGIN DebugMonitor_IRQn 1 */

  /* USER CODE END DebugMonitor_IRQn 1 */
}
 80009b4:	bf00      	nop
 80009b6:	46bd      	mov	sp, r7
 80009b8:	f85d 7b04 	ldr.w	r7, [sp], #4
 80009bc:	4770      	bx	lr

080009be <PendSV_Handler>:

/**
  * @brief This function handles Pendable request for system service.
  */
void PendSV_Handler(void)
{
 80009be:	b480      	push	{r7}
 80009c0:	af00      	add	r7, sp, #0

  /* USER CODE END PendSV_IRQn 0 */
  /* USER CODE BEGIN PendSV_IRQn 1 */

  /* USER CODE END PendSV_IRQn 1 */
}
 80009c2:	bf00      	nop
 80009c4:	46bd      	mov	sp, r7
 80009c6:	f85d 7b04 	ldr.w	r7, [sp], #4
 80009ca:	4770      	bx	lr

080009cc <SysTick_Handler>:

/**
  * @brief This function handles System tick timer.
  */
void SysTick_Handler(void)
{
 80009cc:	b580      	push	{r7, lr}
 80009ce:	af00      	add	r7, sp, #0
  /* USER CODE BEGIN SysTick_IRQn 0 */

  /* USER CODE END SysTick_IRQn 0 */
  HAL_IncTick();
 80009d0:	f000 f8d4 	bl	8000b7c <HAL_IncTick>
  /* USER CODE BEGIN SysTick_IRQn 1 */

  /* USER CODE END SysTick_IRQn 1 */
}
 80009d4:	bf00      	nop
 80009d6:	bd80      	pop	{r7, pc}

080009d8 <OTG_FS_IRQHandler>:

/**
  * @brief This function handles USB On The Go FS global interrupt.
  */
void OTG_FS_IRQHandler(void)
{
 80009d8:	b580      	push	{r7, lr}
 80009da:	af00      	add	r7, sp, #0
  /* USER CODE BEGIN OTG_FS_IRQn 0 */

  /* USER CODE END OTG_FS_IRQn 0 */
  HAL_PCD_IRQHandler(&hpcd_USB_OTG_FS);
 80009dc:	4802      	ldr	r0, [pc, #8]	; (80009e8 <OTG_FS_IRQHandler+0x10>)
 80009de:	f000 fd4f 	bl	8001480 <HAL_PCD_IRQHandler>
  /* USER CODE BEGIN OTG_FS_IRQn 1 */

  /* USER CODE END OTG_FS_IRQn 1 */
}
 80009e2:	bf00      	nop
 80009e4:	bd80      	pop	{r7, pc}
 80009e6:	bf00      	nop
 80009e8:	20000784 	.word	0x20000784

080009ec <_sbrk>:
 *
 * @param incr Memory size
 * @return Pointer to allocated memory
 */
void *_sbrk(ptrdiff_t incr)
{
 80009ec:	b580      	push	{r7, lr}
 80009ee:	b086      	sub	sp, #24
 80009f0:	af00      	add	r7, sp, #0
 80009f2:	6078      	str	r0, [r7, #4]
  extern uint8_t _end; /* Symbol defined in the linker script */
  extern uint8_t _estack; /* Symbol defined in the linker script */
  extern uint32_t _Min_Stack_Size; /* Symbol defined in the linker script */
  const uint32_t stack_limit = (uint32_t)&_estack - (uint32_t)&_Min_Stack_Size;
 80009f4:	4a14      	ldr	r2, [pc, #80]	; (8000a48 <_sbrk+0x5c>)
 80009f6:	4b15      	ldr	r3, [pc, #84]	; (8000a4c <_sbrk+0x60>)
 80009f8:	1ad3      	subs	r3, r2, r3
 80009fa:	617b      	str	r3, [r7, #20]
  const uint8_t *max_heap = (uint8_t *)stack_limit;
 80009fc:	697b      	ldr	r3, [r7, #20]
 80009fe:	613b      	str	r3, [r7, #16]
  uint8_t *prev_heap_end;

  /* Initialize heap end at first call */
  if (NULL == __sbrk_heap_end)
 8000a00:	4b13      	ldr	r3, [pc, #76]	; (8000a50 <_sbrk+0x64>)
 8000a02:	681b      	ldr	r3, [r3, #0]
 8000a04:	2b00      	cmp	r3, #0
 8000a06:	d102      	bne.n	8000a0e <_sbrk+0x22>
  {
    __sbrk_heap_end = &_end;
 8000a08:	4b11      	ldr	r3, [pc, #68]	; (8000a50 <_sbrk+0x64>)
 8000a0a:	4a12      	ldr	r2, [pc, #72]	; (8000a54 <_sbrk+0x68>)
 8000a0c:	601a      	str	r2, [r3, #0]
  }

  /* Protect heap from growing into the reserved MSP stack */
  if (__sbrk_heap_end + incr > max_heap)
 8000a0e:	4b10      	ldr	r3, [pc, #64]	; (8000a50 <_sbrk+0x64>)
 8000a10:	681a      	ldr	r2, [r3, #0]
 8000a12:	687b      	ldr	r3, [r7, #4]
 8000a14:	4413      	add	r3, r2
 8000a16:	693a      	ldr	r2, [r7, #16]
 8000a18:	429a      	cmp	r2, r3
 8000a1a:	d207      	bcs.n	8000a2c <_sbrk+0x40>
  {
    errno = ENOMEM;
 8000a1c:	f006 fa18 	bl	8006e50 <__errno>
 8000a20:	4602      	mov	r2, r0
 8000a22:	230c      	movs	r3, #12
 8000a24:	6013      	str	r3, [r2, #0]
    return (void *)-1;
 8000a26:	f04f 33ff 	mov.w	r3, #4294967295
 8000a2a:	e009      	b.n	8000a40 <_sbrk+0x54>
  }

  prev_heap_end = __sbrk_heap_end;
 8000a2c:	4b08      	ldr	r3, [pc, #32]	; (8000a50 <_sbrk+0x64>)
 8000a2e:	681b      	ldr	r3, [r3, #0]
 8000a30:	60fb      	str	r3, [r7, #12]
  __sbrk_heap_end += incr;
 8000a32:	4b07      	ldr	r3, [pc, #28]	; (8000a50 <_sbrk+0x64>)
 8000a34:	681a      	ldr	r2, [r3, #0]
 8000a36:	687b      	ldr	r3, [r7, #4]
 8000a38:	4413      	add	r3, r2
 8000a3a:	4a05      	ldr	r2, [pc, #20]	; (8000a50 <_sbrk+0x64>)
 8000a3c:	6013      	str	r3, [r2, #0]

  return (void *)prev_heap_end;
 8000a3e:	68fb      	ldr	r3, [r7, #12]
}
 8000a40:	4618      	mov	r0, r3
 8000a42:	3718      	adds	r7, #24
 8000a44:	46bd      	mov	sp, r7
 8000a46:	bd80      	pop	{r7, pc}
 8000a48:	20030000 	.word	0x20030000
 8000a4c:	00000400 	.word	0x00000400
 8000a50:	20000208 	.word	0x20000208
 8000a54:	20000b90 	.word	0x20000b90

08000a58 <SystemInit>:
  *         configuration.
  * @param  None
  * @retval None
  */
void SystemInit(void)
{
 8000a58:	b480      	push	{r7}
 8000a5a:	af00      	add	r7, sp, #0
  /* FPU settings ------------------------------------------------------------*/
  #if (__FPU_PRESENT == 1) && (__FPU_USED == 1)
    SCB->CPACR |= ((3UL << 10*2)|(3UL << 11*2));  /* set CP10 and CP11 Full Access */
 8000a5c:	4b08      	ldr	r3, [pc, #32]	; (8000a80 <SystemInit+0x28>)
 8000a5e:	f8d3 3088 	ldr.w	r3, [r3, #136]	; 0x88
 8000a62:	4a07      	ldr	r2, [pc, #28]	; (8000a80 <SystemInit+0x28>)
 8000a64:	f443 0370 	orr.w	r3, r3, #15728640	; 0xf00000
 8000a68:	f8c2 3088 	str.w	r3, [r2, #136]	; 0x88

  /* Configure the Vector Table location add offset address ------------------*/
#ifdef VECT_TAB_SRAM
  SCB->VTOR = SRAM_BASE | VECT_TAB_OFFSET; /* Vector Table Relocation in Internal SRAM */
#else
  SCB->VTOR = FLASH_BASE | VECT_TAB_OFFSET; /* Vector Table Relocation in Internal FLASH */
 8000a6c:	4b04      	ldr	r3, [pc, #16]	; (8000a80 <SystemInit+0x28>)
 8000a6e:	f04f 6200 	mov.w	r2, #134217728	; 0x8000000
 8000a72:	609a      	str	r2, [r3, #8]
#endif
}
 8000a74:	bf00      	nop
 8000a76:	46bd      	mov	sp, r7
 8000a78:	f85d 7b04 	ldr.w	r7, [sp], #4
 8000a7c:	4770      	bx	lr
 8000a7e:	bf00      	nop
 8000a80:	e000ed00 	.word	0xe000ed00

08000a84 <Reset_Handler>:

    .section  .text.Reset_Handler
  .weak  Reset_Handler
  .type  Reset_Handler, %function
Reset_Handler:  
  ldr   sp, =_estack     /* set stack pointer */
 8000a84:	f8df d034 	ldr.w	sp, [pc, #52]	; 8000abc <LoopFillZerobss+0x14>

/* Copy the data segment initializers from flash to SRAM */  
  movs  r1, #0
 8000a88:	2100      	movs	r1, #0
  b  LoopCopyDataInit
 8000a8a:	e003      	b.n	8000a94 <LoopCopyDataInit>

08000a8c <CopyDataInit>:

CopyDataInit:
  ldr  r3, =_sidata
 8000a8c:	4b0c      	ldr	r3, [pc, #48]	; (8000ac0 <LoopFillZerobss+0x18>)
  ldr  r3, [r3, r1]
 8000a8e:	585b      	ldr	r3, [r3, r1]
  str  r3, [r0, r1]
 8000a90:	5043      	str	r3, [r0, r1]
  adds  r1, r1, #4
 8000a92:	3104      	adds	r1, #4

08000a94 <LoopCopyDataInit>:
    
LoopCopyDataInit:
  ldr  r0, =_sdata
 8000a94:	480b      	ldr	r0, [pc, #44]	; (8000ac4 <LoopFillZerobss+0x1c>)
  ldr  r3, =_edata
 8000a96:	4b0c      	ldr	r3, [pc, #48]	; (8000ac8 <LoopFillZerobss+0x20>)
  adds  r2, r0, r1
 8000a98:	1842      	adds	r2, r0, r1
  cmp  r2, r3
 8000a9a:	429a      	cmp	r2, r3
  bcc  CopyDataInit
 8000a9c:	d3f6      	bcc.n	8000a8c <CopyDataInit>
  ldr  r2, =_sbss
 8000a9e:	4a0b      	ldr	r2, [pc, #44]	; (8000acc <LoopFillZerobss+0x24>)
  b  LoopFillZerobss
 8000aa0:	e002      	b.n	8000aa8 <LoopFillZerobss>

08000aa2 <FillZerobss>:
/* Zero fill the bss segment. */  
FillZerobss:
  movs  r3, #0
 8000aa2:	2300      	movs	r3, #0
  str  r3, [r2], #4
 8000aa4:	f842 3b04 	str.w	r3, [r2], #4

08000aa8 <LoopFillZerobss>:
    
LoopFillZerobss:
  ldr  r3, = _ebss
 8000aa8:	4b09      	ldr	r3, [pc, #36]	; (8000ad0 <LoopFillZerobss+0x28>)
  cmp  r2, r3
 8000aaa:	429a      	cmp	r2, r3
  bcc  FillZerobss
 8000aac:	d3f9      	bcc.n	8000aa2 <FillZerobss>

/* Call the clock system intitialization function.*/
  bl  SystemInit   
 8000aae:	f7ff ffd3 	bl	8000a58 <SystemInit>
/* Call static constructors */
    bl __libc_init_array
 8000ab2:	f006 f9d3 	bl	8006e5c <__libc_init_array>
/* Call the application's entry point.*/
  bl  main
 8000ab6:	f7ff fd21 	bl	80004fc <main>
  bx  lr    
 8000aba:	4770      	bx	lr
  ldr   sp, =_estack     /* set stack pointer */
 8000abc:	20030000 	.word	0x20030000
  ldr  r3, =_sidata
 8000ac0:	080070e0 	.word	0x080070e0
  ldr  r0, =_sdata
 8000ac4:	20000000 	.word	0x20000000
  ldr  r3, =_edata
 8000ac8:	200001ec 	.word	0x200001ec
  ldr  r2, =_sbss
 8000acc:	200001ec 	.word	0x200001ec
  ldr  r3, = _ebss
 8000ad0:	20000b90 	.word	0x20000b90

08000ad4 <ADC_IRQHandler>:
 * @retval None       
*/
    .section  .text.Default_Handler,"ax",%progbits
Default_Handler:
Infinite_Loop:
  b  Infinite_Loop
 8000ad4:	e7fe      	b.n	8000ad4 <ADC_IRQHandler>
	...

08000ad8 <HAL_Init>:
  *         need to ensure that the SysTick time base is always set to 1 millisecond
  *         to have correct HAL operation.
  * @retval HAL status
  */
HAL_StatusTypeDef HAL_Init(void)
{
 8000ad8:	b580      	push	{r7, lr}
 8000ada:	af00      	add	r7, sp, #0
  /* Configure Flash prefetch, Instruction cache, Data cache */ 
#if (INSTRUCTION_CACHE_ENABLE != 0U)
  __HAL_FLASH_INSTRUCTION_CACHE_ENABLE();
 8000adc:	4b0e      	ldr	r3, [pc, #56]	; (8000b18 <HAL_Init+0x40>)
 8000ade:	681b      	ldr	r3, [r3, #0]
 8000ae0:	4a0d      	ldr	r2, [pc, #52]	; (8000b18 <HAL_Init+0x40>)
 8000ae2:	f443 7300 	orr.w	r3, r3, #512	; 0x200
 8000ae6:	6013      	str	r3, [r2, #0]
#endif /* INSTRUCTION_CACHE_ENABLE */

#if (DATA_CACHE_ENABLE != 0U)
  __HAL_FLASH_DATA_CACHE_ENABLE();
 8000ae8:	4b0b      	ldr	r3, [pc, #44]	; (8000b18 <HAL_Init+0x40>)
 8000aea:	681b      	ldr	r3, [r3, #0]
 8000aec:	4a0a      	ldr	r2, [pc, #40]	; (8000b18 <HAL_Init+0x40>)
 8000aee:	f443 6380 	orr.w	r3, r3, #1024	; 0x400
 8000af2:	6013      	str	r3, [r2, #0]
#endif /* DATA_CACHE_ENABLE */

#if (PREFETCH_ENABLE != 0U)
  __HAL_FLASH_PREFETCH_BUFFER_ENABLE();
 8000af4:	4b08      	ldr	r3, [pc, #32]	; (8000b18 <HAL_Init+0x40>)
 8000af6:	681b      	ldr	r3, [r3, #0]
 8000af8:	4a07      	ldr	r2, [pc, #28]	; (8000b18 <HAL_Init+0x40>)
 8000afa:	f443 7380 	orr.w	r3, r3, #256	; 0x100
 8000afe:	6013      	str	r3, [r2, #0]
#endif /* PREFETCH_ENABLE */

  /* Set Interrupt Group Priority */
  HAL_NVIC_SetPriorityGrouping(NVIC_PRIORITYGROUP_4);
 8000b00:	2003      	movs	r0, #3
 8000b02:	f000 f94d 	bl	8000da0 <HAL_NVIC_SetPriorityGrouping>

  /* Use systick as time base source and configure 1ms tick (default clock after Reset is HSI) */
  HAL_InitTick(TICK_INT_PRIORITY);
 8000b06:	2000      	movs	r0, #0
 8000b08:	f000 f808 	bl	8000b1c <HAL_InitTick>

  /* Init the low level hardware */
  HAL_MspInit();
 8000b0c:	f7ff feca 	bl	80008a4 <HAL_MspInit>

  /* Return function status */
  return HAL_OK;
 8000b10:	2300      	movs	r3, #0
}
 8000b12:	4618      	mov	r0, r3
 8000b14:	bd80      	pop	{r7, pc}
 8000b16:	bf00      	nop
 8000b18:	40023c00 	.word	0x40023c00

08000b1c <HAL_InitTick>:
  *       implementation  in user file.
  * @param TickPriority Tick interrupt priority.
  * @retval HAL status
  */
__weak HAL_StatusTypeDef HAL_InitTick(uint32_t TickPriority)
{
 8000b1c:	b580      	push	{r7, lr}
 8000b1e:	b082      	sub	sp, #8
 8000b20:	af00      	add	r7, sp, #0
 8000b22:	6078      	str	r0, [r7, #4]
  /* Configure the SysTick to have interrupt in 1ms time basis*/
  if (HAL_SYSTICK_Config(SystemCoreClock / (1000U / uwTickFreq)) > 0U)
 8000b24:	4b12      	ldr	r3, [pc, #72]	; (8000b70 <HAL_InitTick+0x54>)
 8000b26:	681a      	ldr	r2, [r3, #0]
 8000b28:	4b12      	ldr	r3, [pc, #72]	; (8000b74 <HAL_InitTick+0x58>)
 8000b2a:	781b      	ldrb	r3, [r3, #0]
 8000b2c:	4619      	mov	r1, r3
 8000b2e:	f44f 737a 	mov.w	r3, #1000	; 0x3e8
 8000b32:	fbb3 f3f1 	udiv	r3, r3, r1
 8000b36:	fbb2 f3f3 	udiv	r3, r2, r3
 8000b3a:	4618      	mov	r0, r3
 8000b3c:	f000 f965 	bl	8000e0a <HAL_SYSTICK_Config>
 8000b40:	4603      	mov	r3, r0
 8000b42:	2b00      	cmp	r3, #0
 8000b44:	d001      	beq.n	8000b4a <HAL_InitTick+0x2e>
  {
    return HAL_ERROR;
 8000b46:	2301      	movs	r3, #1
 8000b48:	e00e      	b.n	8000b68 <HAL_InitTick+0x4c>
  }

  /* Configure the SysTick IRQ priority */
  if (TickPriority < (1UL << __NVIC_PRIO_BITS))
 8000b4a:	687b      	ldr	r3, [r7, #4]
 8000b4c:	2b0f      	cmp	r3, #15
 8000b4e:	d80a      	bhi.n	8000b66 <HAL_InitTick+0x4a>
  {
    HAL_NVIC_SetPriority(SysTick_IRQn, TickPriority, 0U);
 8000b50:	2200      	movs	r2, #0
 8000b52:	6879      	ldr	r1, [r7, #4]
 8000b54:	f04f 30ff 	mov.w	r0, #4294967295
 8000b58:	f000 f92d 	bl	8000db6 <HAL_NVIC_SetPriority>
    uwTickPrio = TickPriority;
 8000b5c:	4a06      	ldr	r2, [pc, #24]	; (8000b78 <HAL_InitTick+0x5c>)
 8000b5e:	687b      	ldr	r3, [r7, #4]
 8000b60:	6013      	str	r3, [r2, #0]
  {
    return HAL_ERROR;
  }

  /* Return function status */
  return HAL_OK;
 8000b62:	2300      	movs	r3, #0
 8000b64:	e000      	b.n	8000b68 <HAL_InitTick+0x4c>
    return HAL_ERROR;
 8000b66:	2301      	movs	r3, #1
}
 8000b68:	4618      	mov	r0, r3
 8000b6a:	3708      	adds	r7, #8
 8000b6c:	46bd      	mov	sp, r7
 8000b6e:	bd80      	pop	{r7, pc}
 8000b70:	20000000 	.word	0x20000000
 8000b74:	20000008 	.word	0x20000008
 8000b78:	20000004 	.word	0x20000004

08000b7c <HAL_IncTick>:
 * @note This function is declared as __weak to be overwritten in case of other 
  *      implementations in user file.
  * @retval None
  */
__weak void HAL_IncTick(void)
{
 8000b7c:	b480      	push	{r7}
 8000b7e:	af00      	add	r7, sp, #0
  uwTick += uwTickFreq;
 8000b80:	4b06      	ldr	r3, [pc, #24]	; (8000b9c <HAL_IncTick+0x20>)
 8000b82:	781b      	ldrb	r3, [r3, #0]
 8000b84:	461a      	mov	r2, r3
 8000b86:	4b06      	ldr	r3, [pc, #24]	; (8000ba0 <HAL_IncTick+0x24>)
 8000b88:	681b      	ldr	r3, [r3, #0]
 8000b8a:	4413      	add	r3, r2
 8000b8c:	4a04      	ldr	r2, [pc, #16]	; (8000ba0 <HAL_IncTick+0x24>)
 8000b8e:	6013      	str	r3, [r2, #0]
}
 8000b90:	bf00      	nop
 8000b92:	46bd      	mov	sp, r7
 8000b94:	f85d 7b04 	ldr.w	r7, [sp], #4
 8000b98:	4770      	bx	lr
 8000b9a:	bf00      	nop
 8000b9c:	20000008 	.word	0x20000008
 8000ba0:	200002a0 	.word	0x200002a0

08000ba4 <HAL_GetTick>:
  * @note This function is declared as __weak to be overwritten in case of other 
  *       implementations in user file.
  * @retval tick value
  */
__weak uint32_t HAL_GetTick(void)
{
 8000ba4:	b480      	push	{r7}
 8000ba6:	af00      	add	r7, sp, #0
  return uwTick;
 8000ba8:	4b03      	ldr	r3, [pc, #12]	; (8000bb8 <HAL_GetTick+0x14>)
 8000baa:	681b      	ldr	r3, [r3, #0]
}
 8000bac:	4618      	mov	r0, r3
 8000bae:	46bd      	mov	sp, r7
 8000bb0:	f85d 7b04 	ldr.w	r7, [sp], #4
 8000bb4:	4770      	bx	lr
 8000bb6:	bf00      	nop
 8000bb8:	200002a0 	.word	0x200002a0

08000bbc <HAL_Delay>:
  *       implementations in user file.
  * @param Delay specifies the delay time length, in milliseconds.
  * @retval None
  */
__weak void HAL_Delay(uint32_t Delay)
{
 8000bbc:	b580      	push	{r7, lr}
 8000bbe:	b084      	sub	sp, #16
 8000bc0:	af00      	add	r7, sp, #0
 8000bc2:	6078      	str	r0, [r7, #4]
  uint32_t tickstart = HAL_GetTick();
 8000bc4:	f7ff ffee 	bl	8000ba4 <HAL_GetTick>
 8000bc8:	60b8      	str	r0, [r7, #8]
  uint32_t wait = Delay;
 8000bca:	687b      	ldr	r3, [r7, #4]
 8000bcc:	60fb      	str	r3, [r7, #12]

  /* Add a freq to guarantee minimum wait */
  if (wait < HAL_MAX_DELAY)
 8000bce:	68fb      	ldr	r3, [r7, #12]
 8000bd0:	f1b3 3fff 	cmp.w	r3, #4294967295
 8000bd4:	d005      	beq.n	8000be2 <HAL_Delay+0x26>
  {
    wait += (uint32_t)(uwTickFreq);
 8000bd6:	4b09      	ldr	r3, [pc, #36]	; (8000bfc <HAL_Delay+0x40>)
 8000bd8:	781b      	ldrb	r3, [r3, #0]
 8000bda:	461a      	mov	r2, r3
 8000bdc:	68fb      	ldr	r3, [r7, #12]
 8000bde:	4413      	add	r3, r2
 8000be0:	60fb      	str	r3, [r7, #12]
  }

  while((HAL_GetTick() - tickstart) < wait)
 8000be2:	bf00      	nop
 8000be4:	f7ff ffde 	bl	8000ba4 <HAL_GetTick>
 8000be8:	4602      	mov	r2, r0
 8000bea:	68bb      	ldr	r3, [r7, #8]
 8000bec:	1ad3      	subs	r3, r2, r3
 8000bee:	68fa      	ldr	r2, [r7, #12]
 8000bf0:	429a      	cmp	r2, r3
 8000bf2:	d8f7      	bhi.n	8000be4 <HAL_Delay+0x28>
  {
  }
}
 8000bf4:	bf00      	nop
 8000bf6:	3710      	adds	r7, #16
 8000bf8:	46bd      	mov	sp, r7
 8000bfa:	bd80      	pop	{r7, pc}
 8000bfc:	20000008 	.word	0x20000008

08000c00 <__NVIC_SetPriorityGrouping>:
           In case of a conflict between priority grouping and available
           priority bits (__NVIC_PRIO_BITS), the smallest possible priority group is set.
  \param [in]      PriorityGroup  Priority grouping field.
 */
__STATIC_INLINE void __NVIC_SetPriorityGrouping(uint32_t PriorityGroup)
{
 8000c00:	b480      	push	{r7}
 8000c02:	b085      	sub	sp, #20
 8000c04:	af00      	add	r7, sp, #0
 8000c06:	6078      	str	r0, [r7, #4]
  uint32_t reg_value;
  uint32_t PriorityGroupTmp = (PriorityGroup & (uint32_t)0x07UL);             /* only values 0..7 are used          */
 8000c08:	687b      	ldr	r3, [r7, #4]
 8000c0a:	f003 0307 	and.w	r3, r3, #7
 8000c0e:	60fb      	str	r3, [r7, #12]

  reg_value  =  SCB->AIRCR;                                                   /* read old register configuration    */
 8000c10:	4b0c      	ldr	r3, [pc, #48]	; (8000c44 <__NVIC_SetPriorityGrouping+0x44>)
 8000c12:	68db      	ldr	r3, [r3, #12]
 8000c14:	60bb      	str	r3, [r7, #8]
  reg_value &= ~((uint32_t)(SCB_AIRCR_VECTKEY_Msk | SCB_AIRCR_PRIGROUP_Msk)); /* clear bits to change               */
 8000c16:	68ba      	ldr	r2, [r7, #8]
 8000c18:	f64f 03ff 	movw	r3, #63743	; 0xf8ff
 8000c1c:	4013      	ands	r3, r2
 8000c1e:	60bb      	str	r3, [r7, #8]
  reg_value  =  (reg_value                                   |
                ((uint32_t)0x5FAUL << SCB_AIRCR_VECTKEY_Pos) |
                (PriorityGroupTmp << SCB_AIRCR_PRIGROUP_Pos)  );              /* Insert write key and priority group */
 8000c20:	68fb      	ldr	r3, [r7, #12]
 8000c22:	021a      	lsls	r2, r3, #8
                ((uint32_t)0x5FAUL << SCB_AIRCR_VECTKEY_Pos) |
 8000c24:	68bb      	ldr	r3, [r7, #8]
 8000c26:	4313      	orrs	r3, r2
  reg_value  =  (reg_value                                   |
 8000c28:	f043 63bf 	orr.w	r3, r3, #100139008	; 0x5f80000
 8000c2c:	f443 3300 	orr.w	r3, r3, #131072	; 0x20000
 8000c30:	60bb      	str	r3, [r7, #8]
  SCB->AIRCR =  reg_value;
 8000c32:	4a04      	ldr	r2, [pc, #16]	; (8000c44 <__NVIC_SetPriorityGrouping+0x44>)
 8000c34:	68bb      	ldr	r3, [r7, #8]
 8000c36:	60d3      	str	r3, [r2, #12]
}
 8000c38:	bf00      	nop
 8000c3a:	3714      	adds	r7, #20
 8000c3c:	46bd      	mov	sp, r7
 8000c3e:	f85d 7b04 	ldr.w	r7, [sp], #4
 8000c42:	4770      	bx	lr
 8000c44:	e000ed00 	.word	0xe000ed00

08000c48 <__NVIC_GetPriorityGrouping>:
  \brief   Get Priority Grouping
  \details Reads the priority grouping field from the NVIC Interrupt Controller.
  \return                Priority grouping field (SCB->AIRCR [10:8] PRIGROUP field).
 */
__STATIC_INLINE uint32_t __NVIC_GetPriorityGrouping(void)
{
 8000c48:	b480      	push	{r7}
 8000c4a:	af00      	add	r7, sp, #0
  return ((uint32_t)((SCB->AIRCR & SCB_AIRCR_PRIGROUP_Msk) >> SCB_AIRCR_PRIGROUP_Pos));
 8000c4c:	4b04      	ldr	r3, [pc, #16]	; (8000c60 <__NVIC_GetPriorityGrouping+0x18>)
 8000c4e:	68db      	ldr	r3, [r3, #12]
 8000c50:	0a1b      	lsrs	r3, r3, #8
 8000c52:	f003 0307 	and.w	r3, r3, #7
}
 8000c56:	4618      	mov	r0, r3
 8000c58:	46bd      	mov	sp, r7
 8000c5a:	f85d 7b04 	ldr.w	r7, [sp], #4
 8000c5e:	4770      	bx	lr
 8000c60:	e000ed00 	.word	0xe000ed00

08000c64 <__NVIC_EnableIRQ>:
  \details Enables a device specific interrupt in the NVIC interrupt controller.
  \param [in]      IRQn  Device specific interrupt number.
  \note    IRQn must not be negative.
 */
__STATIC_INLINE void __NVIC_EnableIRQ(IRQn_Type IRQn)
{
 8000c64:	b480      	push	{r7}
 8000c66:	b083      	sub	sp, #12
 8000c68:	af00      	add	r7, sp, #0
 8000c6a:	4603      	mov	r3, r0
 8000c6c:	71fb      	strb	r3, [r7, #7]
  if ((int32_t)(IRQn) >= 0)
 8000c6e:	f997 3007 	ldrsb.w	r3, [r7, #7]
 8000c72:	2b00      	cmp	r3, #0
 8000c74:	db0b      	blt.n	8000c8e <__NVIC_EnableIRQ+0x2a>
  {
    NVIC->ISER[(((uint32_t)IRQn) >> 5UL)] = (uint32_t)(1UL << (((uint32_t)IRQn) & 0x1FUL));
 8000c76:	79fb      	ldrb	r3, [r7, #7]
 8000c78:	f003 021f 	and.w	r2, r3, #31
 8000c7c:	4907      	ldr	r1, [pc, #28]	; (8000c9c <__NVIC_EnableIRQ+0x38>)
 8000c7e:	f997 3007 	ldrsb.w	r3, [r7, #7]
 8000c82:	095b      	lsrs	r3, r3, #5
 8000c84:	2001      	movs	r0, #1
 8000c86:	fa00 f202 	lsl.w	r2, r0, r2
 8000c8a:	f841 2023 	str.w	r2, [r1, r3, lsl #2]
  }
}
 8000c8e:	bf00      	nop
 8000c90:	370c      	adds	r7, #12
 8000c92:	46bd      	mov	sp, r7
 8000c94:	f85d 7b04 	ldr.w	r7, [sp], #4
 8000c98:	4770      	bx	lr
 8000c9a:	bf00      	nop
 8000c9c:	e000e100 	.word	0xe000e100

08000ca0 <__NVIC_SetPriority>:
  \param [in]      IRQn  Interrupt number.
  \param [in]  priority  Priority to set.
  \note    The priority cannot be set for every processor exception.
 */
__STATIC_INLINE void __NVIC_SetPriority(IRQn_Type IRQn, uint32_t priority)
{
 8000ca0:	b480      	push	{r7}
 8000ca2:	b083      	sub	sp, #12
 8000ca4:	af00      	add	r7, sp, #0
 8000ca6:	4603      	mov	r3, r0
 8000ca8:	6039      	str	r1, [r7, #0]
 8000caa:	71fb      	strb	r3, [r7, #7]
  if ((int32_t)(IRQn) >= 0)
 8000cac:	f997 3007 	ldrsb.w	r3, [r7, #7]
 8000cb0:	2b00      	cmp	r3, #0
 8000cb2:	db0a      	blt.n	8000cca <__NVIC_SetPriority+0x2a>
  {
    NVIC->IP[((uint32_t)IRQn)]               = (uint8_t)((priority << (8U - __NVIC_PRIO_BITS)) & (uint32_t)0xFFUL);
 8000cb4:	683b      	ldr	r3, [r7, #0]
 8000cb6:	b2da      	uxtb	r2, r3
 8000cb8:	490c      	ldr	r1, [pc, #48]	; (8000cec <__NVIC_SetPriority+0x4c>)
 8000cba:	f997 3007 	ldrsb.w	r3, [r7, #7]
 8000cbe:	0112      	lsls	r2, r2, #4
 8000cc0:	b2d2      	uxtb	r2, r2
 8000cc2:	440b      	add	r3, r1
 8000cc4:	f883 2300 	strb.w	r2, [r3, #768]	; 0x300
  }
  else
  {
    SCB->SHP[(((uint32_t)IRQn) & 0xFUL)-4UL] = (uint8_t)((priority << (8U - __NVIC_PRIO_BITS)) & (uint32_t)0xFFUL);
  }
}
 8000cc8:	e00a      	b.n	8000ce0 <__NVIC_SetPriority+0x40>
    SCB->SHP[(((uint32_t)IRQn) & 0xFUL)-4UL] = (uint8_t)((priority << (8U - __NVIC_PRIO_BITS)) & (uint32_t)0xFFUL);
 8000cca:	683b      	ldr	r3, [r7, #0]
 8000ccc:	b2da      	uxtb	r2, r3
 8000cce:	4908      	ldr	r1, [pc, #32]	; (8000cf0 <__NVIC_SetPriority+0x50>)
 8000cd0:	79fb      	ldrb	r3, [r7, #7]
 8000cd2:	f003 030f 	and.w	r3, r3, #15
 8000cd6:	3b04      	subs	r3, #4
 8000cd8:	0112      	lsls	r2, r2, #4
 8000cda:	b2d2      	uxtb	r2, r2
 8000cdc:	440b      	add	r3, r1
 8000cde:	761a      	strb	r2, [r3, #24]
}
 8000ce0:	bf00      	nop
 8000ce2:	370c      	adds	r7, #12
 8000ce4:	46bd      	mov	sp, r7
 8000ce6:	f85d 7b04 	ldr.w	r7, [sp], #4
 8000cea:	4770      	bx	lr
 8000cec:	e000e100 	.word	0xe000e100
 8000cf0:	e000ed00 	.word	0xe000ed00

08000cf4 <NVIC_EncodePriority>:
  \param [in]   PreemptPriority  Preemptive priority value (starting from 0).
  \param [in]       SubPriority  Subpriority value (starting from 0).
  \return                        Encoded priority. Value can be used in the function \ref NVIC_SetPriority().
 */
__STATIC_INLINE uint32_t NVIC_EncodePriority (uint32_t PriorityGroup, uint32_t PreemptPriority, uint32_t SubPriority)
{
 8000cf4:	b480      	push	{r7}
 8000cf6:	b089      	sub	sp, #36	; 0x24
 8000cf8:	af00      	add	r7, sp, #0
 8000cfa:	60f8      	str	r0, [r7, #12]
 8000cfc:	60b9      	str	r1, [r7, #8]
 8000cfe:	607a      	str	r2, [r7, #4]
  uint32_t PriorityGroupTmp = (PriorityGroup & (uint32_t)0x07UL);   /* only values 0..7 are used          */
 8000d00:	68fb      	ldr	r3, [r7, #12]
 8000d02:	f003 0307 	and.w	r3, r3, #7
 8000d06:	61fb      	str	r3, [r7, #28]
  uint32_t PreemptPriorityBits;
  uint32_t SubPriorityBits;

  PreemptPriorityBits = ((7UL - PriorityGroupTmp) > (uint32_t)(__NVIC_PRIO_BITS)) ? (uint32_t)(__NVIC_PRIO_BITS) : (uint32_t)(7UL - PriorityGroupTmp);
 8000d08:	69fb      	ldr	r3, [r7, #28]
 8000d0a:	f1c3 0307 	rsb	r3, r3, #7
 8000d0e:	2b04      	cmp	r3, #4
 8000d10:	bf28      	it	cs
 8000d12:	2304      	movcs	r3, #4
 8000d14:	61bb      	str	r3, [r7, #24]
  SubPriorityBits     = ((PriorityGroupTmp + (uint32_t)(__NVIC_PRIO_BITS)) < (uint32_t)7UL) ? (uint32_t)0UL : (uint32_t)((PriorityGroupTmp - 7UL) + (uint32_t)(__NVIC_PRIO_BITS));
 8000d16:	69fb      	ldr	r3, [r7, #28]
 8000d18:	3304      	adds	r3, #4
 8000d1a:	2b06      	cmp	r3, #6
 8000d1c:	d902      	bls.n	8000d24 <NVIC_EncodePriority+0x30>
 8000d1e:	69fb      	ldr	r3, [r7, #28]
 8000d20:	3b03      	subs	r3, #3
 8000d22:	e000      	b.n	8000d26 <NVIC_EncodePriority+0x32>
 8000d24:	2300      	movs	r3, #0
 8000d26:	617b      	str	r3, [r7, #20]

  return (
           ((PreemptPriority & (uint32_t)((1UL << (PreemptPriorityBits)) - 1UL)) << SubPriorityBits) |
 8000d28:	f04f 32ff 	mov.w	r2, #4294967295
 8000d2c:	69bb      	ldr	r3, [r7, #24]
 8000d2e:	fa02 f303 	lsl.w	r3, r2, r3
 8000d32:	43da      	mvns	r2, r3
 8000d34:	68bb      	ldr	r3, [r7, #8]
 8000d36:	401a      	ands	r2, r3
 8000d38:	697b      	ldr	r3, [r7, #20]
 8000d3a:	409a      	lsls	r2, r3
           ((SubPriority     & (uint32_t)((1UL << (SubPriorityBits    )) - 1UL)))
 8000d3c:	f04f 31ff 	mov.w	r1, #4294967295
 8000d40:	697b      	ldr	r3, [r7, #20]
 8000d42:	fa01 f303 	lsl.w	r3, r1, r3
 8000d46:	43d9      	mvns	r1, r3
 8000d48:	687b      	ldr	r3, [r7, #4]
 8000d4a:	400b      	ands	r3, r1
           ((PreemptPriority & (uint32_t)((1UL << (PreemptPriorityBits)) - 1UL)) << SubPriorityBits) |
 8000d4c:	4313      	orrs	r3, r2
         );
}
 8000d4e:	4618      	mov	r0, r3
 8000d50:	3724      	adds	r7, #36	; 0x24
 8000d52:	46bd      	mov	sp, r7
 8000d54:	f85d 7b04 	ldr.w	r7, [sp], #4
 8000d58:	4770      	bx	lr
	...

08000d5c <SysTick_Config>:
  \note    When the variable <b>__Vendor_SysTickConfig</b> is set to 1, then the
           function <b>SysTick_Config</b> is not included. In this case, the file <b><i>device</i>.h</b>
           must contain a vendor-specific implementation of this function.
 */
__STATIC_INLINE uint32_t SysTick_Config(uint32_t ticks)
{
 8000d5c:	b580      	push	{r7, lr}
 8000d5e:	b082      	sub	sp, #8
 8000d60:	af00      	add	r7, sp, #0
 8000d62:	6078      	str	r0, [r7, #4]
  if ((ticks - 1UL) > SysTick_LOAD_RELOAD_Msk)
 8000d64:	687b      	ldr	r3, [r7, #4]
 8000d66:	3b01      	subs	r3, #1
 8000d68:	f1b3 7f80 	cmp.w	r3, #16777216	; 0x1000000
 8000d6c:	d301      	bcc.n	8000d72 <SysTick_Config+0x16>
  {
    return (1UL);                                                   /* Reload value impossible */
 8000d6e:	2301      	movs	r3, #1
 8000d70:	e00f      	b.n	8000d92 <SysTick_Config+0x36>
  }

  SysTick->LOAD  = (uint32_t)(ticks - 1UL);                         /* set reload register */
 8000d72:	4a0a      	ldr	r2, [pc, #40]	; (8000d9c <SysTick_Config+0x40>)
 8000d74:	687b      	ldr	r3, [r7, #4]
 8000d76:	3b01      	subs	r3, #1
 8000d78:	6053      	str	r3, [r2, #4]
  NVIC_SetPriority (SysTick_IRQn, (1UL << __NVIC_PRIO_BITS) - 1UL); /* set Priority for Systick Interrupt */
 8000d7a:	210f      	movs	r1, #15
 8000d7c:	f04f 30ff 	mov.w	r0, #4294967295
 8000d80:	f7ff ff8e 	bl	8000ca0 <__NVIC_SetPriority>
  SysTick->VAL   = 0UL;                                             /* Load the SysTick Counter Value */
 8000d84:	4b05      	ldr	r3, [pc, #20]	; (8000d9c <SysTick_Config+0x40>)
 8000d86:	2200      	movs	r2, #0
 8000d88:	609a      	str	r2, [r3, #8]
  SysTick->CTRL  = SysTick_CTRL_CLKSOURCE_Msk |
 8000d8a:	4b04      	ldr	r3, [pc, #16]	; (8000d9c <SysTick_Config+0x40>)
 8000d8c:	2207      	movs	r2, #7
 8000d8e:	601a      	str	r2, [r3, #0]
                   SysTick_CTRL_TICKINT_Msk   |
                   SysTick_CTRL_ENABLE_Msk;                         /* Enable SysTick IRQ and SysTick Timer */
  return (0UL);                                                     /* Function successful */
 8000d90:	2300      	movs	r3, #0
}
 8000d92:	4618      	mov	r0, r3
 8000d94:	3708      	adds	r7, #8
 8000d96:	46bd      	mov	sp, r7
 8000d98:	bd80      	pop	{r7, pc}
 8000d9a:	bf00      	nop
 8000d9c:	e000e010 	.word	0xe000e010

08000da0 <HAL_NVIC_SetPriorityGrouping>:
  * @note   When the NVIC_PriorityGroup_0 is selected, IRQ preemption is no more possible. 
  *         The pending IRQ priority will be managed only by the subpriority. 
  * @retval None
  */
void HAL_NVIC_SetPriorityGrouping(uint32_t PriorityGroup)
{
 8000da0:	b580      	push	{r7, lr}
 8000da2:	b082      	sub	sp, #8
 8000da4:	af00      	add	r7, sp, #0
 8000da6:	6078      	str	r0, [r7, #4]
  /* Check the parameters */
  assert_param(IS_NVIC_PRIORITY_GROUP(PriorityGroup));
  
  /* Set the PRIGROUP[10:8] bits according to the PriorityGroup parameter value */
  NVIC_SetPriorityGrouping(PriorityGroup);
 8000da8:	6878      	ldr	r0, [r7, #4]
 8000daa:	f7ff ff29 	bl	8000c00 <__NVIC_SetPriorityGrouping>
}
 8000dae:	bf00      	nop
 8000db0:	3708      	adds	r7, #8
 8000db2:	46bd      	mov	sp, r7
 8000db4:	bd80      	pop	{r7, pc}

08000db6 <HAL_NVIC_SetPriority>:
  *         This parameter can be a value between 0 and 15
  *         A lower priority value indicates a higher priority.          
  * @retval None
  */
void HAL_NVIC_SetPriority(IRQn_Type IRQn, uint32_t PreemptPriority, uint32_t SubPriority)
{ 
 8000db6:	b580      	push	{r7, lr}
 8000db8:	b086      	sub	sp, #24
 8000dba:	af00      	add	r7, sp, #0
 8000dbc:	4603      	mov	r3, r0
 8000dbe:	60b9      	str	r1, [r7, #8]
 8000dc0:	607a      	str	r2, [r7, #4]
 8000dc2:	73fb      	strb	r3, [r7, #15]
  uint32_t prioritygroup = 0x00U;
 8000dc4:	2300      	movs	r3, #0
 8000dc6:	617b      	str	r3, [r7, #20]
  
  /* Check the parameters */
  assert_param(IS_NVIC_SUB_PRIORITY(SubPriority));
  assert_param(IS_NVIC_PREEMPTION_PRIORITY(PreemptPriority));
  
  prioritygroup = NVIC_GetPriorityGrouping();
 8000dc8:	f7ff ff3e 	bl	8000c48 <__NVIC_GetPriorityGrouping>
 8000dcc:	6178      	str	r0, [r7, #20]
  
  NVIC_SetPriority(IRQn, NVIC_EncodePriority(prioritygroup, PreemptPriority, SubPriority));
 8000dce:	687a      	ldr	r2, [r7, #4]
 8000dd0:	68b9      	ldr	r1, [r7, #8]
 8000dd2:	6978      	ldr	r0, [r7, #20]
 8000dd4:	f7ff ff8e 	bl	8000cf4 <NVIC_EncodePriority>
 8000dd8:	4602      	mov	r2, r0
 8000dda:	f997 300f 	ldrsb.w	r3, [r7, #15]
 8000dde:	4611      	mov	r1, r2
 8000de0:	4618      	mov	r0, r3
 8000de2:	f7ff ff5d 	bl	8000ca0 <__NVIC_SetPriority>
}
 8000de6:	bf00      	nop
 8000de8:	3718      	adds	r7, #24
 8000dea:	46bd      	mov	sp, r7
 8000dec:	bd80      	pop	{r7, pc}

08000dee <HAL_NVIC_EnableIRQ>:
  *         This parameter can be an enumerator of IRQn_Type enumeration
  *         (For the complete STM32 Devices IRQ Channels list, please refer to the appropriate CMSIS device file (stm32f4xxxx.h))
  * @retval None
  */
void HAL_NVIC_EnableIRQ(IRQn_Type IRQn)
{
 8000dee:	b580      	push	{r7, lr}
 8000df0:	b082      	sub	sp, #8
 8000df2:	af00      	add	r7, sp, #0
 8000df4:	4603      	mov	r3, r0
 8000df6:	71fb      	strb	r3, [r7, #7]
  /* Check the parameters */
  assert_param(IS_NVIC_DEVICE_IRQ(IRQn));
  
  /* Enable interrupt */
  NVIC_EnableIRQ(IRQn);
 8000df8:	f997 3007 	ldrsb.w	r3, [r7, #7]
 8000dfc:	4618      	mov	r0, r3
 8000dfe:	f7ff ff31 	bl	8000c64 <__NVIC_EnableIRQ>
}
 8000e02:	bf00      	nop
 8000e04:	3708      	adds	r7, #8
 8000e06:	46bd      	mov	sp, r7
 8000e08:	bd80      	pop	{r7, pc}

08000e0a <HAL_SYSTICK_Config>:
  * @param  TicksNumb Specifies the ticks Number of ticks between two interrupts.
  * @retval status:  - 0  Function succeeded.
  *                  - 1  Function failed.
  */
uint32_t HAL_SYSTICK_Config(uint32_t TicksNumb)
{
 8000e0a:	b580      	push	{r7, lr}
 8000e0c:	b082      	sub	sp, #8
 8000e0e:	af00      	add	r7, sp, #0
 8000e10:	6078      	str	r0, [r7, #4]
   return SysTick_Config(TicksNumb);
 8000e12:	6878      	ldr	r0, [r7, #4]
 8000e14:	f7ff ffa2 	bl	8000d5c <SysTick_Config>
 8000e18:	4603      	mov	r3, r0
}
 8000e1a:	4618      	mov	r0, r3
 8000e1c:	3708      	adds	r7, #8
 8000e1e:	46bd      	mov	sp, r7
 8000e20:	bd80      	pop	{r7, pc}
	...

08000e24 <HAL_GPIO_Init>:
  * @param  GPIO_Init pointer to a GPIO_InitTypeDef structure that contains
  *         the configuration information for the specified GPIO peripheral.
  * @retval None
  */
void HAL_GPIO_Init(GPIO_TypeDef  *GPIOx, GPIO_InitTypeDef *GPIO_Init)
{
 8000e24:	b480      	push	{r7}
 8000e26:	b089      	sub	sp, #36	; 0x24
 8000e28:	af00      	add	r7, sp, #0
 8000e2a:	6078      	str	r0, [r7, #4]
 8000e2c:	6039      	str	r1, [r7, #0]
  uint32_t position;
  uint32_t ioposition = 0x00U;
 8000e2e:	2300      	movs	r3, #0
 8000e30:	617b      	str	r3, [r7, #20]
  uint32_t iocurrent = 0x00U;
 8000e32:	2300      	movs	r3, #0
 8000e34:	613b      	str	r3, [r7, #16]
  uint32_t temp = 0x00U;
 8000e36:	2300      	movs	r3, #0
 8000e38:	61bb      	str	r3, [r7, #24]
  assert_param(IS_GPIO_PIN(GPIO_Init->Pin));
  assert_param(IS_GPIO_MODE(GPIO_Init->Mode));
  assert_param(IS_GPIO_PULL(GPIO_Init->Pull));

  /* Configure the port pins */
  for(position = 0U; position < GPIO_NUMBER; position++)
 8000e3a:	2300      	movs	r3, #0
 8000e3c:	61fb      	str	r3, [r7, #28]
 8000e3e:	e177      	b.n	8001130 <HAL_GPIO_Init+0x30c>
  {
    /* Get the IO position */
    ioposition = 0x01U << position;
 8000e40:	2201      	movs	r2, #1
 8000e42:	69fb      	ldr	r3, [r7, #28]
 8000e44:	fa02 f303 	lsl.w	r3, r2, r3
 8000e48:	617b      	str	r3, [r7, #20]
    /* Get the current IO position */
    iocurrent = (uint32_t)(GPIO_Init->Pin) & ioposition;
 8000e4a:	683b      	ldr	r3, [r7, #0]
 8000e4c:	681b      	ldr	r3, [r3, #0]
 8000e4e:	697a      	ldr	r2, [r7, #20]
 8000e50:	4013      	ands	r3, r2
 8000e52:	613b      	str	r3, [r7, #16]

    if(iocurrent == ioposition)
 8000e54:	693a      	ldr	r2, [r7, #16]
 8000e56:	697b      	ldr	r3, [r7, #20]
 8000e58:	429a      	cmp	r2, r3
 8000e5a:	f040 8166 	bne.w	800112a <HAL_GPIO_Init+0x306>
    {
      /*--------------------- GPIO Mode Configuration ------------------------*/
      /* In case of Output or Alternate function mode selection */
      if((GPIO_Init->Mode == GPIO_MODE_OUTPUT_PP) || (GPIO_Init->Mode == GPIO_MODE_AF_PP) ||
 8000e5e:	683b      	ldr	r3, [r7, #0]
 8000e60:	685b      	ldr	r3, [r3, #4]
 8000e62:	2b01      	cmp	r3, #1
 8000e64:	d00b      	beq.n	8000e7e <HAL_GPIO_Init+0x5a>
 8000e66:	683b      	ldr	r3, [r7, #0]
 8000e68:	685b      	ldr	r3, [r3, #4]
 8000e6a:	2b02      	cmp	r3, #2
 8000e6c:	d007      	beq.n	8000e7e <HAL_GPIO_Init+0x5a>
         (GPIO_Init->Mode == GPIO_MODE_OUTPUT_OD) || (GPIO_Init->Mode == GPIO_MODE_AF_OD))
 8000e6e:	683b      	ldr	r3, [r7, #0]
 8000e70:	685b      	ldr	r3, [r3, #4]
      if((GPIO_Init->Mode == GPIO_MODE_OUTPUT_PP) || (GPIO_Init->Mode == GPIO_MODE_AF_PP) ||
 8000e72:	2b11      	cmp	r3, #17
 8000e74:	d003      	beq.n	8000e7e <HAL_GPIO_Init+0x5a>
         (GPIO_Init->Mode == GPIO_MODE_OUTPUT_OD) || (GPIO_Init->Mode == GPIO_MODE_AF_OD))
 8000e76:	683b      	ldr	r3, [r7, #0]
 8000e78:	685b      	ldr	r3, [r3, #4]
 8000e7a:	2b12      	cmp	r3, #18
 8000e7c:	d130      	bne.n	8000ee0 <HAL_GPIO_Init+0xbc>
      {
        /* Check the Speed parameter */
        assert_param(IS_GPIO_SPEED(GPIO_Init->Speed));
        /* Configure the IO Speed */
        temp = GPIOx->OSPEEDR; 
 8000e7e:	687b      	ldr	r3, [r7, #4]
 8000e80:	689b      	ldr	r3, [r3, #8]
 8000e82:	61bb      	str	r3, [r7, #24]
        temp &= ~(GPIO_OSPEEDER_OSPEEDR0 << (position * 2U));
 8000e84:	69fb      	ldr	r3, [r7, #28]
 8000e86:	005b      	lsls	r3, r3, #1
 8000e88:	2203      	movs	r2, #3
 8000e8a:	fa02 f303 	lsl.w	r3, r2, r3
 8000e8e:	43db      	mvns	r3, r3
 8000e90:	69ba      	ldr	r2, [r7, #24]
 8000e92:	4013      	ands	r3, r2
 8000e94:	61bb      	str	r3, [r7, #24]
        temp |= (GPIO_Init->Speed << (position * 2U));
 8000e96:	683b      	ldr	r3, [r7, #0]
 8000e98:	68da      	ldr	r2, [r3, #12]
 8000e9a:	69fb      	ldr	r3, [r7, #28]
 8000e9c:	005b      	lsls	r3, r3, #1
 8000e9e:	fa02 f303 	lsl.w	r3, r2, r3
 8000ea2:	69ba      	ldr	r2, [r7, #24]
 8000ea4:	4313      	orrs	r3, r2
 8000ea6:	61bb      	str	r3, [r7, #24]
        GPIOx->OSPEEDR = temp;
 8000ea8:	687b      	ldr	r3, [r7, #4]
 8000eaa:	69ba      	ldr	r2, [r7, #24]
 8000eac:	609a      	str	r2, [r3, #8]

        /* Configure the IO Output Type */
        temp = GPIOx->OTYPER;
 8000eae:	687b      	ldr	r3, [r7, #4]
 8000eb0:	685b      	ldr	r3, [r3, #4]
 8000eb2:	61bb      	str	r3, [r7, #24]
        temp &= ~(GPIO_OTYPER_OT_0 << position) ;
 8000eb4:	2201      	movs	r2, #1
 8000eb6:	69fb      	ldr	r3, [r7, #28]
 8000eb8:	fa02 f303 	lsl.w	r3, r2, r3
 8000ebc:	43db      	mvns	r3, r3
 8000ebe:	69ba      	ldr	r2, [r7, #24]
 8000ec0:	4013      	ands	r3, r2
 8000ec2:	61bb      	str	r3, [r7, #24]
        temp |= (((GPIO_Init->Mode & GPIO_OUTPUT_TYPE) >> 4U) << position);
 8000ec4:	683b      	ldr	r3, [r7, #0]
 8000ec6:	685b      	ldr	r3, [r3, #4]
 8000ec8:	091b      	lsrs	r3, r3, #4
 8000eca:	f003 0201 	and.w	r2, r3, #1
 8000ece:	69fb      	ldr	r3, [r7, #28]
 8000ed0:	fa02 f303 	lsl.w	r3, r2, r3
 8000ed4:	69ba      	ldr	r2, [r7, #24]
 8000ed6:	4313      	orrs	r3, r2
 8000ed8:	61bb      	str	r3, [r7, #24]
        GPIOx->OTYPER = temp;
 8000eda:	687b      	ldr	r3, [r7, #4]
 8000edc:	69ba      	ldr	r2, [r7, #24]
 8000ede:	605a      	str	r2, [r3, #4]
       }

      /* Activate the Pull-up or Pull down resistor for the current IO */
      temp = GPIOx->PUPDR;
 8000ee0:	687b      	ldr	r3, [r7, #4]
 8000ee2:	68db      	ldr	r3, [r3, #12]
 8000ee4:	61bb      	str	r3, [r7, #24]
      temp &= ~(GPIO_PUPDR_PUPDR0 << (position * 2U));
 8000ee6:	69fb      	ldr	r3, [r7, #28]
 8000ee8:	005b      	lsls	r3, r3, #1
 8000eea:	2203      	movs	r2, #3
 8000eec:	fa02 f303 	lsl.w	r3, r2, r3
 8000ef0:	43db      	mvns	r3, r3
 8000ef2:	69ba      	ldr	r2, [r7, #24]
 8000ef4:	4013      	ands	r3, r2
 8000ef6:	61bb      	str	r3, [r7, #24]
      temp |= ((GPIO_Init->Pull) << (position * 2U));
 8000ef8:	683b      	ldr	r3, [r7, #0]
 8000efa:	689a      	ldr	r2, [r3, #8]
 8000efc:	69fb      	ldr	r3, [r7, #28]
 8000efe:	005b      	lsls	r3, r3, #1
 8000f00:	fa02 f303 	lsl.w	r3, r2, r3
 8000f04:	69ba      	ldr	r2, [r7, #24]
 8000f06:	4313      	orrs	r3, r2
 8000f08:	61bb      	str	r3, [r7, #24]
      GPIOx->PUPDR = temp;
 8000f0a:	687b      	ldr	r3, [r7, #4]
 8000f0c:	69ba      	ldr	r2, [r7, #24]
 8000f0e:	60da      	str	r2, [r3, #12]

      /* In case of Alternate function mode selection */
      if((GPIO_Init->Mode == GPIO_MODE_AF_PP) || (GPIO_Init->Mode == GPIO_MODE_AF_OD))
 8000f10:	683b      	ldr	r3, [r7, #0]
 8000f12:	685b      	ldr	r3, [r3, #4]
 8000f14:	2b02      	cmp	r3, #2
 8000f16:	d003      	beq.n	8000f20 <HAL_GPIO_Init+0xfc>
 8000f18:	683b      	ldr	r3, [r7, #0]
 8000f1a:	685b      	ldr	r3, [r3, #4]
 8000f1c:	2b12      	cmp	r3, #18
 8000f1e:	d123      	bne.n	8000f68 <HAL_GPIO_Init+0x144>
      {
        /* Check the Alternate function parameter */
        assert_param(IS_GPIO_AF(GPIO_Init->Alternate));
        /* Configure Alternate function mapped with the current IO */
        temp = GPIOx->AFR[position >> 3U];
 8000f20:	69fb      	ldr	r3, [r7, #28]
 8000f22:	08da      	lsrs	r2, r3, #3
 8000f24:	687b      	ldr	r3, [r7, #4]
 8000f26:	3208      	adds	r2, #8
 8000f28:	f853 3022 	ldr.w	r3, [r3, r2, lsl #2]
 8000f2c:	61bb      	str	r3, [r7, #24]
        temp &= ~(0xFU << ((uint32_t)(position & 0x07U) * 4U)) ;
 8000f2e:	69fb      	ldr	r3, [r7, #28]
 8000f30:	f003 0307 	and.w	r3, r3, #7
 8000f34:	009b      	lsls	r3, r3, #2
 8000f36:	220f      	movs	r2, #15
 8000f38:	fa02 f303 	lsl.w	r3, r2, r3
 8000f3c:	43db      	mvns	r3, r3
 8000f3e:	69ba      	ldr	r2, [r7, #24]
 8000f40:	4013      	ands	r3, r2
 8000f42:	61bb      	str	r3, [r7, #24]
        temp |= ((uint32_t)(GPIO_Init->Alternate) << (((uint32_t)position & 0x07U) * 4U));
 8000f44:	683b      	ldr	r3, [r7, #0]
 8000f46:	691a      	ldr	r2, [r3, #16]
 8000f48:	69fb      	ldr	r3, [r7, #28]
 8000f4a:	f003 0307 	and.w	r3, r3, #7
 8000f4e:	009b      	lsls	r3, r3, #2
 8000f50:	fa02 f303 	lsl.w	r3, r2, r3
 8000f54:	69ba      	ldr	r2, [r7, #24]
 8000f56:	4313      	orrs	r3, r2
 8000f58:	61bb      	str	r3, [r7, #24]
        GPIOx->AFR[position >> 3U] = temp;
 8000f5a:	69fb      	ldr	r3, [r7, #28]
 8000f5c:	08da      	lsrs	r2, r3, #3
 8000f5e:	687b      	ldr	r3, [r7, #4]
 8000f60:	3208      	adds	r2, #8
 8000f62:	69b9      	ldr	r1, [r7, #24]
 8000f64:	f843 1022 	str.w	r1, [r3, r2, lsl #2]
      }

      /* Configure IO Direction mode (Input, Output, Alternate or Analog) */
      temp = GPIOx->MODER;
 8000f68:	687b      	ldr	r3, [r7, #4]
 8000f6a:	681b      	ldr	r3, [r3, #0]
 8000f6c:	61bb      	str	r3, [r7, #24]
      temp &= ~(GPIO_MODER_MODER0 << (position * 2U));
 8000f6e:	69fb      	ldr	r3, [r7, #28]
 8000f70:	005b      	lsls	r3, r3, #1
 8000f72:	2203      	movs	r2, #3
 8000f74:	fa02 f303 	lsl.w	r3, r2, r3
 8000f78:	43db      	mvns	r3, r3
 8000f7a:	69ba      	ldr	r2, [r7, #24]
 8000f7c:	4013      	ands	r3, r2
 8000f7e:	61bb      	str	r3, [r7, #24]
      temp |= ((GPIO_Init->Mode & GPIO_MODE) << (position * 2U));
 8000f80:	683b      	ldr	r3, [r7, #0]
 8000f82:	685b      	ldr	r3, [r3, #4]
 8000f84:	f003 0203 	and.w	r2, r3, #3
 8000f88:	69fb      	ldr	r3, [r7, #28]
 8000f8a:	005b      	lsls	r3, r3, #1
 8000f8c:	fa02 f303 	lsl.w	r3, r2, r3
 8000f90:	69ba      	ldr	r2, [r7, #24]
 8000f92:	4313      	orrs	r3, r2
 8000f94:	61bb      	str	r3, [r7, #24]
      GPIOx->MODER = temp;
 8000f96:	687b      	ldr	r3, [r7, #4]
 8000f98:	69ba      	ldr	r2, [r7, #24]
 8000f9a:	601a      	str	r2, [r3, #0]

      /*--------------------- EXTI Mode Configuration ------------------------*/
      /* Configure the External Interrupt or event for the current IO */
      if((GPIO_Init->Mode & EXTI_MODE) == EXTI_MODE)
 8000f9c:	683b      	ldr	r3, [r7, #0]
 8000f9e:	685b      	ldr	r3, [r3, #4]
 8000fa0:	f003 5380 	and.w	r3, r3, #268435456	; 0x10000000
 8000fa4:	2b00      	cmp	r3, #0
 8000fa6:	f000 80c0 	beq.w	800112a <HAL_GPIO_Init+0x306>
      {
        /* Enable SYSCFG Clock */
        __HAL_RCC_SYSCFG_CLK_ENABLE();
 8000faa:	2300      	movs	r3, #0
 8000fac:	60fb      	str	r3, [r7, #12]
 8000fae:	4b65      	ldr	r3, [pc, #404]	; (8001144 <HAL_GPIO_Init+0x320>)
 8000fb0:	6c5b      	ldr	r3, [r3, #68]	; 0x44
 8000fb2:	4a64      	ldr	r2, [pc, #400]	; (8001144 <HAL_GPIO_Init+0x320>)
 8000fb4:	f443 4380 	orr.w	r3, r3, #16384	; 0x4000
 8000fb8:	6453      	str	r3, [r2, #68]	; 0x44
 8000fba:	4b62      	ldr	r3, [pc, #392]	; (8001144 <HAL_GPIO_Init+0x320>)
 8000fbc:	6c5b      	ldr	r3, [r3, #68]	; 0x44
 8000fbe:	f403 4380 	and.w	r3, r3, #16384	; 0x4000
 8000fc2:	60fb      	str	r3, [r7, #12]
 8000fc4:	68fb      	ldr	r3, [r7, #12]

        temp = SYSCFG->EXTICR[position >> 2U];
 8000fc6:	4a60      	ldr	r2, [pc, #384]	; (8001148 <HAL_GPIO_Init+0x324>)
 8000fc8:	69fb      	ldr	r3, [r7, #28]
 8000fca:	089b      	lsrs	r3, r3, #2
 8000fcc:	3302      	adds	r3, #2
 8000fce:	f852 3023 	ldr.w	r3, [r2, r3, lsl #2]
 8000fd2:	61bb      	str	r3, [r7, #24]
        temp &= ~(0x0FU << (4U * (position & 0x03U)));
 8000fd4:	69fb      	ldr	r3, [r7, #28]
 8000fd6:	f003 0303 	and.w	r3, r3, #3
 8000fda:	009b      	lsls	r3, r3, #2
 8000fdc:	220f      	movs	r2, #15
 8000fde:	fa02 f303 	lsl.w	r3, r2, r3
 8000fe2:	43db      	mvns	r3, r3
 8000fe4:	69ba      	ldr	r2, [r7, #24]
 8000fe6:	4013      	ands	r3, r2
 8000fe8:	61bb      	str	r3, [r7, #24]
        temp |= ((uint32_t)(GPIO_GET_INDEX(GPIOx)) << (4U * (position & 0x03U)));
 8000fea:	687b      	ldr	r3, [r7, #4]
 8000fec:	4a57      	ldr	r2, [pc, #348]	; (800114c <HAL_GPIO_Init+0x328>)
 8000fee:	4293      	cmp	r3, r2
 8000ff0:	d037      	beq.n	8001062 <HAL_GPIO_Init+0x23e>
 8000ff2:	687b      	ldr	r3, [r7, #4]
 8000ff4:	4a56      	ldr	r2, [pc, #344]	; (8001150 <HAL_GPIO_Init+0x32c>)
 8000ff6:	4293      	cmp	r3, r2
 8000ff8:	d031      	beq.n	800105e <HAL_GPIO_Init+0x23a>
 8000ffa:	687b      	ldr	r3, [r7, #4]
 8000ffc:	4a55      	ldr	r2, [pc, #340]	; (8001154 <HAL_GPIO_Init+0x330>)
 8000ffe:	4293      	cmp	r3, r2
 8001000:	d02b      	beq.n	800105a <HAL_GPIO_Init+0x236>
 8001002:	687b      	ldr	r3, [r7, #4]
 8001004:	4a54      	ldr	r2, [pc, #336]	; (8001158 <HAL_GPIO_Init+0x334>)
 8001006:	4293      	cmp	r3, r2
 8001008:	d025      	beq.n	8001056 <HAL_GPIO_Init+0x232>
 800100a:	687b      	ldr	r3, [r7, #4]
 800100c:	4a53      	ldr	r2, [pc, #332]	; (800115c <HAL_GPIO_Init+0x338>)
 800100e:	4293      	cmp	r3, r2
 8001010:	d01f      	beq.n	8001052 <HAL_GPIO_Init+0x22e>
 8001012:	687b      	ldr	r3, [r7, #4]
 8001014:	4a52      	ldr	r2, [pc, #328]	; (8001160 <HAL_GPIO_Init+0x33c>)
 8001016:	4293      	cmp	r3, r2
 8001018:	d019      	beq.n	800104e <HAL_GPIO_Init+0x22a>
 800101a:	687b      	ldr	r3, [r7, #4]
 800101c:	4a51      	ldr	r2, [pc, #324]	; (8001164 <HAL_GPIO_Init+0x340>)
 800101e:	4293      	cmp	r3, r2
 8001020:	d013      	beq.n	800104a <HAL_GPIO_Init+0x226>
 8001022:	687b      	ldr	r3, [r7, #4]
 8001024:	4a50      	ldr	r2, [pc, #320]	; (8001168 <HAL_GPIO_Init+0x344>)
 8001026:	4293      	cmp	r3, r2
 8001028:	d00d      	beq.n	8001046 <HAL_GPIO_Init+0x222>
 800102a:	687b      	ldr	r3, [r7, #4]
 800102c:	4a4f      	ldr	r2, [pc, #316]	; (800116c <HAL_GPIO_Init+0x348>)
 800102e:	4293      	cmp	r3, r2
 8001030:	d007      	beq.n	8001042 <HAL_GPIO_Init+0x21e>
 8001032:	687b      	ldr	r3, [r7, #4]
 8001034:	4a4e      	ldr	r2, [pc, #312]	; (8001170 <HAL_GPIO_Init+0x34c>)
 8001036:	4293      	cmp	r3, r2
 8001038:	d101      	bne.n	800103e <HAL_GPIO_Init+0x21a>
 800103a:	2309      	movs	r3, #9
 800103c:	e012      	b.n	8001064 <HAL_GPIO_Init+0x240>
 800103e:	230a      	movs	r3, #10
 8001040:	e010      	b.n	8001064 <HAL_GPIO_Init+0x240>
 8001042:	2308      	movs	r3, #8
 8001044:	e00e      	b.n	8001064 <HAL_GPIO_Init+0x240>
 8001046:	2307      	movs	r3, #7
 8001048:	e00c      	b.n	8001064 <HAL_GPIO_Init+0x240>
 800104a:	2306      	movs	r3, #6
 800104c:	e00a      	b.n	8001064 <HAL_GPIO_Init+0x240>
 800104e:	2305      	movs	r3, #5
 8001050:	e008      	b.n	8001064 <HAL_GPIO_Init+0x240>
 8001052:	2304      	movs	r3, #4
 8001054:	e006      	b.n	8001064 <HAL_GPIO_Init+0x240>
 8001056:	2303      	movs	r3, #3
 8001058:	e004      	b.n	8001064 <HAL_GPIO_Init+0x240>
 800105a:	2302      	movs	r3, #2
 800105c:	e002      	b.n	8001064 <HAL_GPIO_Init+0x240>
 800105e:	2301      	movs	r3, #1
 8001060:	e000      	b.n	8001064 <HAL_GPIO_Init+0x240>
 8001062:	2300      	movs	r3, #0
 8001064:	69fa      	ldr	r2, [r7, #28]
 8001066:	f002 0203 	and.w	r2, r2, #3
 800106a:	0092      	lsls	r2, r2, #2
 800106c:	4093      	lsls	r3, r2
 800106e:	69ba      	ldr	r2, [r7, #24]
 8001070:	4313      	orrs	r3, r2
 8001072:	61bb      	str	r3, [r7, #24]
        SYSCFG->EXTICR[position >> 2U] = temp;
 8001074:	4934      	ldr	r1, [pc, #208]	; (8001148 <HAL_GPIO_Init+0x324>)
 8001076:	69fb      	ldr	r3, [r7, #28]
 8001078:	089b      	lsrs	r3, r3, #2
 800107a:	3302      	adds	r3, #2
 800107c:	69ba      	ldr	r2, [r7, #24]
 800107e:	f841 2023 	str.w	r2, [r1, r3, lsl #2]

        /* Clear EXTI line configuration */
        temp = EXTI->IMR;
 8001082:	4b3c      	ldr	r3, [pc, #240]	; (8001174 <HAL_GPIO_Init+0x350>)
 8001084:	681b      	ldr	r3, [r3, #0]
 8001086:	61bb      	str	r3, [r7, #24]
        temp &= ~((uint32_t)iocurrent);
 8001088:	693b      	ldr	r3, [r7, #16]
 800108a:	43db      	mvns	r3, r3
 800108c:	69ba      	ldr	r2, [r7, #24]
 800108e:	4013      	ands	r3, r2
 8001090:	61bb      	str	r3, [r7, #24]
        if((GPIO_Init->Mode & GPIO_MODE_IT) == GPIO_MODE_IT)
 8001092:	683b      	ldr	r3, [r7, #0]
 8001094:	685b      	ldr	r3, [r3, #4]
 8001096:	f403 3380 	and.w	r3, r3, #65536	; 0x10000
 800109a:	2b00      	cmp	r3, #0
 800109c:	d003      	beq.n	80010a6 <HAL_GPIO_Init+0x282>
        {
          temp |= iocurrent;
 800109e:	69ba      	ldr	r2, [r7, #24]
 80010a0:	693b      	ldr	r3, [r7, #16]
 80010a2:	4313      	orrs	r3, r2
 80010a4:	61bb      	str	r3, [r7, #24]
        }
        EXTI->IMR = temp;
 80010a6:	4a33      	ldr	r2, [pc, #204]	; (8001174 <HAL_GPIO_Init+0x350>)
 80010a8:	69bb      	ldr	r3, [r7, #24]
 80010aa:	6013      	str	r3, [r2, #0]

        temp = EXTI->EMR;
 80010ac:	4b31      	ldr	r3, [pc, #196]	; (8001174 <HAL_GPIO_Init+0x350>)
 80010ae:	685b      	ldr	r3, [r3, #4]
 80010b0:	61bb      	str	r3, [r7, #24]
        temp &= ~((uint32_t)iocurrent);
 80010b2:	693b      	ldr	r3, [r7, #16]
 80010b4:	43db      	mvns	r3, r3
 80010b6:	69ba      	ldr	r2, [r7, #24]
 80010b8:	4013      	ands	r3, r2
 80010ba:	61bb      	str	r3, [r7, #24]
        if((GPIO_Init->Mode & GPIO_MODE_EVT) == GPIO_MODE_EVT)
 80010bc:	683b      	ldr	r3, [r7, #0]
 80010be:	685b      	ldr	r3, [r3, #4]
 80010c0:	f403 3300 	and.w	r3, r3, #131072	; 0x20000
 80010c4:	2b00      	cmp	r3, #0
 80010c6:	d003      	beq.n	80010d0 <HAL_GPIO_Init+0x2ac>
        {
          temp |= iocurrent;
 80010c8:	69ba      	ldr	r2, [r7, #24]
 80010ca:	693b      	ldr	r3, [r7, #16]
 80010cc:	4313      	orrs	r3, r2
 80010ce:	61bb      	str	r3, [r7, #24]
        }
        EXTI->EMR = temp;
 80010d0:	4a28      	ldr	r2, [pc, #160]	; (8001174 <HAL_GPIO_Init+0x350>)
 80010d2:	69bb      	ldr	r3, [r7, #24]
 80010d4:	6053      	str	r3, [r2, #4]

        /* Clear Rising Falling edge configuration */
        temp = EXTI->RTSR;
 80010d6:	4b27      	ldr	r3, [pc, #156]	; (8001174 <HAL_GPIO_Init+0x350>)
 80010d8:	689b      	ldr	r3, [r3, #8]
 80010da:	61bb      	str	r3, [r7, #24]
        temp &= ~((uint32_t)iocurrent);
 80010dc:	693b      	ldr	r3, [r7, #16]
 80010de:	43db      	mvns	r3, r3
 80010e0:	69ba      	ldr	r2, [r7, #24]
 80010e2:	4013      	ands	r3, r2
 80010e4:	61bb      	str	r3, [r7, #24]
        if((GPIO_Init->Mode & RISING_EDGE) == RISING_EDGE)
 80010e6:	683b      	ldr	r3, [r7, #0]
 80010e8:	685b      	ldr	r3, [r3, #4]
 80010ea:	f403 1380 	and.w	r3, r3, #1048576	; 0x100000
 80010ee:	2b00      	cmp	r3, #0
 80010f0:	d003      	beq.n	80010fa <HAL_GPIO_Init+0x2d6>
        {
          temp |= iocurrent;
 80010f2:	69ba      	ldr	r2, [r7, #24]
 80010f4:	693b      	ldr	r3, [r7, #16]
 80010f6:	4313      	orrs	r3, r2
 80010f8:	61bb      	str	r3, [r7, #24]
        }
        EXTI->RTSR = temp;
 80010fa:	4a1e      	ldr	r2, [pc, #120]	; (8001174 <HAL_GPIO_Init+0x350>)
 80010fc:	69bb      	ldr	r3, [r7, #24]
 80010fe:	6093      	str	r3, [r2, #8]

        temp = EXTI->FTSR;
 8001100:	4b1c      	ldr	r3, [pc, #112]	; (8001174 <HAL_GPIO_Init+0x350>)
 8001102:	68db      	ldr	r3, [r3, #12]
 8001104:	61bb      	str	r3, [r7, #24]
        temp &= ~((uint32_t)iocurrent);
 8001106:	693b      	ldr	r3, [r7, #16]
 8001108:	43db      	mvns	r3, r3
 800110a:	69ba      	ldr	r2, [r7, #24]
 800110c:	4013      	ands	r3, r2
 800110e:	61bb      	str	r3, [r7, #24]
        if((GPIO_Init->Mode & FALLING_EDGE) == FALLING_EDGE)
 8001110:	683b      	ldr	r3, [r7, #0]
 8001112:	685b      	ldr	r3, [r3, #4]
 8001114:	f403 1300 	and.w	r3, r3, #2097152	; 0x200000
 8001118:	2b00      	cmp	r3, #0
 800111a:	d003      	beq.n	8001124 <HAL_GPIO_Init+0x300>
        {
          temp |= iocurrent;
 800111c:	69ba      	ldr	r2, [r7, #24]
 800111e:	693b      	ldr	r3, [r7, #16]
 8001120:	4313      	orrs	r3, r2
 8001122:	61bb      	str	r3, [r7, #24]
        }
        EXTI->FTSR = temp;
 8001124:	4a13      	ldr	r2, [pc, #76]	; (8001174 <HAL_GPIO_Init+0x350>)
 8001126:	69bb      	ldr	r3, [r7, #24]
 8001128:	60d3      	str	r3, [r2, #12]
  for(position = 0U; position < GPIO_NUMBER; position++)
 800112a:	69fb      	ldr	r3, [r7, #28]
 800112c:	3301      	adds	r3, #1
 800112e:	61fb      	str	r3, [r7, #28]
 8001130:	69fb      	ldr	r3, [r7, #28]
 8001132:	2b0f      	cmp	r3, #15
 8001134:	f67f ae84 	bls.w	8000e40 <HAL_GPIO_Init+0x1c>
      }
    }
  }
}
 8001138:	bf00      	nop
 800113a:	3724      	adds	r7, #36	; 0x24
 800113c:	46bd      	mov	sp, r7
 800113e:	f85d 7b04 	ldr.w	r7, [sp], #4
 8001142:	4770      	bx	lr
 8001144:	40023800 	.word	0x40023800
 8001148:	40013800 	.word	0x40013800
 800114c:	40020000 	.word	0x40020000
 8001150:	40020400 	.word	0x40020400
 8001154:	40020800 	.word	0x40020800
 8001158:	40020c00 	.word	0x40020c00
 800115c:	40021000 	.word	0x40021000
 8001160:	40021400 	.word	0x40021400
 8001164:	40021800 	.word	0x40021800
 8001168:	40021c00 	.word	0x40021c00
 800116c:	40022000 	.word	0x40022000
 8001170:	40022400 	.word	0x40022400
 8001174:	40013c00 	.word	0x40013c00

08001178 <HAL_GPIO_WritePin>:
  *            @arg GPIO_PIN_RESET: to clear the port pin
  *            @arg GPIO_PIN_SET: to set the port pin
  * @retval None
  */
void HAL_GPIO_WritePin(GPIO_TypeDef* GPIOx, uint16_t GPIO_Pin, GPIO_PinState PinState)
{
 8001178:	b480      	push	{r7}
 800117a:	b083      	sub	sp, #12
 800117c:	af00      	add	r7, sp, #0
 800117e:	6078      	str	r0, [r7, #4]
 8001180:	460b      	mov	r3, r1
 8001182:	807b      	strh	r3, [r7, #2]
 8001184:	4613      	mov	r3, r2
 8001186:	707b      	strb	r3, [r7, #1]
  /* Check the parameters */
  assert_param(IS_GPIO_PIN(GPIO_Pin));
  assert_param(IS_GPIO_PIN_ACTION(PinState));

  if(PinState != GPIO_PIN_RESET)
 8001188:	787b      	ldrb	r3, [r7, #1]
 800118a:	2b00      	cmp	r3, #0
 800118c:	d003      	beq.n	8001196 <HAL_GPIO_WritePin+0x1e>
  {
    GPIOx->BSRR = GPIO_Pin;
 800118e:	887a      	ldrh	r2, [r7, #2]
 8001190:	687b      	ldr	r3, [r7, #4]
 8001192:	619a      	str	r2, [r3, #24]
  }
  else
  {
    GPIOx->BSRR = (uint32_t)GPIO_Pin << 16U;
  }
}
 8001194:	e003      	b.n	800119e <HAL_GPIO_WritePin+0x26>
    GPIOx->BSRR = (uint32_t)GPIO_Pin << 16U;
 8001196:	887b      	ldrh	r3, [r7, #2]
 8001198:	041a      	lsls	r2, r3, #16
 800119a:	687b      	ldr	r3, [r7, #4]
 800119c:	619a      	str	r2, [r3, #24]
}
 800119e:	bf00      	nop
 80011a0:	370c      	adds	r7, #12
 80011a2:	46bd      	mov	sp, r7
 80011a4:	f85d 7b04 	ldr.w	r7, [sp], #4
 80011a8:	4770      	bx	lr

080011aa <HAL_GPIO_TogglePin>:
  *                      x can be (A..I) to select the GPIO peripheral for STM32F40XX and STM32F427X devices.
  * @param  GPIO_Pin Specifies the pins to be toggled.
  * @retval None
  */
void HAL_GPIO_TogglePin(GPIO_TypeDef* GPIOx, uint16_t GPIO_Pin)
{
 80011aa:	b480      	push	{r7}
 80011ac:	b083      	sub	sp, #12
 80011ae:	af00      	add	r7, sp, #0
 80011b0:	6078      	str	r0, [r7, #4]
 80011b2:	460b      	mov	r3, r1
 80011b4:	807b      	strh	r3, [r7, #2]
  /* Check the parameters */
  assert_param(IS_GPIO_PIN(GPIO_Pin));

  if ((GPIOx->ODR & GPIO_Pin) == GPIO_Pin)
 80011b6:	687b      	ldr	r3, [r7, #4]
 80011b8:	695a      	ldr	r2, [r3, #20]
 80011ba:	887b      	ldrh	r3, [r7, #2]
 80011bc:	401a      	ands	r2, r3
 80011be:	887b      	ldrh	r3, [r7, #2]
 80011c0:	429a      	cmp	r2, r3
 80011c2:	d104      	bne.n	80011ce <HAL_GPIO_TogglePin+0x24>
  {
    GPIOx->BSRR = (uint32_t)GPIO_Pin << GPIO_NUMBER;
 80011c4:	887b      	ldrh	r3, [r7, #2]
 80011c6:	041a      	lsls	r2, r3, #16
 80011c8:	687b      	ldr	r3, [r7, #4]
 80011ca:	619a      	str	r2, [r3, #24]
  }
  else
  {
    GPIOx->BSRR = GPIO_Pin;
  }
}
 80011cc:	e002      	b.n	80011d4 <HAL_GPIO_TogglePin+0x2a>
    GPIOx->BSRR = GPIO_Pin;
 80011ce:	887a      	ldrh	r2, [r7, #2]
 80011d0:	687b      	ldr	r3, [r7, #4]
 80011d2:	619a      	str	r2, [r3, #24]
}
 80011d4:	bf00      	nop
 80011d6:	370c      	adds	r7, #12
 80011d8:	46bd      	mov	sp, r7
 80011da:	f85d 7b04 	ldr.w	r7, [sp], #4
 80011de:	4770      	bx	lr

080011e0 <HAL_PCD_Init>:
  *         parameters in the PCD_InitTypeDef and initialize the associated handle.
  * @param  hpcd PCD handle
  * @retval HAL status
  */
HAL_StatusTypeDef HAL_PCD_Init(PCD_HandleTypeDef *hpcd)
{
 80011e0:	b5f0      	push	{r4, r5, r6, r7, lr}
 80011e2:	b08f      	sub	sp, #60	; 0x3c
 80011e4:	af0a      	add	r7, sp, #40	; 0x28
 80011e6:	6078      	str	r0, [r7, #4]
  USB_OTG_GlobalTypeDef *USBx;
  uint8_t i;

  /* Check the PCD handle allocation */
  if (hpcd == NULL)
 80011e8:	687b      	ldr	r3, [r7, #4]
 80011ea:	2b00      	cmp	r3, #0
 80011ec:	d101      	bne.n	80011f2 <HAL_PCD_Init+0x12>
  {
    return HAL_ERROR;
 80011ee:	2301      	movs	r3, #1
 80011f0:	e10f      	b.n	8001412 <HAL_PCD_Init+0x232>
  }

  /* Check the parameters */
  assert_param(IS_PCD_ALL_INSTANCE(hpcd->Instance));

  USBx = hpcd->Instance;
 80011f2:	687b      	ldr	r3, [r7, #4]
 80011f4:	681b      	ldr	r3, [r3, #0]
 80011f6:	60bb      	str	r3, [r7, #8]

  if (hpcd->State == HAL_PCD_STATE_RESET)
 80011f8:	687b      	ldr	r3, [r7, #4]
 80011fa:	f893 33bd 	ldrb.w	r3, [r3, #957]	; 0x3bd
 80011fe:	b2db      	uxtb	r3, r3
 8001200:	2b00      	cmp	r3, #0
 8001202:	d106      	bne.n	8001212 <HAL_PCD_Init+0x32>
  {
    /* Allocate lock resource and initialize it */
    hpcd->Lock = HAL_UNLOCKED;
 8001204:	687b      	ldr	r3, [r7, #4]
 8001206:	2200      	movs	r2, #0
 8001208:	f883 23bc 	strb.w	r2, [r3, #956]	; 0x3bc

    /* Init the low level hardware */
    hpcd->MspInitCallback(hpcd);
#else
    /* Init the low level hardware : GPIO, CLOCK, NVIC... */
    HAL_PCD_MspInit(hpcd);
 800120c:	6878      	ldr	r0, [r7, #4]
 800120e:	f005 fb15 	bl	800683c <HAL_PCD_MspInit>
#endif /* (USE_HAL_PCD_REGISTER_CALLBACKS) */
  }

  hpcd->State = HAL_PCD_STATE_BUSY;
 8001212:	687b      	ldr	r3, [r7, #4]
 8001214:	2203      	movs	r2, #3
 8001216:	f883 23bd 	strb.w	r2, [r3, #957]	; 0x3bd

  /* Disable DMA mode for FS instance */
  if ((USBx->CID & (0x1U << 8)) == 0U)
 800121a:	68bb      	ldr	r3, [r7, #8]
 800121c:	6bdb      	ldr	r3, [r3, #60]	; 0x3c
 800121e:	f403 7380 	and.w	r3, r3, #256	; 0x100
 8001222:	2b00      	cmp	r3, #0
 8001224:	d102      	bne.n	800122c <HAL_PCD_Init+0x4c>
  {
    hpcd->Init.dma_enable = 0U;
 8001226:	687b      	ldr	r3, [r7, #4]
 8001228:	2200      	movs	r2, #0
 800122a:	611a      	str	r2, [r3, #16]
  }

  /* Disable the Interrupts */
  __HAL_PCD_DISABLE(hpcd);
 800122c:	687b      	ldr	r3, [r7, #4]
 800122e:	681b      	ldr	r3, [r3, #0]
 8001230:	4618      	mov	r0, r3
 8001232:	f002 fa9a 	bl	800376a <USB_DisableGlobalInt>

  /*Init the Core (common init.) */
  if (USB_CoreInit(hpcd->Instance, hpcd->Init) != HAL_OK)
 8001236:	687b      	ldr	r3, [r7, #4]
 8001238:	681b      	ldr	r3, [r3, #0]
 800123a:	603b      	str	r3, [r7, #0]
 800123c:	687e      	ldr	r6, [r7, #4]
 800123e:	466d      	mov	r5, sp
 8001240:	f106 0410 	add.w	r4, r6, #16
 8001244:	cc0f      	ldmia	r4!, {r0, r1, r2, r3}
 8001246:	c50f      	stmia	r5!, {r0, r1, r2, r3}
 8001248:	cc0f      	ldmia	r4!, {r0, r1, r2, r3}
 800124a:	c50f      	stmia	r5!, {r0, r1, r2, r3}
 800124c:	e894 0003 	ldmia.w	r4, {r0, r1}
 8001250:	e885 0003 	stmia.w	r5, {r0, r1}
 8001254:	1d33      	adds	r3, r6, #4
 8001256:	cb0e      	ldmia	r3, {r1, r2, r3}
 8001258:	6838      	ldr	r0, [r7, #0]
 800125a:	f002 f971 	bl	8003540 <USB_CoreInit>
 800125e:	4603      	mov	r3, r0
 8001260:	2b00      	cmp	r3, #0
 8001262:	d005      	beq.n	8001270 <HAL_PCD_Init+0x90>
  {
    hpcd->State = HAL_PCD_STATE_ERROR;
 8001264:	687b      	ldr	r3, [r7, #4]
 8001266:	2202      	movs	r2, #2
 8001268:	f883 23bd 	strb.w	r2, [r3, #957]	; 0x3bd
    return HAL_ERROR;
 800126c:	2301      	movs	r3, #1
 800126e:	e0d0      	b.n	8001412 <HAL_PCD_Init+0x232>
  }

  /* Force Device Mode*/
  (void)USB_SetCurrentMode(hpcd->Instance, USB_DEVICE_MODE);
 8001270:	687b      	ldr	r3, [r7, #4]
 8001272:	681b      	ldr	r3, [r3, #0]
 8001274:	2100      	movs	r1, #0
 8001276:	4618      	mov	r0, r3
 8001278:	f002 fa88 	bl	800378c <USB_SetCurrentMode>

  /* Init endpoints structures */
  for (i = 0U; i < hpcd->Init.dev_endpoints; i++)
 800127c:	2300      	movs	r3, #0
 800127e:	73fb      	strb	r3, [r7, #15]
 8001280:	e04a      	b.n	8001318 <HAL_PCD_Init+0x138>
  {
    /* Init ep structure */
    hpcd->IN_ep[i].is_in = 1U;
 8001282:	7bfa      	ldrb	r2, [r7, #15]
 8001284:	6879      	ldr	r1, [r7, #4]
 8001286:	4613      	mov	r3, r2
 8001288:	00db      	lsls	r3, r3, #3
 800128a:	1a9b      	subs	r3, r3, r2
 800128c:	009b      	lsls	r3, r3, #2
 800128e:	440b      	add	r3, r1
 8001290:	333d      	adds	r3, #61	; 0x3d
 8001292:	2201      	movs	r2, #1
 8001294:	701a      	strb	r2, [r3, #0]
    hpcd->IN_ep[i].num = i;
 8001296:	7bfa      	ldrb	r2, [r7, #15]
 8001298:	6879      	ldr	r1, [r7, #4]
 800129a:	4613      	mov	r3, r2
 800129c:	00db      	lsls	r3, r3, #3
 800129e:	1a9b      	subs	r3, r3, r2
 80012a0:	009b      	lsls	r3, r3, #2
 80012a2:	440b      	add	r3, r1
 80012a4:	333c      	adds	r3, #60	; 0x3c
 80012a6:	7bfa      	ldrb	r2, [r7, #15]
 80012a8:	701a      	strb	r2, [r3, #0]
    hpcd->IN_ep[i].tx_fifo_num = i;
 80012aa:	7bfa      	ldrb	r2, [r7, #15]
 80012ac:	7bfb      	ldrb	r3, [r7, #15]
 80012ae:	b298      	uxth	r0, r3
 80012b0:	6879      	ldr	r1, [r7, #4]
 80012b2:	4613      	mov	r3, r2
 80012b4:	00db      	lsls	r3, r3, #3
 80012b6:	1a9b      	subs	r3, r3, r2
 80012b8:	009b      	lsls	r3, r3, #2
 80012ba:	440b      	add	r3, r1
 80012bc:	3342      	adds	r3, #66	; 0x42
 80012be:	4602      	mov	r2, r0
 80012c0:	801a      	strh	r2, [r3, #0]
    /* Control until ep is activated */
    hpcd->IN_ep[i].type = EP_TYPE_CTRL;
 80012c2:	7bfa      	ldrb	r2, [r7, #15]
 80012c4:	6879      	ldr	r1, [r7, #4]
 80012c6:	4613      	mov	r3, r2
 80012c8:	00db      	lsls	r3, r3, #3
 80012ca:	1a9b      	subs	r3, r3, r2
 80012cc:	009b      	lsls	r3, r3, #2
 80012ce:	440b      	add	r3, r1
 80012d0:	333f      	adds	r3, #63	; 0x3f
 80012d2:	2200      	movs	r2, #0
 80012d4:	701a      	strb	r2, [r3, #0]
    hpcd->IN_ep[i].maxpacket = 0U;
 80012d6:	7bfa      	ldrb	r2, [r7, #15]
 80012d8:	6879      	ldr	r1, [r7, #4]
 80012da:	4613      	mov	r3, r2
 80012dc:	00db      	lsls	r3, r3, #3
 80012de:	1a9b      	subs	r3, r3, r2
 80012e0:	009b      	lsls	r3, r3, #2
 80012e2:	440b      	add	r3, r1
 80012e4:	3344      	adds	r3, #68	; 0x44
 80012e6:	2200      	movs	r2, #0
 80012e8:	601a      	str	r2, [r3, #0]
    hpcd->IN_ep[i].xfer_buff = 0U;
 80012ea:	7bfa      	ldrb	r2, [r7, #15]
 80012ec:	6879      	ldr	r1, [r7, #4]
 80012ee:	4613      	mov	r3, r2
 80012f0:	00db      	lsls	r3, r3, #3
 80012f2:	1a9b      	subs	r3, r3, r2
 80012f4:	009b      	lsls	r3, r3, #2
 80012f6:	440b      	add	r3, r1
 80012f8:	3348      	adds	r3, #72	; 0x48
 80012fa:	2200      	movs	r2, #0
 80012fc:	601a      	str	r2, [r3, #0]
    hpcd->IN_ep[i].xfer_len = 0U;
 80012fe:	7bfa      	ldrb	r2, [r7, #15]
 8001300:	6879      	ldr	r1, [r7, #4]
 8001302:	4613      	mov	r3, r2
 8001304:	00db      	lsls	r3, r3, #3
 8001306:	1a9b      	subs	r3, r3, r2
 8001308:	009b      	lsls	r3, r3, #2
 800130a:	440b      	add	r3, r1
 800130c:	3350      	adds	r3, #80	; 0x50
 800130e:	2200      	movs	r2, #0
 8001310:	601a      	str	r2, [r3, #0]
  for (i = 0U; i < hpcd->Init.dev_endpoints; i++)
 8001312:	7bfb      	ldrb	r3, [r7, #15]
 8001314:	3301      	adds	r3, #1
 8001316:	73fb      	strb	r3, [r7, #15]
 8001318:	7bfa      	ldrb	r2, [r7, #15]
 800131a:	687b      	ldr	r3, [r7, #4]
 800131c:	685b      	ldr	r3, [r3, #4]
 800131e:	429a      	cmp	r2, r3
 8001320:	d3af      	bcc.n	8001282 <HAL_PCD_Init+0xa2>
  }

  for (i = 0U; i < hpcd->Init.dev_endpoints; i++)
 8001322:	2300      	movs	r3, #0
 8001324:	73fb      	strb	r3, [r7, #15]
 8001326:	e044      	b.n	80013b2 <HAL_PCD_Init+0x1d2>
  {
    hpcd->OUT_ep[i].is_in = 0U;
 8001328:	7bfa      	ldrb	r2, [r7, #15]
 800132a:	6879      	ldr	r1, [r7, #4]
 800132c:	4613      	mov	r3, r2
 800132e:	00db      	lsls	r3, r3, #3
 8001330:	1a9b      	subs	r3, r3, r2
 8001332:	009b      	lsls	r3, r3, #2
 8001334:	440b      	add	r3, r1
 8001336:	f203 13fd 	addw	r3, r3, #509	; 0x1fd
 800133a:	2200      	movs	r2, #0
 800133c:	701a      	strb	r2, [r3, #0]
    hpcd->OUT_ep[i].num = i;
 800133e:	7bfa      	ldrb	r2, [r7, #15]
 8001340:	6879      	ldr	r1, [r7, #4]
 8001342:	4613      	mov	r3, r2
 8001344:	00db      	lsls	r3, r3, #3
 8001346:	1a9b      	subs	r3, r3, r2
 8001348:	009b      	lsls	r3, r3, #2
 800134a:	440b      	add	r3, r1
 800134c:	f503 73fe 	add.w	r3, r3, #508	; 0x1fc
 8001350:	7bfa      	ldrb	r2, [r7, #15]
 8001352:	701a      	strb	r2, [r3, #0]
    /* Control until ep is activated */
    hpcd->OUT_ep[i].type = EP_TYPE_CTRL;
 8001354:	7bfa      	ldrb	r2, [r7, #15]
 8001356:	6879      	ldr	r1, [r7, #4]
 8001358:	4613      	mov	r3, r2
 800135a:	00db      	lsls	r3, r3, #3
 800135c:	1a9b      	subs	r3, r3, r2
 800135e:	009b      	lsls	r3, r3, #2
 8001360:	440b      	add	r3, r1
 8001362:	f203 13ff 	addw	r3, r3, #511	; 0x1ff
 8001366:	2200      	movs	r2, #0
 8001368:	701a      	strb	r2, [r3, #0]
    hpcd->OUT_ep[i].maxpacket = 0U;
 800136a:	7bfa      	ldrb	r2, [r7, #15]
 800136c:	6879      	ldr	r1, [r7, #4]
 800136e:	4613      	mov	r3, r2
 8001370:	00db      	lsls	r3, r3, #3
 8001372:	1a9b      	subs	r3, r3, r2
 8001374:	009b      	lsls	r3, r3, #2
 8001376:	440b      	add	r3, r1
 8001378:	f503 7301 	add.w	r3, r3, #516	; 0x204
 800137c:	2200      	movs	r2, #0
 800137e:	601a      	str	r2, [r3, #0]
    hpcd->OUT_ep[i].xfer_buff = 0U;
 8001380:	7bfa      	ldrb	r2, [r7, #15]
 8001382:	6879      	ldr	r1, [r7, #4]
 8001384:	4613      	mov	r3, r2
 8001386:	00db      	lsls	r3, r3, #3
 8001388:	1a9b      	subs	r3, r3, r2
 800138a:	009b      	lsls	r3, r3, #2
 800138c:	440b      	add	r3, r1
 800138e:	f503 7302 	add.w	r3, r3, #520	; 0x208
 8001392:	2200      	movs	r2, #0
 8001394:	601a      	str	r2, [r3, #0]
    hpcd->OUT_ep[i].xfer_len = 0U;
 8001396:	7bfa      	ldrb	r2, [r7, #15]
 8001398:	6879      	ldr	r1, [r7, #4]
 800139a:	4613      	mov	r3, r2
 800139c:	00db      	lsls	r3, r3, #3
 800139e:	1a9b      	subs	r3, r3, r2
 80013a0:	009b      	lsls	r3, r3, #2
 80013a2:	440b      	add	r3, r1
 80013a4:	f503 7304 	add.w	r3, r3, #528	; 0x210
 80013a8:	2200      	movs	r2, #0
 80013aa:	601a      	str	r2, [r3, #0]
  for (i = 0U; i < hpcd->Init.dev_endpoints; i++)
 80013ac:	7bfb      	ldrb	r3, [r7, #15]
 80013ae:	3301      	adds	r3, #1
 80013b0:	73fb      	strb	r3, [r7, #15]
 80013b2:	7bfa      	ldrb	r2, [r7, #15]
 80013b4:	687b      	ldr	r3, [r7, #4]
 80013b6:	685b      	ldr	r3, [r3, #4]
 80013b8:	429a      	cmp	r2, r3
 80013ba:	d3b5      	bcc.n	8001328 <HAL_PCD_Init+0x148>
  }

  /* Init Device */
  if (USB_DevInit(hpcd->Instance, hpcd->Init) != HAL_OK)
 80013bc:	687b      	ldr	r3, [r7, #4]
 80013be:	681b      	ldr	r3, [r3, #0]
 80013c0:	603b      	str	r3, [r7, #0]
 80013c2:	687e      	ldr	r6, [r7, #4]
 80013c4:	466d      	mov	r5, sp
 80013c6:	f106 0410 	add.w	r4, r6, #16
 80013ca:	cc0f      	ldmia	r4!, {r0, r1, r2, r3}
 80013cc:	c50f      	stmia	r5!, {r0, r1, r2, r3}
 80013ce:	cc0f      	ldmia	r4!, {r0, r1, r2, r3}
 80013d0:	c50f      	stmia	r5!, {r0, r1, r2, r3}
 80013d2:	e894 0003 	ldmia.w	r4, {r0, r1}
 80013d6:	e885 0003 	stmia.w	r5, {r0, r1}
 80013da:	1d33      	adds	r3, r6, #4
 80013dc:	cb0e      	ldmia	r3, {r1, r2, r3}
 80013de:	6838      	ldr	r0, [r7, #0]
 80013e0:	f002 f9fe 	bl	80037e0 <USB_DevInit>
 80013e4:	4603      	mov	r3, r0
 80013e6:	2b00      	cmp	r3, #0
 80013e8:	d005      	beq.n	80013f6 <HAL_PCD_Init+0x216>
  {
    hpcd->State = HAL_PCD_STATE_ERROR;
 80013ea:	687b      	ldr	r3, [r7, #4]
 80013ec:	2202      	movs	r2, #2
 80013ee:	f883 23bd 	strb.w	r2, [r3, #957]	; 0x3bd
    return HAL_ERROR;
 80013f2:	2301      	movs	r3, #1
 80013f4:	e00d      	b.n	8001412 <HAL_PCD_Init+0x232>
  }

  hpcd->USB_Address = 0U;
 80013f6:	687b      	ldr	r3, [r7, #4]
 80013f8:	2200      	movs	r2, #0
 80013fa:	f883 2038 	strb.w	r2, [r3, #56]	; 0x38
  hpcd->State = HAL_PCD_STATE_READY;
 80013fe:	687b      	ldr	r3, [r7, #4]
 8001400:	2201      	movs	r2, #1
 8001402:	f883 23bd 	strb.w	r2, [r3, #957]	; 0x3bd
  if (hpcd->Init.lpm_enable == 1U)
  {
    (void)HAL_PCDEx_ActivateLPM(hpcd);
  }
#endif /* defined(STM32F446xx) || defined(STM32F469xx) || defined(STM32F479xx) || defined(STM32F412Zx) || defined(STM32F412Vx) || defined(STM32F412Rx) || defined(STM32F412Cx) || defined(STM32F413xx) || defined(STM32F423xx) */
  (void)USB_DevDisconnect(hpcd->Instance);
 8001406:	687b      	ldr	r3, [r7, #4]
 8001408:	681b      	ldr	r3, [r3, #0]
 800140a:	4618      	mov	r0, r3
 800140c:	f003 fa46 	bl	800489c <USB_DevDisconnect>

  return HAL_OK;
 8001410:	2300      	movs	r3, #0
}
 8001412:	4618      	mov	r0, r3
 8001414:	3714      	adds	r7, #20
 8001416:	46bd      	mov	sp, r7
 8001418:	bdf0      	pop	{r4, r5, r6, r7, pc}

0800141a <HAL_PCD_Start>:
  * @brief  Start the USB device
  * @param  hpcd PCD handle
  * @retval HAL status
  */
HAL_StatusTypeDef HAL_PCD_Start(PCD_HandleTypeDef *hpcd)
{
 800141a:	b580      	push	{r7, lr}
 800141c:	b084      	sub	sp, #16
 800141e:	af00      	add	r7, sp, #0
 8001420:	6078      	str	r0, [r7, #4]
  USB_OTG_GlobalTypeDef *USBx = hpcd->Instance;
 8001422:	687b      	ldr	r3, [r7, #4]
 8001424:	681b      	ldr	r3, [r3, #0]
 8001426:	60fb      	str	r3, [r7, #12]

  __HAL_LOCK(hpcd);
 8001428:	687b      	ldr	r3, [r7, #4]
 800142a:	f893 33bc 	ldrb.w	r3, [r3, #956]	; 0x3bc
 800142e:	2b01      	cmp	r3, #1
 8001430:	d101      	bne.n	8001436 <HAL_PCD_Start+0x1c>
 8001432:	2302      	movs	r3, #2
 8001434:	e020      	b.n	8001478 <HAL_PCD_Start+0x5e>
 8001436:	687b      	ldr	r3, [r7, #4]
 8001438:	2201      	movs	r2, #1
 800143a:	f883 23bc 	strb.w	r2, [r3, #956]	; 0x3bc

  if ((hpcd->Init.battery_charging_enable == 1U) &&
 800143e:	687b      	ldr	r3, [r7, #4]
 8001440:	6a9b      	ldr	r3, [r3, #40]	; 0x28
 8001442:	2b01      	cmp	r3, #1
 8001444:	d109      	bne.n	800145a <HAL_PCD_Start+0x40>
      (hpcd->Init.phy_itface != USB_OTG_ULPI_PHY))
 8001446:	687b      	ldr	r3, [r7, #4]
 8001448:	699b      	ldr	r3, [r3, #24]
  if ((hpcd->Init.battery_charging_enable == 1U) &&
 800144a:	2b01      	cmp	r3, #1
 800144c:	d005      	beq.n	800145a <HAL_PCD_Start+0x40>
  {
    /* Enable USB Transceiver */
    USBx->GCCFG |= USB_OTG_GCCFG_PWRDWN;
 800144e:	68fb      	ldr	r3, [r7, #12]
 8001450:	6b9b      	ldr	r3, [r3, #56]	; 0x38
 8001452:	f443 3280 	orr.w	r2, r3, #65536	; 0x10000
 8001456:	68fb      	ldr	r3, [r7, #12]
 8001458:	639a      	str	r2, [r3, #56]	; 0x38
  }

  __HAL_PCD_ENABLE(hpcd);
 800145a:	687b      	ldr	r3, [r7, #4]
 800145c:	681b      	ldr	r3, [r3, #0]
 800145e:	4618      	mov	r0, r3
 8001460:	f002 f972 	bl	8003748 <USB_EnableGlobalInt>
  (void)USB_DevConnect(hpcd->Instance);
 8001464:	687b      	ldr	r3, [r7, #4]
 8001466:	681b      	ldr	r3, [r3, #0]
 8001468:	4618      	mov	r0, r3
 800146a:	f003 f9f6 	bl	800485a <USB_DevConnect>
  __HAL_UNLOCK(hpcd);
 800146e:	687b      	ldr	r3, [r7, #4]
 8001470:	2200      	movs	r2, #0
 8001472:	f883 23bc 	strb.w	r2, [r3, #956]	; 0x3bc

  return HAL_OK;
 8001476:	2300      	movs	r3, #0
}
 8001478:	4618      	mov	r0, r3
 800147a:	3710      	adds	r7, #16
 800147c:	46bd      	mov	sp, r7
 800147e:	bd80      	pop	{r7, pc}

08001480 <HAL_PCD_IRQHandler>:
  * @brief  Handles PCD interrupt request.
  * @param  hpcd PCD handle
  * @retval HAL status
  */
void HAL_PCD_IRQHandler(PCD_HandleTypeDef *hpcd)
{
 8001480:	b590      	push	{r4, r7, lr}
 8001482:	b08d      	sub	sp, #52	; 0x34
 8001484:	af00      	add	r7, sp, #0
 8001486:	6078      	str	r0, [r7, #4]
  USB_OTG_GlobalTypeDef *USBx = hpcd->Instance;
 8001488:	687b      	ldr	r3, [r7, #4]
 800148a:	681b      	ldr	r3, [r3, #0]
 800148c:	623b      	str	r3, [r7, #32]
  uint32_t USBx_BASE = (uint32_t)USBx;
 800148e:	6a3b      	ldr	r3, [r7, #32]
 8001490:	61fb      	str	r3, [r7, #28]
  uint32_t i, ep_intr, epint, epnum;
  uint32_t fifoemptymsk, temp;
  USB_OTG_EPTypeDef *ep;

  /* ensure that we are in device mode */
  if (USB_GetMode(hpcd->Instance) == USB_OTG_MODE_DEVICE)
 8001492:	687b      	ldr	r3, [r7, #4]
 8001494:	681b      	ldr	r3, [r3, #0]
 8001496:	4618      	mov	r0, r3
 8001498:	f003 fab4 	bl	8004a04 <USB_GetMode>
 800149c:	4603      	mov	r3, r0
 800149e:	2b00      	cmp	r3, #0
 80014a0:	f040 839d 	bne.w	8001bde <HAL_PCD_IRQHandler+0x75e>
  {
    /* avoid spurious interrupt */
    if (__HAL_PCD_IS_INVALID_INTERRUPT(hpcd))
 80014a4:	687b      	ldr	r3, [r7, #4]
 80014a6:	681b      	ldr	r3, [r3, #0]
 80014a8:	4618      	mov	r0, r3
 80014aa:	f003 fa18 	bl	80048de <USB_ReadInterrupts>
 80014ae:	4603      	mov	r3, r0
 80014b0:	2b00      	cmp	r3, #0
 80014b2:	f000 8393 	beq.w	8001bdc <HAL_PCD_IRQHandler+0x75c>
    {
      return;
    }

    if (__HAL_PCD_GET_FLAG(hpcd, USB_OTG_GINTSTS_MMIS))
 80014b6:	687b      	ldr	r3, [r7, #4]
 80014b8:	681b      	ldr	r3, [r3, #0]
 80014ba:	4618      	mov	r0, r3
 80014bc:	f003 fa0f 	bl	80048de <USB_ReadInterrupts>
 80014c0:	4603      	mov	r3, r0
 80014c2:	f003 0302 	and.w	r3, r3, #2
 80014c6:	2b02      	cmp	r3, #2
 80014c8:	d107      	bne.n	80014da <HAL_PCD_IRQHandler+0x5a>
    {
      /* incorrect mode, acknowledge the interrupt */
      __HAL_PCD_CLEAR_FLAG(hpcd, USB_OTG_GINTSTS_MMIS);
 80014ca:	687b      	ldr	r3, [r7, #4]
 80014cc:	681b      	ldr	r3, [r3, #0]
 80014ce:	695a      	ldr	r2, [r3, #20]
 80014d0:	687b      	ldr	r3, [r7, #4]
 80014d2:	681b      	ldr	r3, [r3, #0]
 80014d4:	f002 0202 	and.w	r2, r2, #2
 80014d8:	615a      	str	r2, [r3, #20]
    }

    /* Handle RxQLevel Interrupt */
    if (__HAL_PCD_GET_FLAG(hpcd, USB_OTG_GINTSTS_RXFLVL))
 80014da:	687b      	ldr	r3, [r7, #4]
 80014dc:	681b      	ldr	r3, [r3, #0]
 80014de:	4618      	mov	r0, r3
 80014e0:	f003 f9fd 	bl	80048de <USB_ReadInterrupts>
 80014e4:	4603      	mov	r3, r0
 80014e6:	f003 0310 	and.w	r3, r3, #16
 80014ea:	2b10      	cmp	r3, #16
 80014ec:	d161      	bne.n	80015b2 <HAL_PCD_IRQHandler+0x132>
    {
      USB_MASK_INTERRUPT(hpcd->Instance, USB_OTG_GINTSTS_RXFLVL);
 80014ee:	687b      	ldr	r3, [r7, #4]
 80014f0:	681b      	ldr	r3, [r3, #0]
 80014f2:	699a      	ldr	r2, [r3, #24]
 80014f4:	687b      	ldr	r3, [r7, #4]
 80014f6:	681b      	ldr	r3, [r3, #0]
 80014f8:	f022 0210 	bic.w	r2, r2, #16
 80014fc:	619a      	str	r2, [r3, #24]

      temp = USBx->GRXSTSP;
 80014fe:	6a3b      	ldr	r3, [r7, #32]
 8001500:	6a1b      	ldr	r3, [r3, #32]
 8001502:	61bb      	str	r3, [r7, #24]

      ep = &hpcd->OUT_ep[temp & USB_OTG_GRXSTSP_EPNUM];
 8001504:	69bb      	ldr	r3, [r7, #24]
 8001506:	f003 020f 	and.w	r2, r3, #15
 800150a:	4613      	mov	r3, r2
 800150c:	00db      	lsls	r3, r3, #3
 800150e:	1a9b      	subs	r3, r3, r2
 8001510:	009b      	lsls	r3, r3, #2
 8001512:	f503 73fc 	add.w	r3, r3, #504	; 0x1f8
 8001516:	687a      	ldr	r2, [r7, #4]
 8001518:	4413      	add	r3, r2
 800151a:	3304      	adds	r3, #4
 800151c:	617b      	str	r3, [r7, #20]

      if (((temp & USB_OTG_GRXSTSP_PKTSTS) >> 17) ==  STS_DATA_UPDT)
 800151e:	69bb      	ldr	r3, [r7, #24]
 8001520:	0c5b      	lsrs	r3, r3, #17
 8001522:	f003 030f 	and.w	r3, r3, #15
 8001526:	2b02      	cmp	r3, #2
 8001528:	d124      	bne.n	8001574 <HAL_PCD_IRQHandler+0xf4>
      {
        if ((temp & USB_OTG_GRXSTSP_BCNT) != 0U)
 800152a:	69ba      	ldr	r2, [r7, #24]
 800152c:	f647 73f0 	movw	r3, #32752	; 0x7ff0
 8001530:	4013      	ands	r3, r2
 8001532:	2b00      	cmp	r3, #0
 8001534:	d035      	beq.n	80015a2 <HAL_PCD_IRQHandler+0x122>
        {
          (void)USB_ReadPacket(USBx, ep->xfer_buff,
 8001536:	697b      	ldr	r3, [r7, #20]
 8001538:	68d9      	ldr	r1, [r3, #12]
                               (uint16_t)((temp & USB_OTG_GRXSTSP_BCNT) >> 4));
 800153a:	69bb      	ldr	r3, [r7, #24]
 800153c:	091b      	lsrs	r3, r3, #4
 800153e:	b29b      	uxth	r3, r3
          (void)USB_ReadPacket(USBx, ep->xfer_buff,
 8001540:	f3c3 030a 	ubfx	r3, r3, #0, #11
 8001544:	b29b      	uxth	r3, r3
 8001546:	461a      	mov	r2, r3
 8001548:	6a38      	ldr	r0, [r7, #32]
 800154a:	f003 f863 	bl	8004614 <USB_ReadPacket>

          ep->xfer_buff += (temp & USB_OTG_GRXSTSP_BCNT) >> 4;
 800154e:	697b      	ldr	r3, [r7, #20]
 8001550:	68da      	ldr	r2, [r3, #12]
 8001552:	69bb      	ldr	r3, [r7, #24]
 8001554:	091b      	lsrs	r3, r3, #4
 8001556:	f3c3 030a 	ubfx	r3, r3, #0, #11
 800155a:	441a      	add	r2, r3
 800155c:	697b      	ldr	r3, [r7, #20]
 800155e:	60da      	str	r2, [r3, #12]
          ep->xfer_count += (temp & USB_OTG_GRXSTSP_BCNT) >> 4;
 8001560:	697b      	ldr	r3, [r7, #20]
 8001562:	699a      	ldr	r2, [r3, #24]
 8001564:	69bb      	ldr	r3, [r7, #24]
 8001566:	091b      	lsrs	r3, r3, #4
 8001568:	f3c3 030a 	ubfx	r3, r3, #0, #11
 800156c:	441a      	add	r2, r3
 800156e:	697b      	ldr	r3, [r7, #20]
 8001570:	619a      	str	r2, [r3, #24]
 8001572:	e016      	b.n	80015a2 <HAL_PCD_IRQHandler+0x122>
        }
      }
      else if (((temp & USB_OTG_GRXSTSP_PKTSTS) >> 17) ==  STS_SETUP_UPDT)
 8001574:	69bb      	ldr	r3, [r7, #24]
 8001576:	0c5b      	lsrs	r3, r3, #17
 8001578:	f003 030f 	and.w	r3, r3, #15
 800157c:	2b06      	cmp	r3, #6
 800157e:	d110      	bne.n	80015a2 <HAL_PCD_IRQHandler+0x122>
      {
        (void)USB_ReadPacket(USBx, (uint8_t *)hpcd->Setup, 8U);
 8001580:	687b      	ldr	r3, [r7, #4]
 8001582:	f503 7371 	add.w	r3, r3, #964	; 0x3c4
 8001586:	2208      	movs	r2, #8
 8001588:	4619      	mov	r1, r3
 800158a:	6a38      	ldr	r0, [r7, #32]
 800158c:	f003 f842 	bl	8004614 <USB_ReadPacket>
        ep->xfer_count += (temp & USB_OTG_GRXSTSP_BCNT) >> 4;
 8001590:	697b      	ldr	r3, [r7, #20]
 8001592:	699a      	ldr	r2, [r3, #24]
 8001594:	69bb      	ldr	r3, [r7, #24]
 8001596:	091b      	lsrs	r3, r3, #4
 8001598:	f3c3 030a 	ubfx	r3, r3, #0, #11
 800159c:	441a      	add	r2, r3
 800159e:	697b      	ldr	r3, [r7, #20]
 80015a0:	619a      	str	r2, [r3, #24]
      }
      else
      {
        /* ... */
      }
      USB_UNMASK_INTERRUPT(hpcd->Instance, USB_OTG_GINTSTS_RXFLVL);
 80015a2:	687b      	ldr	r3, [r7, #4]
 80015a4:	681b      	ldr	r3, [r3, #0]
 80015a6:	699a      	ldr	r2, [r3, #24]
 80015a8:	687b      	ldr	r3, [r7, #4]
 80015aa:	681b      	ldr	r3, [r3, #0]
 80015ac:	f042 0210 	orr.w	r2, r2, #16
 80015b0:	619a      	str	r2, [r3, #24]
    }

    if (__HAL_PCD_GET_FLAG(hpcd, USB_OTG_GINTSTS_OEPINT))
 80015b2:	687b      	ldr	r3, [r7, #4]
 80015b4:	681b      	ldr	r3, [r3, #0]
 80015b6:	4618      	mov	r0, r3
 80015b8:	f003 f991 	bl	80048de <USB_ReadInterrupts>
 80015bc:	4603      	mov	r3, r0
 80015be:	f403 2300 	and.w	r3, r3, #524288	; 0x80000
 80015c2:	f5b3 2f00 	cmp.w	r3, #524288	; 0x80000
 80015c6:	d16e      	bne.n	80016a6 <HAL_PCD_IRQHandler+0x226>
    {
      epnum = 0U;
 80015c8:	2300      	movs	r3, #0
 80015ca:	627b      	str	r3, [r7, #36]	; 0x24

      /* Read in the device interrupt bits */
      ep_intr = USB_ReadDevAllOutEpInterrupt(hpcd->Instance);
 80015cc:	687b      	ldr	r3, [r7, #4]
 80015ce:	681b      	ldr	r3, [r3, #0]
 80015d0:	4618      	mov	r0, r3
 80015d2:	f003 f997 	bl	8004904 <USB_ReadDevAllOutEpInterrupt>
 80015d6:	62b8      	str	r0, [r7, #40]	; 0x28

      while (ep_intr != 0U)
 80015d8:	e062      	b.n	80016a0 <HAL_PCD_IRQHandler+0x220>
      {
        if ((ep_intr & 0x1U) != 0U)
 80015da:	6abb      	ldr	r3, [r7, #40]	; 0x28
 80015dc:	f003 0301 	and.w	r3, r3, #1
 80015e0:	2b00      	cmp	r3, #0
 80015e2:	d057      	beq.n	8001694 <HAL_PCD_IRQHandler+0x214>
        {
          epint = USB_ReadDevOutEPInterrupt(hpcd->Instance, (uint8_t)epnum);
 80015e4:	687b      	ldr	r3, [r7, #4]
 80015e6:	681b      	ldr	r3, [r3, #0]
 80015e8:	6a7a      	ldr	r2, [r7, #36]	; 0x24
 80015ea:	b2d2      	uxtb	r2, r2
 80015ec:	4611      	mov	r1, r2
 80015ee:	4618      	mov	r0, r3
 80015f0:	f003 f9bc 	bl	800496c <USB_ReadDevOutEPInterrupt>
 80015f4:	6138      	str	r0, [r7, #16]

          if ((epint & USB_OTG_DOEPINT_XFRC) == USB_OTG_DOEPINT_XFRC)
 80015f6:	693b      	ldr	r3, [r7, #16]
 80015f8:	f003 0301 	and.w	r3, r3, #1
 80015fc:	2b00      	cmp	r3, #0
 80015fe:	d00c      	beq.n	800161a <HAL_PCD_IRQHandler+0x19a>
          {
            CLEAR_OUT_EP_INTR(epnum, USB_OTG_DOEPINT_XFRC);
 8001600:	6a7b      	ldr	r3, [r7, #36]	; 0x24
 8001602:	015a      	lsls	r2, r3, #5
 8001604:	69fb      	ldr	r3, [r7, #28]
 8001606:	4413      	add	r3, r2
 8001608:	f503 6330 	add.w	r3, r3, #2816	; 0xb00
 800160c:	461a      	mov	r2, r3
 800160e:	2301      	movs	r3, #1
 8001610:	6093      	str	r3, [r2, #8]
            (void)PCD_EP_OutXfrComplete_int(hpcd, epnum);
 8001612:	6a79      	ldr	r1, [r7, #36]	; 0x24
 8001614:	6878      	ldr	r0, [r7, #4]
 8001616:	f000 fdb1 	bl	800217c <PCD_EP_OutXfrComplete_int>
          }

          if ((epint & USB_OTG_DOEPINT_STUP) == USB_OTG_DOEPINT_STUP)
 800161a:	693b      	ldr	r3, [r7, #16]
 800161c:	f003 0308 	and.w	r3, r3, #8
 8001620:	2b00      	cmp	r3, #0
 8001622:	d00c      	beq.n	800163e <HAL_PCD_IRQHandler+0x1be>
          {
            CLEAR_OUT_EP_INTR(epnum, USB_OTG_DOEPINT_STUP);
 8001624:	6a7b      	ldr	r3, [r7, #36]	; 0x24
 8001626:	015a      	lsls	r2, r3, #5
 8001628:	69fb      	ldr	r3, [r7, #28]
 800162a:	4413      	add	r3, r2
 800162c:	f503 6330 	add.w	r3, r3, #2816	; 0xb00
 8001630:	461a      	mov	r2, r3
 8001632:	2308      	movs	r3, #8
 8001634:	6093      	str	r3, [r2, #8]
            /* Class B setup phase done for previous decoded setup */
            (void)PCD_EP_OutSetupPacket_int(hpcd, epnum);
 8001636:	6a79      	ldr	r1, [r7, #36]	; 0x24
 8001638:	6878      	ldr	r0, [r7, #4]
 800163a:	f000 feab 	bl	8002394 <PCD_EP_OutSetupPacket_int>
          }

          if ((epint & USB_OTG_DOEPINT_OTEPDIS) == USB_OTG_DOEPINT_OTEPDIS)
 800163e:	693b      	ldr	r3, [r7, #16]
 8001640:	f003 0310 	and.w	r3, r3, #16
 8001644:	2b00      	cmp	r3, #0
 8001646:	d008      	beq.n	800165a <HAL_PCD_IRQHandler+0x1da>
          {
            CLEAR_OUT_EP_INTR(epnum, USB_OTG_DOEPINT_OTEPDIS);
 8001648:	6a7b      	ldr	r3, [r7, #36]	; 0x24
 800164a:	015a      	lsls	r2, r3, #5
 800164c:	69fb      	ldr	r3, [r7, #28]
 800164e:	4413      	add	r3, r2
 8001650:	f503 6330 	add.w	r3, r3, #2816	; 0xb00
 8001654:	461a      	mov	r2, r3
 8001656:	2310      	movs	r3, #16
 8001658:	6093      	str	r3, [r2, #8]
          }

          /* Clear Status Phase Received interrupt */
          if ((epint & USB_OTG_DOEPINT_OTEPSPR) == USB_OTG_DOEPINT_OTEPSPR)
 800165a:	693b      	ldr	r3, [r7, #16]
 800165c:	f003 0320 	and.w	r3, r3, #32
 8001660:	2b00      	cmp	r3, #0
 8001662:	d008      	beq.n	8001676 <HAL_PCD_IRQHandler+0x1f6>
          {
            CLEAR_OUT_EP_INTR(epnum, USB_OTG_DOEPINT_OTEPSPR);
 8001664:	6a7b      	ldr	r3, [r7, #36]	; 0x24
 8001666:	015a      	lsls	r2, r3, #5
 8001668:	69fb      	ldr	r3, [r7, #28]
 800166a:	4413      	add	r3, r2
 800166c:	f503 6330 	add.w	r3, r3, #2816	; 0xb00
 8001670:	461a      	mov	r2, r3
 8001672:	2320      	movs	r3, #32
 8001674:	6093      	str	r3, [r2, #8]
          }

          /* Clear OUT NAK interrupt */
          if ((epint & USB_OTG_DOEPINT_NAK) == USB_OTG_DOEPINT_NAK)
 8001676:	693b      	ldr	r3, [r7, #16]
 8001678:	f403 5300 	and.w	r3, r3, #8192	; 0x2000
 800167c:	2b00      	cmp	r3, #0
 800167e:	d009      	beq.n	8001694 <HAL_PCD_IRQHandler+0x214>
          {
            CLEAR_OUT_EP_INTR(epnum, USB_OTG_DOEPINT_NAK);
 8001680:	6a7b      	ldr	r3, [r7, #36]	; 0x24
 8001682:	015a      	lsls	r2, r3, #5
 8001684:	69fb      	ldr	r3, [r7, #28]
 8001686:	4413      	add	r3, r2
 8001688:	f503 6330 	add.w	r3, r3, #2816	; 0xb00
 800168c:	461a      	mov	r2, r3
 800168e:	f44f 5300 	mov.w	r3, #8192	; 0x2000
 8001692:	6093      	str	r3, [r2, #8]
          }
        }
        epnum++;
 8001694:	6a7b      	ldr	r3, [r7, #36]	; 0x24
 8001696:	3301      	adds	r3, #1
 8001698:	627b      	str	r3, [r7, #36]	; 0x24
        ep_intr >>= 1U;
 800169a:	6abb      	ldr	r3, [r7, #40]	; 0x28
 800169c:	085b      	lsrs	r3, r3, #1
 800169e:	62bb      	str	r3, [r7, #40]	; 0x28
      while (ep_intr != 0U)
 80016a0:	6abb      	ldr	r3, [r7, #40]	; 0x28
 80016a2:	2b00      	cmp	r3, #0
 80016a4:	d199      	bne.n	80015da <HAL_PCD_IRQHandler+0x15a>
      }
    }

    if (__HAL_PCD_GET_FLAG(hpcd, USB_OTG_GINTSTS_IEPINT))
 80016a6:	687b      	ldr	r3, [r7, #4]
 80016a8:	681b      	ldr	r3, [r3, #0]
 80016aa:	4618      	mov	r0, r3
 80016ac:	f003 f917 	bl	80048de <USB_ReadInterrupts>
 80016b0:	4603      	mov	r3, r0
 80016b2:	f403 2380 	and.w	r3, r3, #262144	; 0x40000
 80016b6:	f5b3 2f80 	cmp.w	r3, #262144	; 0x40000
 80016ba:	f040 80c0 	bne.w	800183e <HAL_PCD_IRQHandler+0x3be>
    {
      /* Read in the device interrupt bits */
      ep_intr = USB_ReadDevAllInEpInterrupt(hpcd->Instance);
 80016be:	687b      	ldr	r3, [r7, #4]
 80016c0:	681b      	ldr	r3, [r3, #0]
 80016c2:	4618      	mov	r0, r3
 80016c4:	f003 f938 	bl	8004938 <USB_ReadDevAllInEpInterrupt>
 80016c8:	62b8      	str	r0, [r7, #40]	; 0x28

      epnum = 0U;
 80016ca:	2300      	movs	r3, #0
 80016cc:	627b      	str	r3, [r7, #36]	; 0x24

      while (ep_intr != 0U)
 80016ce:	e0b2      	b.n	8001836 <HAL_PCD_IRQHandler+0x3b6>
      {
        if ((ep_intr & 0x1U) != 0U) /* In ITR */
 80016d0:	6abb      	ldr	r3, [r7, #40]	; 0x28
 80016d2:	f003 0301 	and.w	r3, r3, #1
 80016d6:	2b00      	cmp	r3, #0
 80016d8:	f000 80a7 	beq.w	800182a <HAL_PCD_IRQHandler+0x3aa>
        {
          epint = USB_ReadDevInEPInterrupt(hpcd->Instance, (uint8_t)epnum);
 80016dc:	687b      	ldr	r3, [r7, #4]
 80016de:	681b      	ldr	r3, [r3, #0]
 80016e0:	6a7a      	ldr	r2, [r7, #36]	; 0x24
 80016e2:	b2d2      	uxtb	r2, r2
 80016e4:	4611      	mov	r1, r2
 80016e6:	4618      	mov	r0, r3
 80016e8:	f003 f95e 	bl	80049a8 <USB_ReadDevInEPInterrupt>
 80016ec:	6138      	str	r0, [r7, #16]

          if ((epint & USB_OTG_DIEPINT_XFRC) == USB_OTG_DIEPINT_XFRC)
 80016ee:	693b      	ldr	r3, [r7, #16]
 80016f0:	f003 0301 	and.w	r3, r3, #1
 80016f4:	2b00      	cmp	r3, #0
 80016f6:	d057      	beq.n	80017a8 <HAL_PCD_IRQHandler+0x328>
          {
            fifoemptymsk = (uint32_t)(0x1UL << (epnum & EP_ADDR_MSK));
 80016f8:	6a7b      	ldr	r3, [r7, #36]	; 0x24
 80016fa:	f003 030f 	and.w	r3, r3, #15
 80016fe:	2201      	movs	r2, #1
 8001700:	fa02 f303 	lsl.w	r3, r2, r3
 8001704:	60fb      	str	r3, [r7, #12]
            USBx_DEVICE->DIEPEMPMSK &= ~fifoemptymsk;
 8001706:	69fb      	ldr	r3, [r7, #28]
 8001708:	f503 6300 	add.w	r3, r3, #2048	; 0x800
 800170c:	6b5a      	ldr	r2, [r3, #52]	; 0x34
 800170e:	68fb      	ldr	r3, [r7, #12]
 8001710:	43db      	mvns	r3, r3
 8001712:	69f9      	ldr	r1, [r7, #28]
 8001714:	f501 6100 	add.w	r1, r1, #2048	; 0x800
 8001718:	4013      	ands	r3, r2
 800171a:	634b      	str	r3, [r1, #52]	; 0x34

            CLEAR_IN_EP_INTR(epnum, USB_OTG_DIEPINT_XFRC);
 800171c:	6a7b      	ldr	r3, [r7, #36]	; 0x24
 800171e:	015a      	lsls	r2, r3, #5
 8001720:	69fb      	ldr	r3, [r7, #28]
 8001722:	4413      	add	r3, r2
 8001724:	f503 6310 	add.w	r3, r3, #2304	; 0x900
 8001728:	461a      	mov	r2, r3
 800172a:	2301      	movs	r3, #1
 800172c:	6093      	str	r3, [r2, #8]

            if (hpcd->Init.dma_enable == 1U)
 800172e:	687b      	ldr	r3, [r7, #4]
 8001730:	691b      	ldr	r3, [r3, #16]
 8001732:	2b01      	cmp	r3, #1
 8001734:	d132      	bne.n	800179c <HAL_PCD_IRQHandler+0x31c>
            {
              hpcd->IN_ep[epnum].xfer_buff += hpcd->IN_ep[epnum].maxpacket;
 8001736:	6879      	ldr	r1, [r7, #4]
 8001738:	6a7a      	ldr	r2, [r7, #36]	; 0x24
 800173a:	4613      	mov	r3, r2
 800173c:	00db      	lsls	r3, r3, #3
 800173e:	1a9b      	subs	r3, r3, r2
 8001740:	009b      	lsls	r3, r3, #2
 8001742:	440b      	add	r3, r1
 8001744:	3348      	adds	r3, #72	; 0x48
 8001746:	6819      	ldr	r1, [r3, #0]
 8001748:	6878      	ldr	r0, [r7, #4]
 800174a:	6a7a      	ldr	r2, [r7, #36]	; 0x24
 800174c:	4613      	mov	r3, r2
 800174e:	00db      	lsls	r3, r3, #3
 8001750:	1a9b      	subs	r3, r3, r2
 8001752:	009b      	lsls	r3, r3, #2
 8001754:	4403      	add	r3, r0
 8001756:	3344      	adds	r3, #68	; 0x44
 8001758:	681b      	ldr	r3, [r3, #0]
 800175a:	4419      	add	r1, r3
 800175c:	6878      	ldr	r0, [r7, #4]
 800175e:	6a7a      	ldr	r2, [r7, #36]	; 0x24
 8001760:	4613      	mov	r3, r2
 8001762:	00db      	lsls	r3, r3, #3
 8001764:	1a9b      	subs	r3, r3, r2
 8001766:	009b      	lsls	r3, r3, #2
 8001768:	4403      	add	r3, r0
 800176a:	3348      	adds	r3, #72	; 0x48
 800176c:	6019      	str	r1, [r3, #0]

              /* this is ZLP, so prepare EP0 for next setup */
              if ((epnum == 0U) && (hpcd->IN_ep[epnum].xfer_len == 0U))
 800176e:	6a7b      	ldr	r3, [r7, #36]	; 0x24
 8001770:	2b00      	cmp	r3, #0
 8001772:	d113      	bne.n	800179c <HAL_PCD_IRQHandler+0x31c>
 8001774:	6879      	ldr	r1, [r7, #4]
 8001776:	6a7a      	ldr	r2, [r7, #36]	; 0x24
 8001778:	4613      	mov	r3, r2
 800177a:	00db      	lsls	r3, r3, #3
 800177c:	1a9b      	subs	r3, r3, r2
 800177e:	009b      	lsls	r3, r3, #2
 8001780:	440b      	add	r3, r1
 8001782:	3350      	adds	r3, #80	; 0x50
 8001784:	681b      	ldr	r3, [r3, #0]
 8001786:	2b00      	cmp	r3, #0
 8001788:	d108      	bne.n	800179c <HAL_PCD_IRQHandler+0x31c>
              {
                /* prepare to rx more setup packets */
                (void)USB_EP0_OutStart(hpcd->Instance, 1U, (uint8_t *)hpcd->Setup);
 800178a:	687b      	ldr	r3, [r7, #4]
 800178c:	6818      	ldr	r0, [r3, #0]
 800178e:	687b      	ldr	r3, [r7, #4]
 8001790:	f503 7371 	add.w	r3, r3, #964	; 0x3c4
 8001794:	461a      	mov	r2, r3
 8001796:	2101      	movs	r1, #1
 8001798:	f003 f966 	bl	8004a68 <USB_EP0_OutStart>
            }

#if (USE_HAL_PCD_REGISTER_CALLBACKS == 1U)
            hpcd->DataInStageCallback(hpcd, (uint8_t)epnum);
#else
            HAL_PCD_DataInStageCallback(hpcd, (uint8_t)epnum);
 800179c:	6a7b      	ldr	r3, [r7, #36]	; 0x24
 800179e:	b2db      	uxtb	r3, r3
 80017a0:	4619      	mov	r1, r3
 80017a2:	6878      	ldr	r0, [r7, #4]
 80017a4:	f005 f8d9 	bl	800695a <HAL_PCD_DataInStageCallback>
#endif /* USE_HAL_PCD_REGISTER_CALLBACKS */
          }
          if ((epint & USB_OTG_DIEPINT_TOC) == USB_OTG_DIEPINT_TOC)
 80017a8:	693b      	ldr	r3, [r7, #16]
 80017aa:	f003 0308 	and.w	r3, r3, #8
 80017ae:	2b00      	cmp	r3, #0
 80017b0:	d008      	beq.n	80017c4 <HAL_PCD_IRQHandler+0x344>
          {
            CLEAR_IN_EP_INTR(epnum, USB_OTG_DIEPINT_TOC);
 80017b2:	6a7b      	ldr	r3, [r7, #36]	; 0x24
 80017b4:	015a      	lsls	r2, r3, #5
 80017b6:	69fb      	ldr	r3, [r7, #28]
 80017b8:	4413      	add	r3, r2
 80017ba:	f503 6310 	add.w	r3, r3, #2304	; 0x900
 80017be:	461a      	mov	r2, r3
 80017c0:	2308      	movs	r3, #8
 80017c2:	6093      	str	r3, [r2, #8]
          }
          if ((epint & USB_OTG_DIEPINT_ITTXFE) == USB_OTG_DIEPINT_ITTXFE)
 80017c4:	693b      	ldr	r3, [r7, #16]
 80017c6:	f003 0310 	and.w	r3, r3, #16
 80017ca:	2b00      	cmp	r3, #0
 80017cc:	d008      	beq.n	80017e0 <HAL_PCD_IRQHandler+0x360>
          {
            CLEAR_IN_EP_INTR(epnum, USB_OTG_DIEPINT_ITTXFE);
 80017ce:	6a7b      	ldr	r3, [r7, #36]	; 0x24
 80017d0:	015a      	lsls	r2, r3, #5
 80017d2:	69fb      	ldr	r3, [r7, #28]
 80017d4:	4413      	add	r3, r2
 80017d6:	f503 6310 	add.w	r3, r3, #2304	; 0x900
 80017da:	461a      	mov	r2, r3
 80017dc:	2310      	movs	r3, #16
 80017de:	6093      	str	r3, [r2, #8]
          }
          if ((epint & USB_OTG_DIEPINT_INEPNE) == USB_OTG_DIEPINT_INEPNE)
 80017e0:	693b      	ldr	r3, [r7, #16]
 80017e2:	f003 0340 	and.w	r3, r3, #64	; 0x40
 80017e6:	2b00      	cmp	r3, #0
 80017e8:	d008      	beq.n	80017fc <HAL_PCD_IRQHandler+0x37c>
          {
            CLEAR_IN_EP_INTR(epnum, USB_OTG_DIEPINT_INEPNE);
 80017ea:	6a7b      	ldr	r3, [r7, #36]	; 0x24
 80017ec:	015a      	lsls	r2, r3, #5
 80017ee:	69fb      	ldr	r3, [r7, #28]
 80017f0:	4413      	add	r3, r2
 80017f2:	f503 6310 	add.w	r3, r3, #2304	; 0x900
 80017f6:	461a      	mov	r2, r3
 80017f8:	2340      	movs	r3, #64	; 0x40
 80017fa:	6093      	str	r3, [r2, #8]
          }
          if ((epint & USB_OTG_DIEPINT_EPDISD) == USB_OTG_DIEPINT_EPDISD)
 80017fc:	693b      	ldr	r3, [r7, #16]
 80017fe:	f003 0302 	and.w	r3, r3, #2
 8001802:	2b00      	cmp	r3, #0
 8001804:	d008      	beq.n	8001818 <HAL_PCD_IRQHandler+0x398>
          {
            CLEAR_IN_EP_INTR(epnum, USB_OTG_DIEPINT_EPDISD);
 8001806:	6a7b      	ldr	r3, [r7, #36]	; 0x24
 8001808:	015a      	lsls	r2, r3, #5
 800180a:	69fb      	ldr	r3, [r7, #28]
 800180c:	4413      	add	r3, r2
 800180e:	f503 6310 	add.w	r3, r3, #2304	; 0x900
 8001812:	461a      	mov	r2, r3
 8001814:	2302      	movs	r3, #2
 8001816:	6093      	str	r3, [r2, #8]
          }
          if ((epint & USB_OTG_DIEPINT_TXFE) == USB_OTG_DIEPINT_TXFE)
 8001818:	693b      	ldr	r3, [r7, #16]
 800181a:	f003 0380 	and.w	r3, r3, #128	; 0x80
 800181e:	2b00      	cmp	r3, #0
 8001820:	d003      	beq.n	800182a <HAL_PCD_IRQHandler+0x3aa>
          {
            (void)PCD_WriteEmptyTxFifo(hpcd, epnum);
 8001822:	6a79      	ldr	r1, [r7, #36]	; 0x24
 8001824:	6878      	ldr	r0, [r7, #4]
 8001826:	f000 fc1b 	bl	8002060 <PCD_WriteEmptyTxFifo>
          }
        }
        epnum++;
 800182a:	6a7b      	ldr	r3, [r7, #36]	; 0x24
 800182c:	3301      	adds	r3, #1
 800182e:	627b      	str	r3, [r7, #36]	; 0x24
        ep_intr >>= 1U;
 8001830:	6abb      	ldr	r3, [r7, #40]	; 0x28
 8001832:	085b      	lsrs	r3, r3, #1
 8001834:	62bb      	str	r3, [r7, #40]	; 0x28
      while (ep_intr != 0U)
 8001836:	6abb      	ldr	r3, [r7, #40]	; 0x28
 8001838:	2b00      	cmp	r3, #0
 800183a:	f47f af49 	bne.w	80016d0 <HAL_PCD_IRQHandler+0x250>
      }
    }

    /* Handle Resume Interrupt */
    if (__HAL_PCD_GET_FLAG(hpcd, USB_OTG_GINTSTS_WKUINT))
 800183e:	687b      	ldr	r3, [r7, #4]
 8001840:	681b      	ldr	r3, [r3, #0]
 8001842:	4618      	mov	r0, r3
 8001844:	f003 f84b 	bl	80048de <USB_ReadInterrupts>
 8001848:	4603      	mov	r3, r0
 800184a:	f003 4300 	and.w	r3, r3, #2147483648	; 0x80000000
 800184e:	f1b3 4f00 	cmp.w	r3, #2147483648	; 0x80000000
 8001852:	d122      	bne.n	800189a <HAL_PCD_IRQHandler+0x41a>
    {
      /* Clear the Remote Wake-up Signaling */
      USBx_DEVICE->DCTL &= ~USB_OTG_DCTL_RWUSIG;
 8001854:	69fb      	ldr	r3, [r7, #28]
 8001856:	f503 6300 	add.w	r3, r3, #2048	; 0x800
 800185a:	685b      	ldr	r3, [r3, #4]
 800185c:	69fa      	ldr	r2, [r7, #28]
 800185e:	f502 6200 	add.w	r2, r2, #2048	; 0x800
 8001862:	f023 0301 	bic.w	r3, r3, #1
 8001866:	6053      	str	r3, [r2, #4]

      if (hpcd->LPM_State == LPM_L1)
 8001868:	687b      	ldr	r3, [r7, #4]
 800186a:	f893 33f4 	ldrb.w	r3, [r3, #1012]	; 0x3f4
 800186e:	2b01      	cmp	r3, #1
 8001870:	d108      	bne.n	8001884 <HAL_PCD_IRQHandler+0x404>
      {
        hpcd->LPM_State = LPM_L0;
 8001872:	687b      	ldr	r3, [r7, #4]
 8001874:	2200      	movs	r2, #0
 8001876:	f883 23f4 	strb.w	r2, [r3, #1012]	; 0x3f4

#if (USE_HAL_PCD_REGISTER_CALLBACKS == 1U)
        hpcd->LPMCallback(hpcd, PCD_LPM_L0_ACTIVE);
#else
        HAL_PCDEx_LPM_Callback(hpcd, PCD_LPM_L0_ACTIVE);
 800187a:	2100      	movs	r1, #0
 800187c:	6878      	ldr	r0, [r7, #4]
 800187e:	f000 fe27 	bl	80024d0 <HAL_PCDEx_LPM_Callback>
 8001882:	e002      	b.n	800188a <HAL_PCD_IRQHandler+0x40a>
      else
      {
#if (USE_HAL_PCD_REGISTER_CALLBACKS == 1U)
        hpcd->ResumeCallback(hpcd);
#else
        HAL_PCD_ResumeCallback(hpcd);
 8001884:	6878      	ldr	r0, [r7, #4]
 8001886:	f005 f8df 	bl	8006a48 <HAL_PCD_ResumeCallback>
#endif /* USE_HAL_PCD_REGISTER_CALLBACKS */
      }

      __HAL_PCD_CLEAR_FLAG(hpcd, USB_OTG_GINTSTS_WKUINT);
 800188a:	687b      	ldr	r3, [r7, #4]
 800188c:	681b      	ldr	r3, [r3, #0]
 800188e:	695a      	ldr	r2, [r3, #20]
 8001890:	687b      	ldr	r3, [r7, #4]
 8001892:	681b      	ldr	r3, [r3, #0]
 8001894:	f002 4200 	and.w	r2, r2, #2147483648	; 0x80000000
 8001898:	615a      	str	r2, [r3, #20]
    }

    /* Handle Suspend Interrupt */
    if (__HAL_PCD_GET_FLAG(hpcd, USB_OTG_GINTSTS_USBSUSP))
 800189a:	687b      	ldr	r3, [r7, #4]
 800189c:	681b      	ldr	r3, [r3, #0]
 800189e:	4618      	mov	r0, r3
 80018a0:	f003 f81d 	bl	80048de <USB_ReadInterrupts>
 80018a4:	4603      	mov	r3, r0
 80018a6:	f403 6300 	and.w	r3, r3, #2048	; 0x800
 80018aa:	f5b3 6f00 	cmp.w	r3, #2048	; 0x800
 80018ae:	d112      	bne.n	80018d6 <HAL_PCD_IRQHandler+0x456>
    {
      if ((USBx_DEVICE->DSTS & USB_OTG_DSTS_SUSPSTS) == USB_OTG_DSTS_SUSPSTS)
 80018b0:	69fb      	ldr	r3, [r7, #28]
 80018b2:	f503 6300 	add.w	r3, r3, #2048	; 0x800
 80018b6:	689b      	ldr	r3, [r3, #8]
 80018b8:	f003 0301 	and.w	r3, r3, #1
 80018bc:	2b01      	cmp	r3, #1
 80018be:	d102      	bne.n	80018c6 <HAL_PCD_IRQHandler+0x446>
      {
#if (USE_HAL_PCD_REGISTER_CALLBACKS == 1U)
        hpcd->SuspendCallback(hpcd);
#else
        HAL_PCD_SuspendCallback(hpcd);
 80018c0:	6878      	ldr	r0, [r7, #4]
 80018c2:	f005 f89b 	bl	80069fc <HAL_PCD_SuspendCallback>
#endif /* USE_HAL_PCD_REGISTER_CALLBACKS */
      }
      __HAL_PCD_CLEAR_FLAG(hpcd, USB_OTG_GINTSTS_USBSUSP);
 80018c6:	687b      	ldr	r3, [r7, #4]
 80018c8:	681b      	ldr	r3, [r3, #0]
 80018ca:	695a      	ldr	r2, [r3, #20]
 80018cc:	687b      	ldr	r3, [r7, #4]
 80018ce:	681b      	ldr	r3, [r3, #0]
 80018d0:	f402 6200 	and.w	r2, r2, #2048	; 0x800
 80018d4:	615a      	str	r2, [r3, #20]
#endif /* USE_HAL_PCD_REGISTER_CALLBACKS */
      }
    }
#endif /* defined(STM32F446xx) || defined(STM32F469xx) || defined(STM32F479xx) || defined(STM32F412Zx) || defined(STM32F412Vx) || defined(STM32F412Rx) || defined(STM32F412Cx) || defined(STM32F413xx) || defined(STM32F423xx) */
    /* Handle Reset Interrupt */
    if (__HAL_PCD_GET_FLAG(hpcd, USB_OTG_GINTSTS_USBRST))
 80018d6:	687b      	ldr	r3, [r7, #4]
 80018d8:	681b      	ldr	r3, [r3, #0]
 80018da:	4618      	mov	r0, r3
 80018dc:	f002 ffff 	bl	80048de <USB_ReadInterrupts>
 80018e0:	4603      	mov	r3, r0
 80018e2:	f403 5380 	and.w	r3, r3, #4096	; 0x1000
 80018e6:	f5b3 5f80 	cmp.w	r3, #4096	; 0x1000
 80018ea:	f040 80c7 	bne.w	8001a7c <HAL_PCD_IRQHandler+0x5fc>
    {
      USBx_DEVICE->DCTL &= ~USB_OTG_DCTL_RWUSIG;
 80018ee:	69fb      	ldr	r3, [r7, #28]
 80018f0:	f503 6300 	add.w	r3, r3, #2048	; 0x800
 80018f4:	685b      	ldr	r3, [r3, #4]
 80018f6:	69fa      	ldr	r2, [r7, #28]
 80018f8:	f502 6200 	add.w	r2, r2, #2048	; 0x800
 80018fc:	f023 0301 	bic.w	r3, r3, #1
 8001900:	6053      	str	r3, [r2, #4]
      (void)USB_FlushTxFifo(hpcd->Instance, 0x10U);
 8001902:	687b      	ldr	r3, [r7, #4]
 8001904:	681b      	ldr	r3, [r3, #0]
 8001906:	2110      	movs	r1, #16
 8001908:	4618      	mov	r0, r3
 800190a:	f002 f8cd 	bl	8003aa8 <USB_FlushTxFifo>

      for (i = 0U; i < hpcd->Init.dev_endpoints; i++)
 800190e:	2300      	movs	r3, #0
 8001910:	62fb      	str	r3, [r7, #44]	; 0x2c
 8001912:	e056      	b.n	80019c2 <HAL_PCD_IRQHandler+0x542>
      {
        USBx_INEP(i)->DIEPINT = 0xFB7FU;
 8001914:	6afb      	ldr	r3, [r7, #44]	; 0x2c
 8001916:	015a      	lsls	r2, r3, #5
 8001918:	69fb      	ldr	r3, [r7, #28]
 800191a:	4413      	add	r3, r2
 800191c:	f503 6310 	add.w	r3, r3, #2304	; 0x900
 8001920:	461a      	mov	r2, r3
 8001922:	f64f 337f 	movw	r3, #64383	; 0xfb7f
 8001926:	6093      	str	r3, [r2, #8]
        USBx_INEP(i)->DIEPCTL &= ~USB_OTG_DIEPCTL_STALL;
 8001928:	6afb      	ldr	r3, [r7, #44]	; 0x2c
 800192a:	015a      	lsls	r2, r3, #5
 800192c:	69fb      	ldr	r3, [r7, #28]
 800192e:	4413      	add	r3, r2
 8001930:	f503 6310 	add.w	r3, r3, #2304	; 0x900
 8001934:	681b      	ldr	r3, [r3, #0]
 8001936:	6afa      	ldr	r2, [r7, #44]	; 0x2c
 8001938:	0151      	lsls	r1, r2, #5
 800193a:	69fa      	ldr	r2, [r7, #28]
 800193c:	440a      	add	r2, r1
 800193e:	f502 6210 	add.w	r2, r2, #2304	; 0x900
 8001942:	f423 1300 	bic.w	r3, r3, #2097152	; 0x200000
 8001946:	6013      	str	r3, [r2, #0]
        USBx_INEP(i)->DIEPCTL |= USB_OTG_DIEPCTL_SNAK;
 8001948:	6afb      	ldr	r3, [r7, #44]	; 0x2c
 800194a:	015a      	lsls	r2, r3, #5
 800194c:	69fb      	ldr	r3, [r7, #28]
 800194e:	4413      	add	r3, r2
 8001950:	f503 6310 	add.w	r3, r3, #2304	; 0x900
 8001954:	681b      	ldr	r3, [r3, #0]
 8001956:	6afa      	ldr	r2, [r7, #44]	; 0x2c
 8001958:	0151      	lsls	r1, r2, #5
 800195a:	69fa      	ldr	r2, [r7, #28]
 800195c:	440a      	add	r2, r1
 800195e:	f502 6210 	add.w	r2, r2, #2304	; 0x900
 8001962:	f043 6300 	orr.w	r3, r3, #134217728	; 0x8000000
 8001966:	6013      	str	r3, [r2, #0]
        USBx_OUTEP(i)->DOEPINT = 0xFB7FU;
 8001968:	6afb      	ldr	r3, [r7, #44]	; 0x2c
 800196a:	015a      	lsls	r2, r3, #5
 800196c:	69fb      	ldr	r3, [r7, #28]
 800196e:	4413      	add	r3, r2
 8001970:	f503 6330 	add.w	r3, r3, #2816	; 0xb00
 8001974:	461a      	mov	r2, r3
 8001976:	f64f 337f 	movw	r3, #64383	; 0xfb7f
 800197a:	6093      	str	r3, [r2, #8]
        USBx_OUTEP(i)->DOEPCTL &= ~USB_OTG_DOEPCTL_STALL;
 800197c:	6afb      	ldr	r3, [r7, #44]	; 0x2c
 800197e:	015a      	lsls	r2, r3, #5
 8001980:	69fb      	ldr	r3, [r7, #28]
 8001982:	4413      	add	r3, r2
 8001984:	f503 6330 	add.w	r3, r3, #2816	; 0xb00
 8001988:	681b      	ldr	r3, [r3, #0]
 800198a:	6afa      	ldr	r2, [r7, #44]	; 0x2c
 800198c:	0151      	lsls	r1, r2, #5
 800198e:	69fa      	ldr	r2, [r7, #28]
 8001990:	440a      	add	r2, r1
 8001992:	f502 6230 	add.w	r2, r2, #2816	; 0xb00
 8001996:	f423 1300 	bic.w	r3, r3, #2097152	; 0x200000
 800199a:	6013      	str	r3, [r2, #0]
        USBx_OUTEP(i)->DOEPCTL |= USB_OTG_DOEPCTL_SNAK;
 800199c:	6afb      	ldr	r3, [r7, #44]	; 0x2c
 800199e:	015a      	lsls	r2, r3, #5
 80019a0:	69fb      	ldr	r3, [r7, #28]
 80019a2:	4413      	add	r3, r2
 80019a4:	f503 6330 	add.w	r3, r3, #2816	; 0xb00
 80019a8:	681b      	ldr	r3, [r3, #0]
 80019aa:	6afa      	ldr	r2, [r7, #44]	; 0x2c
 80019ac:	0151      	lsls	r1, r2, #5
 80019ae:	69fa      	ldr	r2, [r7, #28]
 80019b0:	440a      	add	r2, r1
 80019b2:	f502 6230 	add.w	r2, r2, #2816	; 0xb00
 80019b6:	f043 6300 	orr.w	r3, r3, #134217728	; 0x8000000
 80019ba:	6013      	str	r3, [r2, #0]
      for (i = 0U; i < hpcd->Init.dev_endpoints; i++)
 80019bc:	6afb      	ldr	r3, [r7, #44]	; 0x2c
 80019be:	3301      	adds	r3, #1
 80019c0:	62fb      	str	r3, [r7, #44]	; 0x2c
 80019c2:	687b      	ldr	r3, [r7, #4]
 80019c4:	685b      	ldr	r3, [r3, #4]
 80019c6:	6afa      	ldr	r2, [r7, #44]	; 0x2c
 80019c8:	429a      	cmp	r2, r3
 80019ca:	d3a3      	bcc.n	8001914 <HAL_PCD_IRQHandler+0x494>
      }
      USBx_DEVICE->DAINTMSK |= 0x10001U;
 80019cc:	69fb      	ldr	r3, [r7, #28]
 80019ce:	f503 6300 	add.w	r3, r3, #2048	; 0x800
 80019d2:	69db      	ldr	r3, [r3, #28]
 80019d4:	69fa      	ldr	r2, [r7, #28]
 80019d6:	f502 6200 	add.w	r2, r2, #2048	; 0x800
 80019da:	f043 1301 	orr.w	r3, r3, #65537	; 0x10001
 80019de:	61d3      	str	r3, [r2, #28]

      if (hpcd->Init.use_dedicated_ep1 != 0U)
 80019e0:	687b      	ldr	r3, [r7, #4]
 80019e2:	6b1b      	ldr	r3, [r3, #48]	; 0x30
 80019e4:	2b00      	cmp	r3, #0
 80019e6:	d016      	beq.n	8001a16 <HAL_PCD_IRQHandler+0x596>
      {
        USBx_DEVICE->DOUTEP1MSK |= USB_OTG_DOEPMSK_STUPM |
 80019e8:	69fb      	ldr	r3, [r7, #28]
 80019ea:	f503 6300 	add.w	r3, r3, #2048	; 0x800
 80019ee:	f8d3 3084 	ldr.w	r3, [r3, #132]	; 0x84
 80019f2:	69fa      	ldr	r2, [r7, #28]
 80019f4:	f502 6200 	add.w	r2, r2, #2048	; 0x800
 80019f8:	f043 030b 	orr.w	r3, r3, #11
 80019fc:	f8c2 3084 	str.w	r3, [r2, #132]	; 0x84
                                   USB_OTG_DOEPMSK_XFRCM |
                                   USB_OTG_DOEPMSK_EPDM;

        USBx_DEVICE->DINEP1MSK |= USB_OTG_DIEPMSK_TOM |
 8001a00:	69fb      	ldr	r3, [r7, #28]
 8001a02:	f503 6300 	add.w	r3, r3, #2048	; 0x800
 8001a06:	6c5b      	ldr	r3, [r3, #68]	; 0x44
 8001a08:	69fa      	ldr	r2, [r7, #28]
 8001a0a:	f502 6200 	add.w	r2, r2, #2048	; 0x800
 8001a0e:	f043 030b 	orr.w	r3, r3, #11
 8001a12:	6453      	str	r3, [r2, #68]	; 0x44
 8001a14:	e015      	b.n	8001a42 <HAL_PCD_IRQHandler+0x5c2>
                                  USB_OTG_DIEPMSK_XFRCM |
                                  USB_OTG_DIEPMSK_EPDM;
      }
      else
      {
        USBx_DEVICE->DOEPMSK |= USB_OTG_DOEPMSK_STUPM |
 8001a16:	69fb      	ldr	r3, [r7, #28]
 8001a18:	f503 6300 	add.w	r3, r3, #2048	; 0x800
 8001a1c:	695b      	ldr	r3, [r3, #20]
 8001a1e:	69fa      	ldr	r2, [r7, #28]
 8001a20:	f502 6200 	add.w	r2, r2, #2048	; 0x800
 8001a24:	f443 5300 	orr.w	r3, r3, #8192	; 0x2000
 8001a28:	f043 032b 	orr.w	r3, r3, #43	; 0x2b
 8001a2c:	6153      	str	r3, [r2, #20]
                                USB_OTG_DOEPMSK_XFRCM |
                                USB_OTG_DOEPMSK_EPDM |
                                USB_OTG_DOEPMSK_OTEPSPRM |
                                USB_OTG_DOEPMSK_NAKM;

        USBx_DEVICE->DIEPMSK |= USB_OTG_DIEPMSK_TOM |
 8001a2e:	69fb      	ldr	r3, [r7, #28]
 8001a30:	f503 6300 	add.w	r3, r3, #2048	; 0x800
 8001a34:	691b      	ldr	r3, [r3, #16]
 8001a36:	69fa      	ldr	r2, [r7, #28]
 8001a38:	f502 6200 	add.w	r2, r2, #2048	; 0x800
 8001a3c:	f043 030b 	orr.w	r3, r3, #11
 8001a40:	6113      	str	r3, [r2, #16]
                                USB_OTG_DIEPMSK_XFRCM |
                                USB_OTG_DIEPMSK_EPDM;
      }

      /* Set Default Address to 0 */
      USBx_DEVICE->DCFG &= ~USB_OTG_DCFG_DAD;
 8001a42:	69fb      	ldr	r3, [r7, #28]
 8001a44:	f503 6300 	add.w	r3, r3, #2048	; 0x800
 8001a48:	681b      	ldr	r3, [r3, #0]
 8001a4a:	69fa      	ldr	r2, [r7, #28]
 8001a4c:	f502 6200 	add.w	r2, r2, #2048	; 0x800
 8001a50:	f423 63fe 	bic.w	r3, r3, #2032	; 0x7f0
 8001a54:	6013      	str	r3, [r2, #0]

      /* setup EP0 to receive SETUP packets */
      (void)USB_EP0_OutStart(hpcd->Instance, (uint8_t)hpcd->Init.dma_enable,
 8001a56:	687b      	ldr	r3, [r7, #4]
 8001a58:	6818      	ldr	r0, [r3, #0]
 8001a5a:	687b      	ldr	r3, [r7, #4]
 8001a5c:	691b      	ldr	r3, [r3, #16]
 8001a5e:	b2d9      	uxtb	r1, r3
                             (uint8_t *)hpcd->Setup);
 8001a60:	687b      	ldr	r3, [r7, #4]
 8001a62:	f503 7371 	add.w	r3, r3, #964	; 0x3c4
      (void)USB_EP0_OutStart(hpcd->Instance, (uint8_t)hpcd->Init.dma_enable,
 8001a66:	461a      	mov	r2, r3
 8001a68:	f002 fffe 	bl	8004a68 <USB_EP0_OutStart>

      __HAL_PCD_CLEAR_FLAG(hpcd, USB_OTG_GINTSTS_USBRST);
 8001a6c:	687b      	ldr	r3, [r7, #4]
 8001a6e:	681b      	ldr	r3, [r3, #0]
 8001a70:	695a      	ldr	r2, [r3, #20]
 8001a72:	687b      	ldr	r3, [r7, #4]
 8001a74:	681b      	ldr	r3, [r3, #0]
 8001a76:	f402 5280 	and.w	r2, r2, #4096	; 0x1000
 8001a7a:	615a      	str	r2, [r3, #20]
    }

    /* Handle Enumeration done Interrupt */
    if (__HAL_PCD_GET_FLAG(hpcd, USB_OTG_GINTSTS_ENUMDNE))
 8001a7c:	687b      	ldr	r3, [r7, #4]
 8001a7e:	681b      	ldr	r3, [r3, #0]
 8001a80:	4618      	mov	r0, r3
 8001a82:	f002 ff2c 	bl	80048de <USB_ReadInterrupts>
 8001a86:	4603      	mov	r3, r0
 8001a88:	f403 5300 	and.w	r3, r3, #8192	; 0x2000
 8001a8c:	f5b3 5f00 	cmp.w	r3, #8192	; 0x2000
 8001a90:	d124      	bne.n	8001adc <HAL_PCD_IRQHandler+0x65c>
    {
      (void)USB_ActivateSetup(hpcd->Instance);
 8001a92:	687b      	ldr	r3, [r7, #4]
 8001a94:	681b      	ldr	r3, [r3, #0]
 8001a96:	4618      	mov	r0, r3
 8001a98:	f002 ffc2 	bl	8004a20 <USB_ActivateSetup>
      hpcd->Init.speed = USB_GetDevSpeed(hpcd->Instance);
 8001a9c:	687b      	ldr	r3, [r7, #4]
 8001a9e:	681b      	ldr	r3, [r3, #0]
 8001aa0:	4618      	mov	r0, r3
 8001aa2:	f002 f862 	bl	8003b6a <USB_GetDevSpeed>
 8001aa6:	4603      	mov	r3, r0
 8001aa8:	461a      	mov	r2, r3
 8001aaa:	687b      	ldr	r3, [r7, #4]
 8001aac:	60da      	str	r2, [r3, #12]

      /* Set USB Turnaround time */
      (void)USB_SetTurnaroundTime(hpcd->Instance,
 8001aae:	687b      	ldr	r3, [r7, #4]
 8001ab0:	681c      	ldr	r4, [r3, #0]
 8001ab2:	f001 f947 	bl	8002d44 <HAL_RCC_GetHCLKFreq>
 8001ab6:	4601      	mov	r1, r0
                                  HAL_RCC_GetHCLKFreq(),
                                  (uint8_t)hpcd->Init.speed);
 8001ab8:	687b      	ldr	r3, [r7, #4]
 8001aba:	68db      	ldr	r3, [r3, #12]
      (void)USB_SetTurnaroundTime(hpcd->Instance,
 8001abc:	b2db      	uxtb	r3, r3
 8001abe:	461a      	mov	r2, r3
 8001ac0:	4620      	mov	r0, r4
 8001ac2:	f001 fd9f 	bl	8003604 <USB_SetTurnaroundTime>

#if (USE_HAL_PCD_REGISTER_CALLBACKS == 1U)
      hpcd->ResetCallback(hpcd);
#else
      HAL_PCD_ResetCallback(hpcd);
 8001ac6:	6878      	ldr	r0, [r7, #4]
 8001ac8:	f004 ff6f 	bl	80069aa <HAL_PCD_ResetCallback>
#endif /* USE_HAL_PCD_REGISTER_CALLBACKS */

      __HAL_PCD_CLEAR_FLAG(hpcd, USB_OTG_GINTSTS_ENUMDNE);
 8001acc:	687b      	ldr	r3, [r7, #4]
 8001ace:	681b      	ldr	r3, [r3, #0]
 8001ad0:	695a      	ldr	r2, [r3, #20]
 8001ad2:	687b      	ldr	r3, [r7, #4]
 8001ad4:	681b      	ldr	r3, [r3, #0]
 8001ad6:	f402 5200 	and.w	r2, r2, #8192	; 0x2000
 8001ada:	615a      	str	r2, [r3, #20]
    }

    /* Handle SOF Interrupt */
    if (__HAL_PCD_GET_FLAG(hpcd, USB_OTG_GINTSTS_SOF))
 8001adc:	687b      	ldr	r3, [r7, #4]
 8001ade:	681b      	ldr	r3, [r3, #0]
 8001ae0:	4618      	mov	r0, r3
 8001ae2:	f002 fefc 	bl	80048de <USB_ReadInterrupts>
 8001ae6:	4603      	mov	r3, r0
 8001ae8:	f003 0308 	and.w	r3, r3, #8
 8001aec:	2b08      	cmp	r3, #8
 8001aee:	d10a      	bne.n	8001b06 <HAL_PCD_IRQHandler+0x686>
    {
#if (USE_HAL_PCD_REGISTER_CALLBACKS == 1U)
      hpcd->SOFCallback(hpcd);
#else
      HAL_PCD_SOFCallback(hpcd);
 8001af0:	6878      	ldr	r0, [r7, #4]
 8001af2:	f004 ff4c 	bl	800698e <HAL_PCD_SOFCallback>
#endif /* USE_HAL_PCD_REGISTER_CALLBACKS */

      __HAL_PCD_CLEAR_FLAG(hpcd, USB_OTG_GINTSTS_SOF);
 8001af6:	687b      	ldr	r3, [r7, #4]
 8001af8:	681b      	ldr	r3, [r3, #0]
 8001afa:	695a      	ldr	r2, [r3, #20]
 8001afc:	687b      	ldr	r3, [r7, #4]
 8001afe:	681b      	ldr	r3, [r3, #0]
 8001b00:	f002 0208 	and.w	r2, r2, #8
 8001b04:	615a      	str	r2, [r3, #20]
    }

    /* Handle Incomplete ISO IN Interrupt */
    if (__HAL_PCD_GET_FLAG(hpcd, USB_OTG_GINTSTS_IISOIXFR))
 8001b06:	687b      	ldr	r3, [r7, #4]
 8001b08:	681b      	ldr	r3, [r3, #0]
 8001b0a:	4618      	mov	r0, r3
 8001b0c:	f002 fee7 	bl	80048de <USB_ReadInterrupts>
 8001b10:	4603      	mov	r3, r0
 8001b12:	f403 1380 	and.w	r3, r3, #1048576	; 0x100000
 8001b16:	f5b3 1f80 	cmp.w	r3, #1048576	; 0x100000
 8001b1a:	d10f      	bne.n	8001b3c <HAL_PCD_IRQHandler+0x6bc>
    {
      /* Keep application checking the corresponding Iso IN endpoint
      causing the incomplete Interrupt */
      epnum = 0U;
 8001b1c:	2300      	movs	r3, #0
 8001b1e:	627b      	str	r3, [r7, #36]	; 0x24

#if (USE_HAL_PCD_REGISTER_CALLBACKS == 1U)
      hpcd->ISOINIncompleteCallback(hpcd, (uint8_t)epnum);
#else
      HAL_PCD_ISOINIncompleteCallback(hpcd, (uint8_t)epnum);
 8001b20:	6a7b      	ldr	r3, [r7, #36]	; 0x24
 8001b22:	b2db      	uxtb	r3, r3
 8001b24:	4619      	mov	r1, r3
 8001b26:	6878      	ldr	r0, [r7, #4]
 8001b28:	f004 ffae 	bl	8006a88 <HAL_PCD_ISOINIncompleteCallback>
#endif /* USE_HAL_PCD_REGISTER_CALLBACKS */

      __HAL_PCD_CLEAR_FLAG(hpcd, USB_OTG_GINTSTS_IISOIXFR);
 8001b2c:	687b      	ldr	r3, [r7, #4]
 8001b2e:	681b      	ldr	r3, [r3, #0]
 8001b30:	695a      	ldr	r2, [r3, #20]
 8001b32:	687b      	ldr	r3, [r7, #4]
 8001b34:	681b      	ldr	r3, [r3, #0]
 8001b36:	f402 1280 	and.w	r2, r2, #1048576	; 0x100000
 8001b3a:	615a      	str	r2, [r3, #20]
    }

    /* Handle Incomplete ISO OUT Interrupt */
    if (__HAL_PCD_GET_FLAG(hpcd, USB_OTG_GINTSTS_PXFR_INCOMPISOOUT))
 8001b3c:	687b      	ldr	r3, [r7, #4]
 8001b3e:	681b      	ldr	r3, [r3, #0]
 8001b40:	4618      	mov	r0, r3
 8001b42:	f002 fecc 	bl	80048de <USB_ReadInterrupts>
 8001b46:	4603      	mov	r3, r0
 8001b48:	f403 1300 	and.w	r3, r3, #2097152	; 0x200000
 8001b4c:	f5b3 1f00 	cmp.w	r3, #2097152	; 0x200000
 8001b50:	d10f      	bne.n	8001b72 <HAL_PCD_IRQHandler+0x6f2>
    {
      /* Keep application checking the corresponding Iso OUT endpoint
      causing the incomplete Interrupt */
      epnum = 0U;
 8001b52:	2300      	movs	r3, #0
 8001b54:	627b      	str	r3, [r7, #36]	; 0x24

#if (USE_HAL_PCD_REGISTER_CALLBACKS == 1U)
      hpcd->ISOOUTIncompleteCallback(hpcd, (uint8_t)epnum);
#else
      HAL_PCD_ISOOUTIncompleteCallback(hpcd, (uint8_t)epnum);
 8001b56:	6a7b      	ldr	r3, [r7, #36]	; 0x24
 8001b58:	b2db      	uxtb	r3, r3
 8001b5a:	4619      	mov	r1, r3
 8001b5c:	6878      	ldr	r0, [r7, #4]
 8001b5e:	f004 ff81 	bl	8006a64 <HAL_PCD_ISOOUTIncompleteCallback>
#endif /* USE_HAL_PCD_REGISTER_CALLBACKS */

      __HAL_PCD_CLEAR_FLAG(hpcd, USB_OTG_GINTSTS_PXFR_INCOMPISOOUT);
 8001b62:	687b      	ldr	r3, [r7, #4]
 8001b64:	681b      	ldr	r3, [r3, #0]
 8001b66:	695a      	ldr	r2, [r3, #20]
 8001b68:	687b      	ldr	r3, [r7, #4]
 8001b6a:	681b      	ldr	r3, [r3, #0]
 8001b6c:	f402 1200 	and.w	r2, r2, #2097152	; 0x200000
 8001b70:	615a      	str	r2, [r3, #20]
    }

    /* Handle Connection event Interrupt */
    if (__HAL_PCD_GET_FLAG(hpcd, USB_OTG_GINTSTS_SRQINT))
 8001b72:	687b      	ldr	r3, [r7, #4]
 8001b74:	681b      	ldr	r3, [r3, #0]
 8001b76:	4618      	mov	r0, r3
 8001b78:	f002 feb1 	bl	80048de <USB_ReadInterrupts>
 8001b7c:	4603      	mov	r3, r0
 8001b7e:	f003 4380 	and.w	r3, r3, #1073741824	; 0x40000000
 8001b82:	f1b3 4f80 	cmp.w	r3, #1073741824	; 0x40000000
 8001b86:	d10a      	bne.n	8001b9e <HAL_PCD_IRQHandler+0x71e>
    {
#if (USE_HAL_PCD_REGISTER_CALLBACKS == 1U)
      hpcd->ConnectCallback(hpcd);
#else
      HAL_PCD_ConnectCallback(hpcd);
 8001b88:	6878      	ldr	r0, [r7, #4]
 8001b8a:	f004 ff8f 	bl	8006aac <HAL_PCD_ConnectCallback>
#endif /* USE_HAL_PCD_REGISTER_CALLBACKS */

      __HAL_PCD_CLEAR_FLAG(hpcd, USB_OTG_GINTSTS_SRQINT);
 8001b8e:	687b      	ldr	r3, [r7, #4]
 8001b90:	681b      	ldr	r3, [r3, #0]
 8001b92:	695a      	ldr	r2, [r3, #20]
 8001b94:	687b      	ldr	r3, [r7, #4]
 8001b96:	681b      	ldr	r3, [r3, #0]
 8001b98:	f002 4280 	and.w	r2, r2, #1073741824	; 0x40000000
 8001b9c:	615a      	str	r2, [r3, #20]
    }

    /* Handle Disconnection event Interrupt */
    if (__HAL_PCD_GET_FLAG(hpcd, USB_OTG_GINTSTS_OTGINT))
 8001b9e:	687b      	ldr	r3, [r7, #4]
 8001ba0:	681b      	ldr	r3, [r3, #0]
 8001ba2:	4618      	mov	r0, r3
 8001ba4:	f002 fe9b 	bl	80048de <USB_ReadInterrupts>
 8001ba8:	4603      	mov	r3, r0
 8001baa:	f003 0304 	and.w	r3, r3, #4
 8001bae:	2b04      	cmp	r3, #4
 8001bb0:	d115      	bne.n	8001bde <HAL_PCD_IRQHandler+0x75e>
    {
      temp = hpcd->Instance->GOTGINT;
 8001bb2:	687b      	ldr	r3, [r7, #4]
 8001bb4:	681b      	ldr	r3, [r3, #0]
 8001bb6:	685b      	ldr	r3, [r3, #4]
 8001bb8:	61bb      	str	r3, [r7, #24]

      if ((temp & USB_OTG_GOTGINT_SEDET) == USB_OTG_GOTGINT_SEDET)
 8001bba:	69bb      	ldr	r3, [r7, #24]
 8001bbc:	f003 0304 	and.w	r3, r3, #4
 8001bc0:	2b00      	cmp	r3, #0
 8001bc2:	d002      	beq.n	8001bca <HAL_PCD_IRQHandler+0x74a>
      {
#if (USE_HAL_PCD_REGISTER_CALLBACKS == 1U)
        hpcd->DisconnectCallback(hpcd);
#else
        HAL_PCD_DisconnectCallback(hpcd);
 8001bc4:	6878      	ldr	r0, [r7, #4]
 8001bc6:	f004 ff7f 	bl	8006ac8 <HAL_PCD_DisconnectCallback>
#endif /* USE_HAL_PCD_REGISTER_CALLBACKS */
      }
      hpcd->Instance->GOTGINT |= temp;
 8001bca:	687b      	ldr	r3, [r7, #4]
 8001bcc:	681b      	ldr	r3, [r3, #0]
 8001bce:	6859      	ldr	r1, [r3, #4]
 8001bd0:	687b      	ldr	r3, [r7, #4]
 8001bd2:	681b      	ldr	r3, [r3, #0]
 8001bd4:	69ba      	ldr	r2, [r7, #24]
 8001bd6:	430a      	orrs	r2, r1
 8001bd8:	605a      	str	r2, [r3, #4]
 8001bda:	e000      	b.n	8001bde <HAL_PCD_IRQHandler+0x75e>
      return;
 8001bdc:	bf00      	nop
    }
  }
}
 8001bde:	3734      	adds	r7, #52	; 0x34
 8001be0:	46bd      	mov	sp, r7
 8001be2:	bd90      	pop	{r4, r7, pc}

08001be4 <HAL_PCD_SetAddress>:
  * @param  hpcd PCD handle
  * @param  address new device address
  * @retval HAL status
  */
HAL_StatusTypeDef HAL_PCD_SetAddress(PCD_HandleTypeDef *hpcd, uint8_t address)
{
 8001be4:	b580      	push	{r7, lr}
 8001be6:	b082      	sub	sp, #8
 8001be8:	af00      	add	r7, sp, #0
 8001bea:	6078      	str	r0, [r7, #4]
 8001bec:	460b      	mov	r3, r1
 8001bee:	70fb      	strb	r3, [r7, #3]
  __HAL_LOCK(hpcd);
 8001bf0:	687b      	ldr	r3, [r7, #4]
 8001bf2:	f893 33bc 	ldrb.w	r3, [r3, #956]	; 0x3bc
 8001bf6:	2b01      	cmp	r3, #1
 8001bf8:	d101      	bne.n	8001bfe <HAL_PCD_SetAddress+0x1a>
 8001bfa:	2302      	movs	r3, #2
 8001bfc:	e013      	b.n	8001c26 <HAL_PCD_SetAddress+0x42>
 8001bfe:	687b      	ldr	r3, [r7, #4]
 8001c00:	2201      	movs	r2, #1
 8001c02:	f883 23bc 	strb.w	r2, [r3, #956]	; 0x3bc
  hpcd->USB_Address = address;
 8001c06:	687b      	ldr	r3, [r7, #4]
 8001c08:	78fa      	ldrb	r2, [r7, #3]
 8001c0a:	f883 2038 	strb.w	r2, [r3, #56]	; 0x38
  (void)USB_SetDevAddress(hpcd->Instance, address);
 8001c0e:	687b      	ldr	r3, [r7, #4]
 8001c10:	681b      	ldr	r3, [r3, #0]
 8001c12:	78fa      	ldrb	r2, [r7, #3]
 8001c14:	4611      	mov	r1, r2
 8001c16:	4618      	mov	r0, r3
 8001c18:	f002 fdf9 	bl	800480e <USB_SetDevAddress>
  __HAL_UNLOCK(hpcd);
 8001c1c:	687b      	ldr	r3, [r7, #4]
 8001c1e:	2200      	movs	r2, #0
 8001c20:	f883 23bc 	strb.w	r2, [r3, #956]	; 0x3bc

  return HAL_OK;
 8001c24:	2300      	movs	r3, #0
}
 8001c26:	4618      	mov	r0, r3
 8001c28:	3708      	adds	r7, #8
 8001c2a:	46bd      	mov	sp, r7
 8001c2c:	bd80      	pop	{r7, pc}

08001c2e <HAL_PCD_EP_Open>:
  * @param  ep_type endpoint type
  * @retval HAL status
  */
HAL_StatusTypeDef HAL_PCD_EP_Open(PCD_HandleTypeDef *hpcd, uint8_t ep_addr,
                                  uint16_t ep_mps, uint8_t ep_type)
{
 8001c2e:	b580      	push	{r7, lr}
 8001c30:	b084      	sub	sp, #16
 8001c32:	af00      	add	r7, sp, #0
 8001c34:	6078      	str	r0, [r7, #4]
 8001c36:	4608      	mov	r0, r1
 8001c38:	4611      	mov	r1, r2
 8001c3a:	461a      	mov	r2, r3
 8001c3c:	4603      	mov	r3, r0
 8001c3e:	70fb      	strb	r3, [r7, #3]
 8001c40:	460b      	mov	r3, r1
 8001c42:	803b      	strh	r3, [r7, #0]
 8001c44:	4613      	mov	r3, r2
 8001c46:	70bb      	strb	r3, [r7, #2]
  HAL_StatusTypeDef  ret = HAL_OK;
 8001c48:	2300      	movs	r3, #0
 8001c4a:	72fb      	strb	r3, [r7, #11]
  PCD_EPTypeDef *ep;

  if ((ep_addr & 0x80U) == 0x80U)
 8001c4c:	f997 3003 	ldrsb.w	r3, [r7, #3]
 8001c50:	2b00      	cmp	r3, #0
 8001c52:	da0f      	bge.n	8001c74 <HAL_PCD_EP_Open+0x46>
  {
    ep = &hpcd->IN_ep[ep_addr & EP_ADDR_MSK];
 8001c54:	78fb      	ldrb	r3, [r7, #3]
 8001c56:	f003 020f 	and.w	r2, r3, #15
 8001c5a:	4613      	mov	r3, r2
 8001c5c:	00db      	lsls	r3, r3, #3
 8001c5e:	1a9b      	subs	r3, r3, r2
 8001c60:	009b      	lsls	r3, r3, #2
 8001c62:	3338      	adds	r3, #56	; 0x38
 8001c64:	687a      	ldr	r2, [r7, #4]
 8001c66:	4413      	add	r3, r2
 8001c68:	3304      	adds	r3, #4
 8001c6a:	60fb      	str	r3, [r7, #12]
    ep->is_in = 1U;
 8001c6c:	68fb      	ldr	r3, [r7, #12]
 8001c6e:	2201      	movs	r2, #1
 8001c70:	705a      	strb	r2, [r3, #1]
 8001c72:	e00f      	b.n	8001c94 <HAL_PCD_EP_Open+0x66>
  }
  else
  {
    ep = &hpcd->OUT_ep[ep_addr & EP_ADDR_MSK];
 8001c74:	78fb      	ldrb	r3, [r7, #3]
 8001c76:	f003 020f 	and.w	r2, r3, #15
 8001c7a:	4613      	mov	r3, r2
 8001c7c:	00db      	lsls	r3, r3, #3
 8001c7e:	1a9b      	subs	r3, r3, r2
 8001c80:	009b      	lsls	r3, r3, #2
 8001c82:	f503 73fc 	add.w	r3, r3, #504	; 0x1f8
 8001c86:	687a      	ldr	r2, [r7, #4]
 8001c88:	4413      	add	r3, r2
 8001c8a:	3304      	adds	r3, #4
 8001c8c:	60fb      	str	r3, [r7, #12]
    ep->is_in = 0U;
 8001c8e:	68fb      	ldr	r3, [r7, #12]
 8001c90:	2200      	movs	r2, #0
 8001c92:	705a      	strb	r2, [r3, #1]
  }

  ep->num = ep_addr & EP_ADDR_MSK;
 8001c94:	78fb      	ldrb	r3, [r7, #3]
 8001c96:	f003 030f 	and.w	r3, r3, #15
 8001c9a:	b2da      	uxtb	r2, r3
 8001c9c:	68fb      	ldr	r3, [r7, #12]
 8001c9e:	701a      	strb	r2, [r3, #0]
  ep->maxpacket = ep_mps;
 8001ca0:	883a      	ldrh	r2, [r7, #0]
 8001ca2:	68fb      	ldr	r3, [r7, #12]
 8001ca4:	609a      	str	r2, [r3, #8]
  ep->type = ep_type;
 8001ca6:	68fb      	ldr	r3, [r7, #12]
 8001ca8:	78ba      	ldrb	r2, [r7, #2]
 8001caa:	70da      	strb	r2, [r3, #3]

  if (ep->is_in != 0U)
 8001cac:	68fb      	ldr	r3, [r7, #12]
 8001cae:	785b      	ldrb	r3, [r3, #1]
 8001cb0:	2b00      	cmp	r3, #0
 8001cb2:	d004      	beq.n	8001cbe <HAL_PCD_EP_Open+0x90>
  {
    /* Assign a Tx FIFO */
    ep->tx_fifo_num = ep->num;
 8001cb4:	68fb      	ldr	r3, [r7, #12]
 8001cb6:	781b      	ldrb	r3, [r3, #0]
 8001cb8:	b29a      	uxth	r2, r3
 8001cba:	68fb      	ldr	r3, [r7, #12]
 8001cbc:	80da      	strh	r2, [r3, #6]
  }
  /* Set initial data PID. */
  if (ep_type == EP_TYPE_BULK)
 8001cbe:	78bb      	ldrb	r3, [r7, #2]
 8001cc0:	2b02      	cmp	r3, #2
 8001cc2:	d102      	bne.n	8001cca <HAL_PCD_EP_Open+0x9c>
  {
    ep->data_pid_start = 0U;
 8001cc4:	68fb      	ldr	r3, [r7, #12]
 8001cc6:	2200      	movs	r2, #0
 8001cc8:	711a      	strb	r2, [r3, #4]
  }

  __HAL_LOCK(hpcd);
 8001cca:	687b      	ldr	r3, [r7, #4]
 8001ccc:	f893 33bc 	ldrb.w	r3, [r3, #956]	; 0x3bc
 8001cd0:	2b01      	cmp	r3, #1
 8001cd2:	d101      	bne.n	8001cd8 <HAL_PCD_EP_Open+0xaa>
 8001cd4:	2302      	movs	r3, #2
 8001cd6:	e00e      	b.n	8001cf6 <HAL_PCD_EP_Open+0xc8>
 8001cd8:	687b      	ldr	r3, [r7, #4]
 8001cda:	2201      	movs	r2, #1
 8001cdc:	f883 23bc 	strb.w	r2, [r3, #956]	; 0x3bc
  (void)USB_ActivateEndpoint(hpcd->Instance, ep);
 8001ce0:	687b      	ldr	r3, [r7, #4]
 8001ce2:	681b      	ldr	r3, [r3, #0]
 8001ce4:	68f9      	ldr	r1, [r7, #12]
 8001ce6:	4618      	mov	r0, r3
 8001ce8:	f001 ff64 	bl	8003bb4 <USB_ActivateEndpoint>
  __HAL_UNLOCK(hpcd);
 8001cec:	687b      	ldr	r3, [r7, #4]
 8001cee:	2200      	movs	r2, #0
 8001cf0:	f883 23bc 	strb.w	r2, [r3, #956]	; 0x3bc

  return ret;
 8001cf4:	7afb      	ldrb	r3, [r7, #11]
}
 8001cf6:	4618      	mov	r0, r3
 8001cf8:	3710      	adds	r7, #16
 8001cfa:	46bd      	mov	sp, r7
 8001cfc:	bd80      	pop	{r7, pc}

08001cfe <HAL_PCD_EP_Close>:
  * @param  hpcd PCD handle
  * @param  ep_addr endpoint address
  * @retval HAL status
  */
HAL_StatusTypeDef HAL_PCD_EP_Close(PCD_HandleTypeDef *hpcd, uint8_t ep_addr)
{
 8001cfe:	b580      	push	{r7, lr}
 8001d00:	b084      	sub	sp, #16
 8001d02:	af00      	add	r7, sp, #0
 8001d04:	6078      	str	r0, [r7, #4]
 8001d06:	460b      	mov	r3, r1
 8001d08:	70fb      	strb	r3, [r7, #3]
  PCD_EPTypeDef *ep;

  if ((ep_addr & 0x80U) == 0x80U)
 8001d0a:	f997 3003 	ldrsb.w	r3, [r7, #3]
 8001d0e:	2b00      	cmp	r3, #0
 8001d10:	da0f      	bge.n	8001d32 <HAL_PCD_EP_Close+0x34>
  {
    ep = &hpcd->IN_ep[ep_addr & EP_ADDR_MSK];
 8001d12:	78fb      	ldrb	r3, [r7, #3]
 8001d14:	f003 020f 	and.w	r2, r3, #15
 8001d18:	4613      	mov	r3, r2
 8001d1a:	00db      	lsls	r3, r3, #3
 8001d1c:	1a9b      	subs	r3, r3, r2
 8001d1e:	009b      	lsls	r3, r3, #2
 8001d20:	3338      	adds	r3, #56	; 0x38
 8001d22:	687a      	ldr	r2, [r7, #4]
 8001d24:	4413      	add	r3, r2
 8001d26:	3304      	adds	r3, #4
 8001d28:	60fb      	str	r3, [r7, #12]
    ep->is_in = 1U;
 8001d2a:	68fb      	ldr	r3, [r7, #12]
 8001d2c:	2201      	movs	r2, #1
 8001d2e:	705a      	strb	r2, [r3, #1]
 8001d30:	e00f      	b.n	8001d52 <HAL_PCD_EP_Close+0x54>
  }
  else
  {
    ep = &hpcd->OUT_ep[ep_addr & EP_ADDR_MSK];
 8001d32:	78fb      	ldrb	r3, [r7, #3]
 8001d34:	f003 020f 	and.w	r2, r3, #15
 8001d38:	4613      	mov	r3, r2
 8001d3a:	00db      	lsls	r3, r3, #3
 8001d3c:	1a9b      	subs	r3, r3, r2
 8001d3e:	009b      	lsls	r3, r3, #2
 8001d40:	f503 73fc 	add.w	r3, r3, #504	; 0x1f8
 8001d44:	687a      	ldr	r2, [r7, #4]
 8001d46:	4413      	add	r3, r2
 8001d48:	3304      	adds	r3, #4
 8001d4a:	60fb      	str	r3, [r7, #12]
    ep->is_in = 0U;
 8001d4c:	68fb      	ldr	r3, [r7, #12]
 8001d4e:	2200      	movs	r2, #0
 8001d50:	705a      	strb	r2, [r3, #1]
  }
  ep->num   = ep_addr & EP_ADDR_MSK;
 8001d52:	78fb      	ldrb	r3, [r7, #3]
 8001d54:	f003 030f 	and.w	r3, r3, #15
 8001d58:	b2da      	uxtb	r2, r3
 8001d5a:	68fb      	ldr	r3, [r7, #12]
 8001d5c:	701a      	strb	r2, [r3, #0]

  __HAL_LOCK(hpcd);
 8001d5e:	687b      	ldr	r3, [r7, #4]
 8001d60:	f893 33bc 	ldrb.w	r3, [r3, #956]	; 0x3bc
 8001d64:	2b01      	cmp	r3, #1
 8001d66:	d101      	bne.n	8001d6c <HAL_PCD_EP_Close+0x6e>
 8001d68:	2302      	movs	r3, #2
 8001d6a:	e00e      	b.n	8001d8a <HAL_PCD_EP_Close+0x8c>
 8001d6c:	687b      	ldr	r3, [r7, #4]
 8001d6e:	2201      	movs	r2, #1
 8001d70:	f883 23bc 	strb.w	r2, [r3, #956]	; 0x3bc
  (void)USB_DeactivateEndpoint(hpcd->Instance, ep);
 8001d74:	687b      	ldr	r3, [r7, #4]
 8001d76:	681b      	ldr	r3, [r3, #0]
 8001d78:	68f9      	ldr	r1, [r7, #12]
 8001d7a:	4618      	mov	r0, r3
 8001d7c:	f001 ffa2 	bl	8003cc4 <USB_DeactivateEndpoint>
  __HAL_UNLOCK(hpcd);
 8001d80:	687b      	ldr	r3, [r7, #4]
 8001d82:	2200      	movs	r2, #0
 8001d84:	f883 23bc 	strb.w	r2, [r3, #956]	; 0x3bc
  return HAL_OK;
 8001d88:	2300      	movs	r3, #0
}
 8001d8a:	4618      	mov	r0, r3
 8001d8c:	3710      	adds	r7, #16
 8001d8e:	46bd      	mov	sp, r7
 8001d90:	bd80      	pop	{r7, pc}

08001d92 <HAL_PCD_EP_Receive>:
  * @param  pBuf pointer to the reception buffer
  * @param  len amount of data to be received
  * @retval HAL status
  */
HAL_StatusTypeDef HAL_PCD_EP_Receive(PCD_HandleTypeDef *hpcd, uint8_t ep_addr, uint8_t *pBuf, uint32_t len)
{
 8001d92:	b580      	push	{r7, lr}
 8001d94:	b086      	sub	sp, #24
 8001d96:	af00      	add	r7, sp, #0
 8001d98:	60f8      	str	r0, [r7, #12]
 8001d9a:	607a      	str	r2, [r7, #4]
 8001d9c:	603b      	str	r3, [r7, #0]
 8001d9e:	460b      	mov	r3, r1
 8001da0:	72fb      	strb	r3, [r7, #11]
  PCD_EPTypeDef *ep;

  ep = &hpcd->OUT_ep[ep_addr & EP_ADDR_MSK];
 8001da2:	7afb      	ldrb	r3, [r7, #11]
 8001da4:	f003 020f 	and.w	r2, r3, #15
 8001da8:	4613      	mov	r3, r2
 8001daa:	00db      	lsls	r3, r3, #3
 8001dac:	1a9b      	subs	r3, r3, r2
 8001dae:	009b      	lsls	r3, r3, #2
 8001db0:	f503 73fc 	add.w	r3, r3, #504	; 0x1f8
 8001db4:	68fa      	ldr	r2, [r7, #12]
 8001db6:	4413      	add	r3, r2
 8001db8:	3304      	adds	r3, #4
 8001dba:	617b      	str	r3, [r7, #20]

  /*setup and start the Xfer */
  ep->xfer_buff = pBuf;
 8001dbc:	697b      	ldr	r3, [r7, #20]
 8001dbe:	687a      	ldr	r2, [r7, #4]
 8001dc0:	60da      	str	r2, [r3, #12]
  ep->xfer_len = len;
 8001dc2:	697b      	ldr	r3, [r7, #20]
 8001dc4:	683a      	ldr	r2, [r7, #0]
 8001dc6:	615a      	str	r2, [r3, #20]
  ep->xfer_count = 0U;
 8001dc8:	697b      	ldr	r3, [r7, #20]
 8001dca:	2200      	movs	r2, #0
 8001dcc:	619a      	str	r2, [r3, #24]
  ep->is_in = 0U;
 8001dce:	697b      	ldr	r3, [r7, #20]
 8001dd0:	2200      	movs	r2, #0
 8001dd2:	705a      	strb	r2, [r3, #1]
  ep->num = ep_addr & EP_ADDR_MSK;
 8001dd4:	7afb      	ldrb	r3, [r7, #11]
 8001dd6:	f003 030f 	and.w	r3, r3, #15
 8001dda:	b2da      	uxtb	r2, r3
 8001ddc:	697b      	ldr	r3, [r7, #20]
 8001dde:	701a      	strb	r2, [r3, #0]

  if (hpcd->Init.dma_enable == 1U)
 8001de0:	68fb      	ldr	r3, [r7, #12]
 8001de2:	691b      	ldr	r3, [r3, #16]
 8001de4:	2b01      	cmp	r3, #1
 8001de6:	d102      	bne.n	8001dee <HAL_PCD_EP_Receive+0x5c>
  {
    ep->dma_addr = (uint32_t)pBuf;
 8001de8:	687a      	ldr	r2, [r7, #4]
 8001dea:	697b      	ldr	r3, [r7, #20]
 8001dec:	611a      	str	r2, [r3, #16]
  }

  if ((ep_addr & EP_ADDR_MSK) == 0U)
 8001dee:	7afb      	ldrb	r3, [r7, #11]
 8001df0:	f003 030f 	and.w	r3, r3, #15
 8001df4:	2b00      	cmp	r3, #0
 8001df6:	d109      	bne.n	8001e0c <HAL_PCD_EP_Receive+0x7a>
  {
    (void)USB_EP0StartXfer(hpcd->Instance, ep, (uint8_t)hpcd->Init.dma_enable);
 8001df8:	68fb      	ldr	r3, [r7, #12]
 8001dfa:	6818      	ldr	r0, [r3, #0]
 8001dfc:	68fb      	ldr	r3, [r7, #12]
 8001dfe:	691b      	ldr	r3, [r3, #16]
 8001e00:	b2db      	uxtb	r3, r3
 8001e02:	461a      	mov	r2, r3
 8001e04:	6979      	ldr	r1, [r7, #20]
 8001e06:	f002 fa7d 	bl	8004304 <USB_EP0StartXfer>
 8001e0a:	e008      	b.n	8001e1e <HAL_PCD_EP_Receive+0x8c>
  }
  else
  {
    (void)USB_EPStartXfer(hpcd->Instance, ep, (uint8_t)hpcd->Init.dma_enable);
 8001e0c:	68fb      	ldr	r3, [r7, #12]
 8001e0e:	6818      	ldr	r0, [r3, #0]
 8001e10:	68fb      	ldr	r3, [r7, #12]
 8001e12:	691b      	ldr	r3, [r3, #16]
 8001e14:	b2db      	uxtb	r3, r3
 8001e16:	461a      	mov	r2, r3
 8001e18:	6979      	ldr	r1, [r7, #20]
 8001e1a:	f002 f82f 	bl	8003e7c <USB_EPStartXfer>
  }

  return HAL_OK;
 8001e1e:	2300      	movs	r3, #0
}
 8001e20:	4618      	mov	r0, r3
 8001e22:	3718      	adds	r7, #24
 8001e24:	46bd      	mov	sp, r7
 8001e26:	bd80      	pop	{r7, pc}

08001e28 <HAL_PCD_EP_GetRxCount>:
  * @param  hpcd PCD handle
  * @param  ep_addr endpoint address
  * @retval Data Size
  */
uint32_t HAL_PCD_EP_GetRxCount(PCD_HandleTypeDef *hpcd, uint8_t ep_addr)
{
 8001e28:	b480      	push	{r7}
 8001e2a:	b083      	sub	sp, #12
 8001e2c:	af00      	add	r7, sp, #0
 8001e2e:	6078      	str	r0, [r7, #4]
 8001e30:	460b      	mov	r3, r1
 8001e32:	70fb      	strb	r3, [r7, #3]
  return hpcd->OUT_ep[ep_addr & EP_ADDR_MSK].xfer_count;
 8001e34:	78fb      	ldrb	r3, [r7, #3]
 8001e36:	f003 020f 	and.w	r2, r3, #15
 8001e3a:	6879      	ldr	r1, [r7, #4]
 8001e3c:	4613      	mov	r3, r2
 8001e3e:	00db      	lsls	r3, r3, #3
 8001e40:	1a9b      	subs	r3, r3, r2
 8001e42:	009b      	lsls	r3, r3, #2
 8001e44:	440b      	add	r3, r1
 8001e46:	f503 7305 	add.w	r3, r3, #532	; 0x214
 8001e4a:	681b      	ldr	r3, [r3, #0]
}
 8001e4c:	4618      	mov	r0, r3
 8001e4e:	370c      	adds	r7, #12
 8001e50:	46bd      	mov	sp, r7
 8001e52:	f85d 7b04 	ldr.w	r7, [sp], #4
 8001e56:	4770      	bx	lr

08001e58 <HAL_PCD_EP_Transmit>:
  * @param  pBuf pointer to the transmission buffer
  * @param  len amount of data to be sent
  * @retval HAL status
  */
HAL_StatusTypeDef HAL_PCD_EP_Transmit(PCD_HandleTypeDef *hpcd, uint8_t ep_addr, uint8_t *pBuf, uint32_t len)
{
 8001e58:	b580      	push	{r7, lr}
 8001e5a:	b086      	sub	sp, #24
 8001e5c:	af00      	add	r7, sp, #0
 8001e5e:	60f8      	str	r0, [r7, #12]
 8001e60:	607a      	str	r2, [r7, #4]
 8001e62:	603b      	str	r3, [r7, #0]
 8001e64:	460b      	mov	r3, r1
 8001e66:	72fb      	strb	r3, [r7, #11]
  PCD_EPTypeDef *ep;

  ep = &hpcd->IN_ep[ep_addr & EP_ADDR_MSK];
 8001e68:	7afb      	ldrb	r3, [r7, #11]
 8001e6a:	f003 020f 	and.w	r2, r3, #15
 8001e6e:	4613      	mov	r3, r2
 8001e70:	00db      	lsls	r3, r3, #3
 8001e72:	1a9b      	subs	r3, r3, r2
 8001e74:	009b      	lsls	r3, r3, #2
 8001e76:	3338      	adds	r3, #56	; 0x38
 8001e78:	68fa      	ldr	r2, [r7, #12]
 8001e7a:	4413      	add	r3, r2
 8001e7c:	3304      	adds	r3, #4
 8001e7e:	617b      	str	r3, [r7, #20]

  /*setup and start the Xfer */
  ep->xfer_buff = pBuf;
 8001e80:	697b      	ldr	r3, [r7, #20]
 8001e82:	687a      	ldr	r2, [r7, #4]
 8001e84:	60da      	str	r2, [r3, #12]
  ep->xfer_len = len;
 8001e86:	697b      	ldr	r3, [r7, #20]
 8001e88:	683a      	ldr	r2, [r7, #0]
 8001e8a:	615a      	str	r2, [r3, #20]
  ep->xfer_count = 0U;
 8001e8c:	697b      	ldr	r3, [r7, #20]
 8001e8e:	2200      	movs	r2, #0
 8001e90:	619a      	str	r2, [r3, #24]
  ep->is_in = 1U;
 8001e92:	697b      	ldr	r3, [r7, #20]
 8001e94:	2201      	movs	r2, #1
 8001e96:	705a      	strb	r2, [r3, #1]
  ep->num = ep_addr & EP_ADDR_MSK;
 8001e98:	7afb      	ldrb	r3, [r7, #11]
 8001e9a:	f003 030f 	and.w	r3, r3, #15
 8001e9e:	b2da      	uxtb	r2, r3
 8001ea0:	697b      	ldr	r3, [r7, #20]
 8001ea2:	701a      	strb	r2, [r3, #0]

  if (hpcd->Init.dma_enable == 1U)
 8001ea4:	68fb      	ldr	r3, [r7, #12]
 8001ea6:	691b      	ldr	r3, [r3, #16]
 8001ea8:	2b01      	cmp	r3, #1
 8001eaa:	d102      	bne.n	8001eb2 <HAL_PCD_EP_Transmit+0x5a>
  {
    ep->dma_addr = (uint32_t)pBuf;
 8001eac:	687a      	ldr	r2, [r7, #4]
 8001eae:	697b      	ldr	r3, [r7, #20]
 8001eb0:	611a      	str	r2, [r3, #16]
  }

  if ((ep_addr & EP_ADDR_MSK) == 0U)
 8001eb2:	7afb      	ldrb	r3, [r7, #11]
 8001eb4:	f003 030f 	and.w	r3, r3, #15
 8001eb8:	2b00      	cmp	r3, #0
 8001eba:	d109      	bne.n	8001ed0 <HAL_PCD_EP_Transmit+0x78>
  {
    (void)USB_EP0StartXfer(hpcd->Instance, ep, (uint8_t)hpcd->Init.dma_enable);
 8001ebc:	68fb      	ldr	r3, [r7, #12]
 8001ebe:	6818      	ldr	r0, [r3, #0]
 8001ec0:	68fb      	ldr	r3, [r7, #12]
 8001ec2:	691b      	ldr	r3, [r3, #16]
 8001ec4:	b2db      	uxtb	r3, r3
 8001ec6:	461a      	mov	r2, r3
 8001ec8:	6979      	ldr	r1, [r7, #20]
 8001eca:	f002 fa1b 	bl	8004304 <USB_EP0StartXfer>
 8001ece:	e008      	b.n	8001ee2 <HAL_PCD_EP_Transmit+0x8a>
  }
  else
  {
    (void)USB_EPStartXfer(hpcd->Instance, ep, (uint8_t)hpcd->Init.dma_enable);
 8001ed0:	68fb      	ldr	r3, [r7, #12]
 8001ed2:	6818      	ldr	r0, [r3, #0]
 8001ed4:	68fb      	ldr	r3, [r7, #12]
 8001ed6:	691b      	ldr	r3, [r3, #16]
 8001ed8:	b2db      	uxtb	r3, r3
 8001eda:	461a      	mov	r2, r3
 8001edc:	6979      	ldr	r1, [r7, #20]
 8001ede:	f001 ffcd 	bl	8003e7c <USB_EPStartXfer>
  }

  return HAL_OK;
 8001ee2:	2300      	movs	r3, #0
}
 8001ee4:	4618      	mov	r0, r3
 8001ee6:	3718      	adds	r7, #24
 8001ee8:	46bd      	mov	sp, r7
 8001eea:	bd80      	pop	{r7, pc}

08001eec <HAL_PCD_EP_SetStall>:
  * @param  hpcd PCD handle
  * @param  ep_addr endpoint address
  * @retval HAL status
  */
HAL_StatusTypeDef HAL_PCD_EP_SetStall(PCD_HandleTypeDef *hpcd, uint8_t ep_addr)
{
 8001eec:	b580      	push	{r7, lr}
 8001eee:	b084      	sub	sp, #16
 8001ef0:	af00      	add	r7, sp, #0
 8001ef2:	6078      	str	r0, [r7, #4]
 8001ef4:	460b      	mov	r3, r1
 8001ef6:	70fb      	strb	r3, [r7, #3]
  PCD_EPTypeDef *ep;

  if (((uint32_t)ep_addr & EP_ADDR_MSK) > hpcd->Init.dev_endpoints)
 8001ef8:	78fb      	ldrb	r3, [r7, #3]
 8001efa:	f003 020f 	and.w	r2, r3, #15
 8001efe:	687b      	ldr	r3, [r7, #4]
 8001f00:	685b      	ldr	r3, [r3, #4]
 8001f02:	429a      	cmp	r2, r3
 8001f04:	d901      	bls.n	8001f0a <HAL_PCD_EP_SetStall+0x1e>
  {
    return HAL_ERROR;
 8001f06:	2301      	movs	r3, #1
 8001f08:	e050      	b.n	8001fac <HAL_PCD_EP_SetStall+0xc0>
  }

  if ((0x80U & ep_addr) == 0x80U)
 8001f0a:	f997 3003 	ldrsb.w	r3, [r7, #3]
 8001f0e:	2b00      	cmp	r3, #0
 8001f10:	da0f      	bge.n	8001f32 <HAL_PCD_EP_SetStall+0x46>
  {
    ep = &hpcd->IN_ep[ep_addr & EP_ADDR_MSK];
 8001f12:	78fb      	ldrb	r3, [r7, #3]
 8001f14:	f003 020f 	and.w	r2, r3, #15
 8001f18:	4613      	mov	r3, r2
 8001f1a:	00db      	lsls	r3, r3, #3
 8001f1c:	1a9b      	subs	r3, r3, r2
 8001f1e:	009b      	lsls	r3, r3, #2
 8001f20:	3338      	adds	r3, #56	; 0x38
 8001f22:	687a      	ldr	r2, [r7, #4]
 8001f24:	4413      	add	r3, r2
 8001f26:	3304      	adds	r3, #4
 8001f28:	60fb      	str	r3, [r7, #12]
    ep->is_in = 1U;
 8001f2a:	68fb      	ldr	r3, [r7, #12]
 8001f2c:	2201      	movs	r2, #1
 8001f2e:	705a      	strb	r2, [r3, #1]
 8001f30:	e00d      	b.n	8001f4e <HAL_PCD_EP_SetStall+0x62>
  }
  else
  {
    ep = &hpcd->OUT_ep[ep_addr];
 8001f32:	78fa      	ldrb	r2, [r7, #3]
 8001f34:	4613      	mov	r3, r2
 8001f36:	00db      	lsls	r3, r3, #3
 8001f38:	1a9b      	subs	r3, r3, r2
 8001f3a:	009b      	lsls	r3, r3, #2
 8001f3c:	f503 73fc 	add.w	r3, r3, #504	; 0x1f8
 8001f40:	687a      	ldr	r2, [r7, #4]
 8001f42:	4413      	add	r3, r2
 8001f44:	3304      	adds	r3, #4
 8001f46:	60fb      	str	r3, [r7, #12]
    ep->is_in = 0U;
 8001f48:	68fb      	ldr	r3, [r7, #12]
 8001f4a:	2200      	movs	r2, #0
 8001f4c:	705a      	strb	r2, [r3, #1]
  }

  ep->is_stall = 1U;
 8001f4e:	68fb      	ldr	r3, [r7, #12]
 8001f50:	2201      	movs	r2, #1
 8001f52:	709a      	strb	r2, [r3, #2]
  ep->num = ep_addr & EP_ADDR_MSK;
 8001f54:	78fb      	ldrb	r3, [r7, #3]
 8001f56:	f003 030f 	and.w	r3, r3, #15
 8001f5a:	b2da      	uxtb	r2, r3
 8001f5c:	68fb      	ldr	r3, [r7, #12]
 8001f5e:	701a      	strb	r2, [r3, #0]

  __HAL_LOCK(hpcd);
 8001f60:	687b      	ldr	r3, [r7, #4]
 8001f62:	f893 33bc 	ldrb.w	r3, [r3, #956]	; 0x3bc
 8001f66:	2b01      	cmp	r3, #1
 8001f68:	d101      	bne.n	8001f6e <HAL_PCD_EP_SetStall+0x82>
 8001f6a:	2302      	movs	r3, #2
 8001f6c:	e01e      	b.n	8001fac <HAL_PCD_EP_SetStall+0xc0>
 8001f6e:	687b      	ldr	r3, [r7, #4]
 8001f70:	2201      	movs	r2, #1
 8001f72:	f883 23bc 	strb.w	r2, [r3, #956]	; 0x3bc

  (void)USB_EPSetStall(hpcd->Instance, ep);
 8001f76:	687b      	ldr	r3, [r7, #4]
 8001f78:	681b      	ldr	r3, [r3, #0]
 8001f7a:	68f9      	ldr	r1, [r7, #12]
 8001f7c:	4618      	mov	r0, r3
 8001f7e:	f002 fb72 	bl	8004666 <USB_EPSetStall>

  if ((ep_addr & EP_ADDR_MSK) == 0U)
 8001f82:	78fb      	ldrb	r3, [r7, #3]
 8001f84:	f003 030f 	and.w	r3, r3, #15
 8001f88:	2b00      	cmp	r3, #0
 8001f8a:	d10a      	bne.n	8001fa2 <HAL_PCD_EP_SetStall+0xb6>
  {
    (void)USB_EP0_OutStart(hpcd->Instance, (uint8_t)hpcd->Init.dma_enable, (uint8_t *)hpcd->Setup);
 8001f8c:	687b      	ldr	r3, [r7, #4]
 8001f8e:	6818      	ldr	r0, [r3, #0]
 8001f90:	687b      	ldr	r3, [r7, #4]
 8001f92:	691b      	ldr	r3, [r3, #16]
 8001f94:	b2d9      	uxtb	r1, r3
 8001f96:	687b      	ldr	r3, [r7, #4]
 8001f98:	f503 7371 	add.w	r3, r3, #964	; 0x3c4
 8001f9c:	461a      	mov	r2, r3
 8001f9e:	f002 fd63 	bl	8004a68 <USB_EP0_OutStart>
  }

  __HAL_UNLOCK(hpcd);
 8001fa2:	687b      	ldr	r3, [r7, #4]
 8001fa4:	2200      	movs	r2, #0
 8001fa6:	f883 23bc 	strb.w	r2, [r3, #956]	; 0x3bc

  return HAL_OK;
 8001faa:	2300      	movs	r3, #0
}
 8001fac:	4618      	mov	r0, r3
 8001fae:	3710      	adds	r7, #16
 8001fb0:	46bd      	mov	sp, r7
 8001fb2:	bd80      	pop	{r7, pc}

08001fb4 <HAL_PCD_EP_ClrStall>:
  * @param  hpcd PCD handle
  * @param  ep_addr endpoint address
  * @retval HAL status
  */
HAL_StatusTypeDef HAL_PCD_EP_ClrStall(PCD_HandleTypeDef *hpcd, uint8_t ep_addr)
{
 8001fb4:	b580      	push	{r7, lr}
 8001fb6:	b084      	sub	sp, #16
 8001fb8:	af00      	add	r7, sp, #0
 8001fba:	6078      	str	r0, [r7, #4]
 8001fbc:	460b      	mov	r3, r1
 8001fbe:	70fb      	strb	r3, [r7, #3]
  PCD_EPTypeDef *ep;

  if (((uint32_t)ep_addr & 0x0FU) > hpcd->Init.dev_endpoints)
 8001fc0:	78fb      	ldrb	r3, [r7, #3]
 8001fc2:	f003 020f 	and.w	r2, r3, #15
 8001fc6:	687b      	ldr	r3, [r7, #4]
 8001fc8:	685b      	ldr	r3, [r3, #4]
 8001fca:	429a      	cmp	r2, r3
 8001fcc:	d901      	bls.n	8001fd2 <HAL_PCD_EP_ClrStall+0x1e>
  {
    return HAL_ERROR;
 8001fce:	2301      	movs	r3, #1
 8001fd0:	e042      	b.n	8002058 <HAL_PCD_EP_ClrStall+0xa4>
  }

  if ((0x80U & ep_addr) == 0x80U)
 8001fd2:	f997 3003 	ldrsb.w	r3, [r7, #3]
 8001fd6:	2b00      	cmp	r3, #0
 8001fd8:	da0f      	bge.n	8001ffa <HAL_PCD_EP_ClrStall+0x46>
  {
    ep = &hpcd->IN_ep[ep_addr & EP_ADDR_MSK];
 8001fda:	78fb      	ldrb	r3, [r7, #3]
 8001fdc:	f003 020f 	and.w	r2, r3, #15
 8001fe0:	4613      	mov	r3, r2
 8001fe2:	00db      	lsls	r3, r3, #3
 8001fe4:	1a9b      	subs	r3, r3, r2
 8001fe6:	009b      	lsls	r3, r3, #2
 8001fe8:	3338      	adds	r3, #56	; 0x38
 8001fea:	687a      	ldr	r2, [r7, #4]
 8001fec:	4413      	add	r3, r2
 8001fee:	3304      	adds	r3, #4
 8001ff0:	60fb      	str	r3, [r7, #12]
    ep->is_in = 1U;
 8001ff2:	68fb      	ldr	r3, [r7, #12]
 8001ff4:	2201      	movs	r2, #1
 8001ff6:	705a      	strb	r2, [r3, #1]
 8001ff8:	e00f      	b.n	800201a <HAL_PCD_EP_ClrStall+0x66>
  }
  else
  {
    ep = &hpcd->OUT_ep[ep_addr & EP_ADDR_MSK];
 8001ffa:	78fb      	ldrb	r3, [r7, #3]
 8001ffc:	f003 020f 	and.w	r2, r3, #15
 8002000:	4613      	mov	r3, r2
 8002002:	00db      	lsls	r3, r3, #3
 8002004:	1a9b      	subs	r3, r3, r2
 8002006:	009b      	lsls	r3, r3, #2
 8002008:	f503 73fc 	add.w	r3, r3, #504	; 0x1f8
 800200c:	687a      	ldr	r2, [r7, #4]
 800200e:	4413      	add	r3, r2
 8002010:	3304      	adds	r3, #4
 8002012:	60fb      	str	r3, [r7, #12]
    ep->is_in = 0U;
 8002014:	68fb      	ldr	r3, [r7, #12]
 8002016:	2200      	movs	r2, #0
 8002018:	705a      	strb	r2, [r3, #1]
  }

  ep->is_stall = 0U;
 800201a:	68fb      	ldr	r3, [r7, #12]
 800201c:	2200      	movs	r2, #0
 800201e:	709a      	strb	r2, [r3, #2]
  ep->num = ep_addr & EP_ADDR_MSK;
 8002020:	78fb      	ldrb	r3, [r7, #3]
 8002022:	f003 030f 	and.w	r3, r3, #15
 8002026:	b2da      	uxtb	r2, r3
 8002028:	68fb      	ldr	r3, [r7, #12]
 800202a:	701a      	strb	r2, [r3, #0]

  __HAL_LOCK(hpcd);
 800202c:	687b      	ldr	r3, [r7, #4]
 800202e:	f893 33bc 	ldrb.w	r3, [r3, #956]	; 0x3bc
 8002032:	2b01      	cmp	r3, #1
 8002034:	d101      	bne.n	800203a <HAL_PCD_EP_ClrStall+0x86>
 8002036:	2302      	movs	r3, #2
 8002038:	e00e      	b.n	8002058 <HAL_PCD_EP_ClrStall+0xa4>
 800203a:	687b      	ldr	r3, [r7, #4]
 800203c:	2201      	movs	r2, #1
 800203e:	f883 23bc 	strb.w	r2, [r3, #956]	; 0x3bc
  (void)USB_EPClearStall(hpcd->Instance, ep);
 8002042:	687b      	ldr	r3, [r7, #4]
 8002044:	681b      	ldr	r3, [r3, #0]
 8002046:	68f9      	ldr	r1, [r7, #12]
 8002048:	4618      	mov	r0, r3
 800204a:	f002 fb7a 	bl	8004742 <USB_EPClearStall>
  __HAL_UNLOCK(hpcd);
 800204e:	687b      	ldr	r3, [r7, #4]
 8002050:	2200      	movs	r2, #0
 8002052:	f883 23bc 	strb.w	r2, [r3, #956]	; 0x3bc

  return HAL_OK;
 8002056:	2300      	movs	r3, #0
}
 8002058:	4618      	mov	r0, r3
 800205a:	3710      	adds	r7, #16
 800205c:	46bd      	mov	sp, r7
 800205e:	bd80      	pop	{r7, pc}

08002060 <PCD_WriteEmptyTxFifo>:
  * @param  hpcd PCD handle
  * @param  epnum endpoint number
  * @retval HAL status
  */
static HAL_StatusTypeDef PCD_WriteEmptyTxFifo(PCD_HandleTypeDef *hpcd, uint32_t epnum)
{
 8002060:	b580      	push	{r7, lr}
 8002062:	b08a      	sub	sp, #40	; 0x28
 8002064:	af02      	add	r7, sp, #8
 8002066:	6078      	str	r0, [r7, #4]
 8002068:	6039      	str	r1, [r7, #0]
  USB_OTG_GlobalTypeDef *USBx = hpcd->Instance;
 800206a:	687b      	ldr	r3, [r7, #4]
 800206c:	681b      	ldr	r3, [r3, #0]
 800206e:	617b      	str	r3, [r7, #20]
  uint32_t USBx_BASE = (uint32_t)USBx;
 8002070:	697b      	ldr	r3, [r7, #20]
 8002072:	613b      	str	r3, [r7, #16]
  USB_OTG_EPTypeDef *ep;
  uint32_t len;
  uint32_t len32b;
  uint32_t fifoemptymsk;

  ep = &hpcd->IN_ep[epnum];
 8002074:	683a      	ldr	r2, [r7, #0]
 8002076:	4613      	mov	r3, r2
 8002078:	00db      	lsls	r3, r3, #3
 800207a:	1a9b      	subs	r3, r3, r2
 800207c:	009b      	lsls	r3, r3, #2
 800207e:	3338      	adds	r3, #56	; 0x38
 8002080:	687a      	ldr	r2, [r7, #4]
 8002082:	4413      	add	r3, r2
 8002084:	3304      	adds	r3, #4
 8002086:	60fb      	str	r3, [r7, #12]

  if (ep->xfer_count > ep->xfer_len)
 8002088:	68fb      	ldr	r3, [r7, #12]
 800208a:	699a      	ldr	r2, [r3, #24]
 800208c:	68fb      	ldr	r3, [r7, #12]
 800208e:	695b      	ldr	r3, [r3, #20]
 8002090:	429a      	cmp	r2, r3
 8002092:	d901      	bls.n	8002098 <PCD_WriteEmptyTxFifo+0x38>
  {
    return HAL_ERROR;
 8002094:	2301      	movs	r3, #1
 8002096:	e06c      	b.n	8002172 <PCD_WriteEmptyTxFifo+0x112>
  }

  len = ep->xfer_len - ep->xfer_count;
 8002098:	68fb      	ldr	r3, [r7, #12]
 800209a:	695a      	ldr	r2, [r3, #20]
 800209c:	68fb      	ldr	r3, [r7, #12]
 800209e:	699b      	ldr	r3, [r3, #24]
 80020a0:	1ad3      	subs	r3, r2, r3
 80020a2:	61fb      	str	r3, [r7, #28]

  if (len > ep->maxpacket)
 80020a4:	68fb      	ldr	r3, [r7, #12]
 80020a6:	689b      	ldr	r3, [r3, #8]
 80020a8:	69fa      	ldr	r2, [r7, #28]
 80020aa:	429a      	cmp	r2, r3
 80020ac:	d902      	bls.n	80020b4 <PCD_WriteEmptyTxFifo+0x54>
  {
    len = ep->maxpacket;
 80020ae:	68fb      	ldr	r3, [r7, #12]
 80020b0:	689b      	ldr	r3, [r3, #8]
 80020b2:	61fb      	str	r3, [r7, #28]
  }

  len32b = (len + 3U) / 4U;
 80020b4:	69fb      	ldr	r3, [r7, #28]
 80020b6:	3303      	adds	r3, #3
 80020b8:	089b      	lsrs	r3, r3, #2
 80020ba:	61bb      	str	r3, [r7, #24]

  while (((USBx_INEP(epnum)->DTXFSTS & USB_OTG_DTXFSTS_INEPTFSAV) >= len32b) &&
 80020bc:	e02b      	b.n	8002116 <PCD_WriteEmptyTxFifo+0xb6>
         (ep->xfer_count < ep->xfer_len) && (ep->xfer_len != 0U))
  {
    /* Write the FIFO */
    len = ep->xfer_len - ep->xfer_count;
 80020be:	68fb      	ldr	r3, [r7, #12]
 80020c0:	695a      	ldr	r2, [r3, #20]
 80020c2:	68fb      	ldr	r3, [r7, #12]
 80020c4:	699b      	ldr	r3, [r3, #24]
 80020c6:	1ad3      	subs	r3, r2, r3
 80020c8:	61fb      	str	r3, [r7, #28]

    if (len > ep->maxpacket)
 80020ca:	68fb      	ldr	r3, [r7, #12]
 80020cc:	689b      	ldr	r3, [r3, #8]
 80020ce:	69fa      	ldr	r2, [r7, #28]
 80020d0:	429a      	cmp	r2, r3
 80020d2:	d902      	bls.n	80020da <PCD_WriteEmptyTxFifo+0x7a>
    {
      len = ep->maxpacket;
 80020d4:	68fb      	ldr	r3, [r7, #12]
 80020d6:	689b      	ldr	r3, [r3, #8]
 80020d8:	61fb      	str	r3, [r7, #28]
    }
    len32b = (len + 3U) / 4U;
 80020da:	69fb      	ldr	r3, [r7, #28]
 80020dc:	3303      	adds	r3, #3
 80020de:	089b      	lsrs	r3, r3, #2
 80020e0:	61bb      	str	r3, [r7, #24]

    (void)USB_WritePacket(USBx, ep->xfer_buff, (uint8_t)epnum, (uint16_t)len,
 80020e2:	68fb      	ldr	r3, [r7, #12]
 80020e4:	68d9      	ldr	r1, [r3, #12]
 80020e6:	683b      	ldr	r3, [r7, #0]
 80020e8:	b2da      	uxtb	r2, r3
 80020ea:	69fb      	ldr	r3, [r7, #28]
 80020ec:	b298      	uxth	r0, r3
                          (uint8_t)hpcd->Init.dma_enable);
 80020ee:	687b      	ldr	r3, [r7, #4]
 80020f0:	691b      	ldr	r3, [r3, #16]
    (void)USB_WritePacket(USBx, ep->xfer_buff, (uint8_t)epnum, (uint16_t)len,
 80020f2:	b2db      	uxtb	r3, r3
 80020f4:	9300      	str	r3, [sp, #0]
 80020f6:	4603      	mov	r3, r0
 80020f8:	6978      	ldr	r0, [r7, #20]
 80020fa:	f002 fa56 	bl	80045aa <USB_WritePacket>

    ep->xfer_buff  += len;
 80020fe:	68fb      	ldr	r3, [r7, #12]
 8002100:	68da      	ldr	r2, [r3, #12]
 8002102:	69fb      	ldr	r3, [r7, #28]
 8002104:	441a      	add	r2, r3
 8002106:	68fb      	ldr	r3, [r7, #12]
 8002108:	60da      	str	r2, [r3, #12]
    ep->xfer_count += len;
 800210a:	68fb      	ldr	r3, [r7, #12]
 800210c:	699a      	ldr	r2, [r3, #24]
 800210e:	69fb      	ldr	r3, [r7, #28]
 8002110:	441a      	add	r2, r3
 8002112:	68fb      	ldr	r3, [r7, #12]
 8002114:	619a      	str	r2, [r3, #24]
  while (((USBx_INEP(epnum)->DTXFSTS & USB_OTG_DTXFSTS_INEPTFSAV) >= len32b) &&
 8002116:	683b      	ldr	r3, [r7, #0]
 8002118:	015a      	lsls	r2, r3, #5
 800211a:	693b      	ldr	r3, [r7, #16]
 800211c:	4413      	add	r3, r2
 800211e:	f503 6310 	add.w	r3, r3, #2304	; 0x900
 8002122:	699b      	ldr	r3, [r3, #24]
 8002124:	b29b      	uxth	r3, r3
 8002126:	69ba      	ldr	r2, [r7, #24]
 8002128:	429a      	cmp	r2, r3
 800212a:	d809      	bhi.n	8002140 <PCD_WriteEmptyTxFifo+0xe0>
         (ep->xfer_count < ep->xfer_len) && (ep->xfer_len != 0U))
 800212c:	68fb      	ldr	r3, [r7, #12]
 800212e:	699a      	ldr	r2, [r3, #24]
 8002130:	68fb      	ldr	r3, [r7, #12]
 8002132:	695b      	ldr	r3, [r3, #20]
  while (((USBx_INEP(epnum)->DTXFSTS & USB_OTG_DTXFSTS_INEPTFSAV) >= len32b) &&
 8002134:	429a      	cmp	r2, r3
 8002136:	d203      	bcs.n	8002140 <PCD_WriteEmptyTxFifo+0xe0>
         (ep->xfer_count < ep->xfer_len) && (ep->xfer_len != 0U))
 8002138:	68fb      	ldr	r3, [r7, #12]
 800213a:	695b      	ldr	r3, [r3, #20]
 800213c:	2b00      	cmp	r3, #0
 800213e:	d1be      	bne.n	80020be <PCD_WriteEmptyTxFifo+0x5e>
  }

  if (ep->xfer_len <= ep->xfer_count)
 8002140:	68fb      	ldr	r3, [r7, #12]
 8002142:	695a      	ldr	r2, [r3, #20]
 8002144:	68fb      	ldr	r3, [r7, #12]
 8002146:	699b      	ldr	r3, [r3, #24]
 8002148:	429a      	cmp	r2, r3
 800214a:	d811      	bhi.n	8002170 <PCD_WriteEmptyTxFifo+0x110>
  {
    fifoemptymsk = (uint32_t)(0x1UL << (epnum & EP_ADDR_MSK));
 800214c:	683b      	ldr	r3, [r7, #0]
 800214e:	f003 030f 	and.w	r3, r3, #15
 8002152:	2201      	movs	r2, #1
 8002154:	fa02 f303 	lsl.w	r3, r2, r3
 8002158:	60bb      	str	r3, [r7, #8]
    USBx_DEVICE->DIEPEMPMSK &= ~fifoemptymsk;
 800215a:	693b      	ldr	r3, [r7, #16]
 800215c:	f503 6300 	add.w	r3, r3, #2048	; 0x800
 8002160:	6b5a      	ldr	r2, [r3, #52]	; 0x34
 8002162:	68bb      	ldr	r3, [r7, #8]
 8002164:	43db      	mvns	r3, r3
 8002166:	6939      	ldr	r1, [r7, #16]
 8002168:	f501 6100 	add.w	r1, r1, #2048	; 0x800
 800216c:	4013      	ands	r3, r2
 800216e:	634b      	str	r3, [r1, #52]	; 0x34
  }

  return HAL_OK;
 8002170:	2300      	movs	r3, #0
}
 8002172:	4618      	mov	r0, r3
 8002174:	3720      	adds	r7, #32
 8002176:	46bd      	mov	sp, r7
 8002178:	bd80      	pop	{r7, pc}
	...

0800217c <PCD_EP_OutXfrComplete_int>:
  * @param  hpcd PCD handle
  * @param  epnum endpoint number
  * @retval HAL status
  */
static HAL_StatusTypeDef PCD_EP_OutXfrComplete_int(PCD_HandleTypeDef *hpcd, uint32_t epnum)
{
 800217c:	b580      	push	{r7, lr}
 800217e:	b086      	sub	sp, #24
 8002180:	af00      	add	r7, sp, #0
 8002182:	6078      	str	r0, [r7, #4]
 8002184:	6039      	str	r1, [r7, #0]
  USB_OTG_GlobalTypeDef *USBx = hpcd->Instance;
 8002186:	687b      	ldr	r3, [r7, #4]
 8002188:	681b      	ldr	r3, [r3, #0]
 800218a:	617b      	str	r3, [r7, #20]
  uint32_t USBx_BASE = (uint32_t)USBx;
 800218c:	697b      	ldr	r3, [r7, #20]
 800218e:	613b      	str	r3, [r7, #16]
  uint32_t gSNPSiD = *(__IO uint32_t *)(&USBx->CID + 0x1U);
 8002190:	697b      	ldr	r3, [r7, #20]
 8002192:	333c      	adds	r3, #60	; 0x3c
 8002194:	3304      	adds	r3, #4
 8002196:	681b      	ldr	r3, [r3, #0]
 8002198:	60fb      	str	r3, [r7, #12]
  uint32_t DoepintReg = USBx_OUTEP(epnum)->DOEPINT;
 800219a:	683b      	ldr	r3, [r7, #0]
 800219c:	015a      	lsls	r2, r3, #5
 800219e:	693b      	ldr	r3, [r7, #16]
 80021a0:	4413      	add	r3, r2
 80021a2:	f503 6330 	add.w	r3, r3, #2816	; 0xb00
 80021a6:	689b      	ldr	r3, [r3, #8]
 80021a8:	60bb      	str	r3, [r7, #8]

  if (hpcd->Init.dma_enable == 1U)
 80021aa:	687b      	ldr	r3, [r7, #4]
 80021ac:	691b      	ldr	r3, [r3, #16]
 80021ae:	2b01      	cmp	r3, #1
 80021b0:	f040 80a0 	bne.w	80022f4 <PCD_EP_OutXfrComplete_int+0x178>
  {
    if ((DoepintReg & USB_OTG_DOEPINT_STUP) == USB_OTG_DOEPINT_STUP) /* Class C */
 80021b4:	68bb      	ldr	r3, [r7, #8]
 80021b6:	f003 0308 	and.w	r3, r3, #8
 80021ba:	2b00      	cmp	r3, #0
 80021bc:	d015      	beq.n	80021ea <PCD_EP_OutXfrComplete_int+0x6e>
    {
      /* StupPktRcvd = 1 this is a setup packet */
      if ((gSNPSiD > USB_OTG_CORE_ID_300A) &&
 80021be:	68fb      	ldr	r3, [r7, #12]
 80021c0:	4a72      	ldr	r2, [pc, #456]	; (800238c <PCD_EP_OutXfrComplete_int+0x210>)
 80021c2:	4293      	cmp	r3, r2
 80021c4:	f240 80dd 	bls.w	8002382 <PCD_EP_OutXfrComplete_int+0x206>
          ((DoepintReg & USB_OTG_DOEPINT_STPKTRX) == USB_OTG_DOEPINT_STPKTRX))
 80021c8:	68bb      	ldr	r3, [r7, #8]
 80021ca:	f403 4300 	and.w	r3, r3, #32768	; 0x8000
      if ((gSNPSiD > USB_OTG_CORE_ID_300A) &&
 80021ce:	2b00      	cmp	r3, #0
 80021d0:	f000 80d7 	beq.w	8002382 <PCD_EP_OutXfrComplete_int+0x206>
      {
        CLEAR_OUT_EP_INTR(epnum, USB_OTG_DOEPINT_STPKTRX);
 80021d4:	683b      	ldr	r3, [r7, #0]
 80021d6:	015a      	lsls	r2, r3, #5
 80021d8:	693b      	ldr	r3, [r7, #16]
 80021da:	4413      	add	r3, r2
 80021dc:	f503 6330 	add.w	r3, r3, #2816	; 0xb00
 80021e0:	461a      	mov	r2, r3
 80021e2:	f44f 4300 	mov.w	r3, #32768	; 0x8000
 80021e6:	6093      	str	r3, [r2, #8]
 80021e8:	e0cb      	b.n	8002382 <PCD_EP_OutXfrComplete_int+0x206>
      }
    }
    else if ((DoepintReg & USB_OTG_DOEPINT_OTEPSPR) == USB_OTG_DOEPINT_OTEPSPR) /* Class E */
 80021ea:	68bb      	ldr	r3, [r7, #8]
 80021ec:	f003 0320 	and.w	r3, r3, #32
 80021f0:	2b00      	cmp	r3, #0
 80021f2:	d009      	beq.n	8002208 <PCD_EP_OutXfrComplete_int+0x8c>
    {
      CLEAR_OUT_EP_INTR(epnum, USB_OTG_DOEPINT_OTEPSPR);
 80021f4:	683b      	ldr	r3, [r7, #0]
 80021f6:	015a      	lsls	r2, r3, #5
 80021f8:	693b      	ldr	r3, [r7, #16]
 80021fa:	4413      	add	r3, r2
 80021fc:	f503 6330 	add.w	r3, r3, #2816	; 0xb00
 8002200:	461a      	mov	r2, r3
 8002202:	2320      	movs	r3, #32
 8002204:	6093      	str	r3, [r2, #8]
 8002206:	e0bc      	b.n	8002382 <PCD_EP_OutXfrComplete_int+0x206>
    }
    else if ((DoepintReg & (USB_OTG_DOEPINT_STUP | USB_OTG_DOEPINT_OTEPSPR)) == 0U)
 8002208:	68bb      	ldr	r3, [r7, #8]
 800220a:	f003 0328 	and.w	r3, r3, #40	; 0x28
 800220e:	2b00      	cmp	r3, #0
 8002210:	f040 80b7 	bne.w	8002382 <PCD_EP_OutXfrComplete_int+0x206>
    {
      /* StupPktRcvd = 1 this is a setup packet */
      if ((gSNPSiD > USB_OTG_CORE_ID_300A) &&
 8002214:	68fb      	ldr	r3, [r7, #12]
 8002216:	4a5d      	ldr	r2, [pc, #372]	; (800238c <PCD_EP_OutXfrComplete_int+0x210>)
 8002218:	4293      	cmp	r3, r2
 800221a:	d90f      	bls.n	800223c <PCD_EP_OutXfrComplete_int+0xc0>
          ((DoepintReg & USB_OTG_DOEPINT_STPKTRX) == USB_OTG_DOEPINT_STPKTRX))
 800221c:	68bb      	ldr	r3, [r7, #8]
 800221e:	f403 4300 	and.w	r3, r3, #32768	; 0x8000
      if ((gSNPSiD > USB_OTG_CORE_ID_300A) &&
 8002222:	2b00      	cmp	r3, #0
 8002224:	d00a      	beq.n	800223c <PCD_EP_OutXfrComplete_int+0xc0>
      {
        CLEAR_OUT_EP_INTR(epnum, USB_OTG_DOEPINT_STPKTRX);
 8002226:	683b      	ldr	r3, [r7, #0]
 8002228:	015a      	lsls	r2, r3, #5
 800222a:	693b      	ldr	r3, [r7, #16]
 800222c:	4413      	add	r3, r2
 800222e:	f503 6330 	add.w	r3, r3, #2816	; 0xb00
 8002232:	461a      	mov	r2, r3
 8002234:	f44f 4300 	mov.w	r3, #32768	; 0x8000
 8002238:	6093      	str	r3, [r2, #8]
 800223a:	e0a2      	b.n	8002382 <PCD_EP_OutXfrComplete_int+0x206>
      }
      else
      {
        /* out data packet received over EP0 */
        hpcd->OUT_ep[epnum].xfer_count =
          hpcd->OUT_ep[epnum].maxpacket -
 800223c:	6879      	ldr	r1, [r7, #4]
 800223e:	683a      	ldr	r2, [r7, #0]
 8002240:	4613      	mov	r3, r2
 8002242:	00db      	lsls	r3, r3, #3
 8002244:	1a9b      	subs	r3, r3, r2
 8002246:	009b      	lsls	r3, r3, #2
 8002248:	440b      	add	r3, r1
 800224a:	f503 7301 	add.w	r3, r3, #516	; 0x204
 800224e:	681a      	ldr	r2, [r3, #0]
          (USBx_OUTEP(epnum)->DOEPTSIZ & USB_OTG_DOEPTSIZ_XFRSIZ);
 8002250:	683b      	ldr	r3, [r7, #0]
 8002252:	0159      	lsls	r1, r3, #5
 8002254:	693b      	ldr	r3, [r7, #16]
 8002256:	440b      	add	r3, r1
 8002258:	f503 6330 	add.w	r3, r3, #2816	; 0xb00
 800225c:	691b      	ldr	r3, [r3, #16]
 800225e:	f3c3 0312 	ubfx	r3, r3, #0, #19
          hpcd->OUT_ep[epnum].maxpacket -
 8002262:	1ad1      	subs	r1, r2, r3
        hpcd->OUT_ep[epnum].xfer_count =
 8002264:	6878      	ldr	r0, [r7, #4]
 8002266:	683a      	ldr	r2, [r7, #0]
 8002268:	4613      	mov	r3, r2
 800226a:	00db      	lsls	r3, r3, #3
 800226c:	1a9b      	subs	r3, r3, r2
 800226e:	009b      	lsls	r3, r3, #2
 8002270:	4403      	add	r3, r0
 8002272:	f503 7305 	add.w	r3, r3, #532	; 0x214
 8002276:	6019      	str	r1, [r3, #0]

        hpcd->OUT_ep[epnum].xfer_buff += hpcd->OUT_ep[epnum].maxpacket;
 8002278:	6879      	ldr	r1, [r7, #4]
 800227a:	683a      	ldr	r2, [r7, #0]
 800227c:	4613      	mov	r3, r2
 800227e:	00db      	lsls	r3, r3, #3
 8002280:	1a9b      	subs	r3, r3, r2
 8002282:	009b      	lsls	r3, r3, #2
 8002284:	440b      	add	r3, r1
 8002286:	f503 7302 	add.w	r3, r3, #520	; 0x208
 800228a:	6819      	ldr	r1, [r3, #0]
 800228c:	6878      	ldr	r0, [r7, #4]
 800228e:	683a      	ldr	r2, [r7, #0]
 8002290:	4613      	mov	r3, r2
 8002292:	00db      	lsls	r3, r3, #3
 8002294:	1a9b      	subs	r3, r3, r2
 8002296:	009b      	lsls	r3, r3, #2
 8002298:	4403      	add	r3, r0
 800229a:	f503 7301 	add.w	r3, r3, #516	; 0x204
 800229e:	681b      	ldr	r3, [r3, #0]
 80022a0:	4419      	add	r1, r3
 80022a2:	6878      	ldr	r0, [r7, #4]
 80022a4:	683a      	ldr	r2, [r7, #0]
 80022a6:	4613      	mov	r3, r2
 80022a8:	00db      	lsls	r3, r3, #3
 80022aa:	1a9b      	subs	r3, r3, r2
 80022ac:	009b      	lsls	r3, r3, #2
 80022ae:	4403      	add	r3, r0
 80022b0:	f503 7302 	add.w	r3, r3, #520	; 0x208
 80022b4:	6019      	str	r1, [r3, #0]

        if ((epnum == 0U) && (hpcd->OUT_ep[epnum].xfer_len == 0U))
 80022b6:	683b      	ldr	r3, [r7, #0]
 80022b8:	2b00      	cmp	r3, #0
 80022ba:	d114      	bne.n	80022e6 <PCD_EP_OutXfrComplete_int+0x16a>
 80022bc:	6879      	ldr	r1, [r7, #4]
 80022be:	683a      	ldr	r2, [r7, #0]
 80022c0:	4613      	mov	r3, r2
 80022c2:	00db      	lsls	r3, r3, #3
 80022c4:	1a9b      	subs	r3, r3, r2
 80022c6:	009b      	lsls	r3, r3, #2
 80022c8:	440b      	add	r3, r1
 80022ca:	f503 7304 	add.w	r3, r3, #528	; 0x210
 80022ce:	681b      	ldr	r3, [r3, #0]
 80022d0:	2b00      	cmp	r3, #0
 80022d2:	d108      	bne.n	80022e6 <PCD_EP_OutXfrComplete_int+0x16a>
        {
          /* this is ZLP, so prepare EP0 for next setup */
          (void)USB_EP0_OutStart(hpcd->Instance, 1U, (uint8_t *)hpcd->Setup);
 80022d4:	687b      	ldr	r3, [r7, #4]
 80022d6:	6818      	ldr	r0, [r3, #0]
 80022d8:	687b      	ldr	r3, [r7, #4]
 80022da:	f503 7371 	add.w	r3, r3, #964	; 0x3c4
 80022de:	461a      	mov	r2, r3
 80022e0:	2101      	movs	r1, #1
 80022e2:	f002 fbc1 	bl	8004a68 <USB_EP0_OutStart>
        }
#if (USE_HAL_PCD_REGISTER_CALLBACKS == 1U)
        hpcd->DataOutStageCallback(hpcd, (uint8_t)epnum);
#else
        HAL_PCD_DataOutStageCallback(hpcd, (uint8_t)epnum);
 80022e6:	683b      	ldr	r3, [r7, #0]
 80022e8:	b2db      	uxtb	r3, r3
 80022ea:	4619      	mov	r1, r3
 80022ec:	6878      	ldr	r0, [r7, #4]
 80022ee:	f004 fb19 	bl	8006924 <HAL_PCD_DataOutStageCallback>
 80022f2:	e046      	b.n	8002382 <PCD_EP_OutXfrComplete_int+0x206>
      /* ... */
    }
  }
  else
  {
    if (gSNPSiD == USB_OTG_CORE_ID_310A)
 80022f4:	68fb      	ldr	r3, [r7, #12]
 80022f6:	4a26      	ldr	r2, [pc, #152]	; (8002390 <PCD_EP_OutXfrComplete_int+0x214>)
 80022f8:	4293      	cmp	r3, r2
 80022fa:	d124      	bne.n	8002346 <PCD_EP_OutXfrComplete_int+0x1ca>
    {
      /* StupPktRcvd = 1 this is a setup packet */
      if ((DoepintReg & USB_OTG_DOEPINT_STPKTRX) == USB_OTG_DOEPINT_STPKTRX)
 80022fc:	68bb      	ldr	r3, [r7, #8]
 80022fe:	f403 4300 	and.w	r3, r3, #32768	; 0x8000
 8002302:	2b00      	cmp	r3, #0
 8002304:	d00a      	beq.n	800231c <PCD_EP_OutXfrComplete_int+0x1a0>
      {
        CLEAR_OUT_EP_INTR(epnum, USB_OTG_DOEPINT_STPKTRX);
 8002306:	683b      	ldr	r3, [r7, #0]
 8002308:	015a      	lsls	r2, r3, #5
 800230a:	693b      	ldr	r3, [r7, #16]
 800230c:	4413      	add	r3, r2
 800230e:	f503 6330 	add.w	r3, r3, #2816	; 0xb00
 8002312:	461a      	mov	r2, r3
 8002314:	f44f 4300 	mov.w	r3, #32768	; 0x8000
 8002318:	6093      	str	r3, [r2, #8]
 800231a:	e032      	b.n	8002382 <PCD_EP_OutXfrComplete_int+0x206>
      }
      else
      {
        if ((DoepintReg & USB_OTG_DOEPINT_OTEPSPR) == USB_OTG_DOEPINT_OTEPSPR)
 800231c:	68bb      	ldr	r3, [r7, #8]
 800231e:	f003 0320 	and.w	r3, r3, #32
 8002322:	2b00      	cmp	r3, #0
 8002324:	d008      	beq.n	8002338 <PCD_EP_OutXfrComplete_int+0x1bc>
        {
          CLEAR_OUT_EP_INTR(epnum, USB_OTG_DOEPINT_OTEPSPR);
 8002326:	683b      	ldr	r3, [r7, #0]
 8002328:	015a      	lsls	r2, r3, #5
 800232a:	693b      	ldr	r3, [r7, #16]
 800232c:	4413      	add	r3, r2
 800232e:	f503 6330 	add.w	r3, r3, #2816	; 0xb00
 8002332:	461a      	mov	r2, r3
 8002334:	2320      	movs	r3, #32
 8002336:	6093      	str	r3, [r2, #8]
        }

#if (USE_HAL_PCD_REGISTER_CALLBACKS == 1U)
        hpcd->DataOutStageCallback(hpcd, (uint8_t)epnum);
#else
        HAL_PCD_DataOutStageCallback(hpcd, (uint8_t)epnum);
 8002338:	683b      	ldr	r3, [r7, #0]
 800233a:	b2db      	uxtb	r3, r3
 800233c:	4619      	mov	r1, r3
 800233e:	6878      	ldr	r0, [r7, #4]
 8002340:	f004 faf0 	bl	8006924 <HAL_PCD_DataOutStageCallback>
 8002344:	e01d      	b.n	8002382 <PCD_EP_OutXfrComplete_int+0x206>
#endif /* USE_HAL_PCD_REGISTER_CALLBACKS */
      }
    }
    else
    {
      if ((epnum == 0U) && (hpcd->OUT_ep[epnum].xfer_len == 0U))
 8002346:	683b      	ldr	r3, [r7, #0]
 8002348:	2b00      	cmp	r3, #0
 800234a:	d114      	bne.n	8002376 <PCD_EP_OutXfrComplete_int+0x1fa>
 800234c:	6879      	ldr	r1, [r7, #4]
 800234e:	683a      	ldr	r2, [r7, #0]
 8002350:	4613      	mov	r3, r2
 8002352:	00db      	lsls	r3, r3, #3
 8002354:	1a9b      	subs	r3, r3, r2
 8002356:	009b      	lsls	r3, r3, #2
 8002358:	440b      	add	r3, r1
 800235a:	f503 7304 	add.w	r3, r3, #528	; 0x210
 800235e:	681b      	ldr	r3, [r3, #0]
 8002360:	2b00      	cmp	r3, #0
 8002362:	d108      	bne.n	8002376 <PCD_EP_OutXfrComplete_int+0x1fa>
      {
        /* this is ZLP, so prepare EP0 for next setup */
        (void)USB_EP0_OutStart(hpcd->Instance, 0U, (uint8_t *)hpcd->Setup);
 8002364:	687b      	ldr	r3, [r7, #4]
 8002366:	6818      	ldr	r0, [r3, #0]
 8002368:	687b      	ldr	r3, [r7, #4]
 800236a:	f503 7371 	add.w	r3, r3, #964	; 0x3c4
 800236e:	461a      	mov	r2, r3
 8002370:	2100      	movs	r1, #0
 8002372:	f002 fb79 	bl	8004a68 <USB_EP0_OutStart>
      }

#if (USE_HAL_PCD_REGISTER_CALLBACKS == 1U)
      hpcd->DataOutStageCallback(hpcd, (uint8_t)epnum);
#else
      HAL_PCD_DataOutStageCallback(hpcd, (uint8_t)epnum);
 8002376:	683b      	ldr	r3, [r7, #0]
 8002378:	b2db      	uxtb	r3, r3
 800237a:	4619      	mov	r1, r3
 800237c:	6878      	ldr	r0, [r7, #4]
 800237e:	f004 fad1 	bl	8006924 <HAL_PCD_DataOutStageCallback>
#endif /* USE_HAL_PCD_REGISTER_CALLBACKS */
    }
  }

  return HAL_OK;
 8002382:	2300      	movs	r3, #0
}
 8002384:	4618      	mov	r0, r3
 8002386:	3718      	adds	r7, #24
 8002388:	46bd      	mov	sp, r7
 800238a:	bd80      	pop	{r7, pc}
 800238c:	4f54300a 	.word	0x4f54300a
 8002390:	4f54310a 	.word	0x4f54310a

08002394 <PCD_EP_OutSetupPacket_int>:
  * @param  hpcd PCD handle
  * @param  epnum endpoint number
  * @retval HAL status
  */
static HAL_StatusTypeDef PCD_EP_OutSetupPacket_int(PCD_HandleTypeDef *hpcd, uint32_t epnum)
{
 8002394:	b580      	push	{r7, lr}
 8002396:	b086      	sub	sp, #24
 8002398:	af00      	add	r7, sp, #0
 800239a:	6078      	str	r0, [r7, #4]
 800239c:	6039      	str	r1, [r7, #0]
  USB_OTG_GlobalTypeDef *USBx = hpcd->Instance;
 800239e:	687b      	ldr	r3, [r7, #4]
 80023a0:	681b      	ldr	r3, [r3, #0]
 80023a2:	617b      	str	r3, [r7, #20]
  uint32_t USBx_BASE = (uint32_t)USBx;
 80023a4:	697b      	ldr	r3, [r7, #20]
 80023a6:	613b      	str	r3, [r7, #16]
  uint32_t gSNPSiD = *(__IO uint32_t *)(&USBx->CID + 0x1U);
 80023a8:	697b      	ldr	r3, [r7, #20]
 80023aa:	333c      	adds	r3, #60	; 0x3c
 80023ac:	3304      	adds	r3, #4
 80023ae:	681b      	ldr	r3, [r3, #0]
 80023b0:	60fb      	str	r3, [r7, #12]
  uint32_t DoepintReg = USBx_OUTEP(epnum)->DOEPINT;
 80023b2:	683b      	ldr	r3, [r7, #0]
 80023b4:	015a      	lsls	r2, r3, #5
 80023b6:	693b      	ldr	r3, [r7, #16]
 80023b8:	4413      	add	r3, r2
 80023ba:	f503 6330 	add.w	r3, r3, #2816	; 0xb00
 80023be:	689b      	ldr	r3, [r3, #8]
 80023c0:	60bb      	str	r3, [r7, #8]

  if ((gSNPSiD > USB_OTG_CORE_ID_300A) &&
 80023c2:	68fb      	ldr	r3, [r7, #12]
 80023c4:	4a15      	ldr	r2, [pc, #84]	; (800241c <PCD_EP_OutSetupPacket_int+0x88>)
 80023c6:	4293      	cmp	r3, r2
 80023c8:	d90e      	bls.n	80023e8 <PCD_EP_OutSetupPacket_int+0x54>
      ((DoepintReg & USB_OTG_DOEPINT_STPKTRX) == USB_OTG_DOEPINT_STPKTRX))
 80023ca:	68bb      	ldr	r3, [r7, #8]
 80023cc:	f403 4300 	and.w	r3, r3, #32768	; 0x8000
  if ((gSNPSiD > USB_OTG_CORE_ID_300A) &&
 80023d0:	2b00      	cmp	r3, #0
 80023d2:	d009      	beq.n	80023e8 <PCD_EP_OutSetupPacket_int+0x54>
  {
    CLEAR_OUT_EP_INTR(epnum, USB_OTG_DOEPINT_STPKTRX);
 80023d4:	683b      	ldr	r3, [r7, #0]
 80023d6:	015a      	lsls	r2, r3, #5
 80023d8:	693b      	ldr	r3, [r7, #16]
 80023da:	4413      	add	r3, r2
 80023dc:	f503 6330 	add.w	r3, r3, #2816	; 0xb00
 80023e0:	461a      	mov	r2, r3
 80023e2:	f44f 4300 	mov.w	r3, #32768	; 0x8000
 80023e6:	6093      	str	r3, [r2, #8]

  /* Inform the upper layer that a setup packet is available */
#if (USE_HAL_PCD_REGISTER_CALLBACKS == 1U)
  hpcd->SetupStageCallback(hpcd);
#else
  HAL_PCD_SetupStageCallback(hpcd);
 80023e8:	6878      	ldr	r0, [r7, #4]
 80023ea:	f004 fa89 	bl	8006900 <HAL_PCD_SetupStageCallback>
#endif /* USE_HAL_PCD_REGISTER_CALLBACKS */

  if ((gSNPSiD > USB_OTG_CORE_ID_300A) && (hpcd->Init.dma_enable == 1U))
 80023ee:	68fb      	ldr	r3, [r7, #12]
 80023f0:	4a0a      	ldr	r2, [pc, #40]	; (800241c <PCD_EP_OutSetupPacket_int+0x88>)
 80023f2:	4293      	cmp	r3, r2
 80023f4:	d90c      	bls.n	8002410 <PCD_EP_OutSetupPacket_int+0x7c>
 80023f6:	687b      	ldr	r3, [r7, #4]
 80023f8:	691b      	ldr	r3, [r3, #16]
 80023fa:	2b01      	cmp	r3, #1
 80023fc:	d108      	bne.n	8002410 <PCD_EP_OutSetupPacket_int+0x7c>
  {
    (void)USB_EP0_OutStart(hpcd->Instance, 1U, (uint8_t *)hpcd->Setup);
 80023fe:	687b      	ldr	r3, [r7, #4]
 8002400:	6818      	ldr	r0, [r3, #0]
 8002402:	687b      	ldr	r3, [r7, #4]
 8002404:	f503 7371 	add.w	r3, r3, #964	; 0x3c4
 8002408:	461a      	mov	r2, r3
 800240a:	2101      	movs	r1, #1
 800240c:	f002 fb2c 	bl	8004a68 <USB_EP0_OutStart>
  }

  return HAL_OK;
 8002410:	2300      	movs	r3, #0
}
 8002412:	4618      	mov	r0, r3
 8002414:	3718      	adds	r7, #24
 8002416:	46bd      	mov	sp, r7
 8002418:	bd80      	pop	{r7, pc}
 800241a:	bf00      	nop
 800241c:	4f54300a 	.word	0x4f54300a

08002420 <HAL_PCDEx_SetTxFiFo>:
  * @param  fifo The number of Tx fifo
  * @param  size Fifo size
  * @retval HAL status
  */
HAL_StatusTypeDef HAL_PCDEx_SetTxFiFo(PCD_HandleTypeDef *hpcd, uint8_t fifo, uint16_t size)
{
 8002420:	b480      	push	{r7}
 8002422:	b085      	sub	sp, #20
 8002424:	af00      	add	r7, sp, #0
 8002426:	6078      	str	r0, [r7, #4]
 8002428:	460b      	mov	r3, r1
 800242a:	70fb      	strb	r3, [r7, #3]
 800242c:	4613      	mov	r3, r2
 800242e:	803b      	strh	r3, [r7, #0]
         --> Txn should be configured with the minimum space of 16 words
     The FIFO is used optimally when used TxFIFOs are allocated in the top
         of the FIFO.Ex: use EP1 and EP2 as IN instead of EP1 and EP3 as IN ones.
     When DMA is used 3n * FIFO locations should be reserved for internal DMA registers */

  Tx_Offset = hpcd->Instance->GRXFSIZ;
 8002430:	687b      	ldr	r3, [r7, #4]
 8002432:	681b      	ldr	r3, [r3, #0]
 8002434:	6a5b      	ldr	r3, [r3, #36]	; 0x24
 8002436:	60bb      	str	r3, [r7, #8]

  if (fifo == 0U)
 8002438:	78fb      	ldrb	r3, [r7, #3]
 800243a:	2b00      	cmp	r3, #0
 800243c:	d107      	bne.n	800244e <HAL_PCDEx_SetTxFiFo+0x2e>
  {
    hpcd->Instance->DIEPTXF0_HNPTXFSIZ = ((uint32_t)size << 16) | Tx_Offset;
 800243e:	883b      	ldrh	r3, [r7, #0]
 8002440:	0419      	lsls	r1, r3, #16
 8002442:	687b      	ldr	r3, [r7, #4]
 8002444:	681b      	ldr	r3, [r3, #0]
 8002446:	68ba      	ldr	r2, [r7, #8]
 8002448:	430a      	orrs	r2, r1
 800244a:	629a      	str	r2, [r3, #40]	; 0x28
 800244c:	e028      	b.n	80024a0 <HAL_PCDEx_SetTxFiFo+0x80>
  }
  else
  {
    Tx_Offset += (hpcd->Instance->DIEPTXF0_HNPTXFSIZ) >> 16;
 800244e:	687b      	ldr	r3, [r7, #4]
 8002450:	681b      	ldr	r3, [r3, #0]
 8002452:	6a9b      	ldr	r3, [r3, #40]	; 0x28
 8002454:	0c1b      	lsrs	r3, r3, #16
 8002456:	68ba      	ldr	r2, [r7, #8]
 8002458:	4413      	add	r3, r2
 800245a:	60bb      	str	r3, [r7, #8]
    for (i = 0U; i < (fifo - 1U); i++)
 800245c:	2300      	movs	r3, #0
 800245e:	73fb      	strb	r3, [r7, #15]
 8002460:	e00d      	b.n	800247e <HAL_PCDEx_SetTxFiFo+0x5e>
    {
      Tx_Offset += (hpcd->Instance->DIEPTXF[i] >> 16);
 8002462:	687b      	ldr	r3, [r7, #4]
 8002464:	681a      	ldr	r2, [r3, #0]
 8002466:	7bfb      	ldrb	r3, [r7, #15]
 8002468:	3340      	adds	r3, #64	; 0x40
 800246a:	009b      	lsls	r3, r3, #2
 800246c:	4413      	add	r3, r2
 800246e:	685b      	ldr	r3, [r3, #4]
 8002470:	0c1b      	lsrs	r3, r3, #16
 8002472:	68ba      	ldr	r2, [r7, #8]
 8002474:	4413      	add	r3, r2
 8002476:	60bb      	str	r3, [r7, #8]
    for (i = 0U; i < (fifo - 1U); i++)
 8002478:	7bfb      	ldrb	r3, [r7, #15]
 800247a:	3301      	adds	r3, #1
 800247c:	73fb      	strb	r3, [r7, #15]
 800247e:	7bfa      	ldrb	r2, [r7, #15]
 8002480:	78fb      	ldrb	r3, [r7, #3]
 8002482:	3b01      	subs	r3, #1
 8002484:	429a      	cmp	r2, r3
 8002486:	d3ec      	bcc.n	8002462 <HAL_PCDEx_SetTxFiFo+0x42>
    }

    /* Multiply Tx_Size by 2 to get higher performance */
    hpcd->Instance->DIEPTXF[fifo - 1U] = ((uint32_t)size << 16) | Tx_Offset;
 8002488:	883b      	ldrh	r3, [r7, #0]
 800248a:	0418      	lsls	r0, r3, #16
 800248c:	687b      	ldr	r3, [r7, #4]
 800248e:	6819      	ldr	r1, [r3, #0]
 8002490:	78fb      	ldrb	r3, [r7, #3]
 8002492:	3b01      	subs	r3, #1
 8002494:	68ba      	ldr	r2, [r7, #8]
 8002496:	4302      	orrs	r2, r0
 8002498:	3340      	adds	r3, #64	; 0x40
 800249a:	009b      	lsls	r3, r3, #2
 800249c:	440b      	add	r3, r1
 800249e:	605a      	str	r2, [r3, #4]
  }

  return HAL_OK;
 80024a0:	2300      	movs	r3, #0
}
 80024a2:	4618      	mov	r0, r3
 80024a4:	3714      	adds	r7, #20
 80024a6:	46bd      	mov	sp, r7
 80024a8:	f85d 7b04 	ldr.w	r7, [sp], #4
 80024ac:	4770      	bx	lr

080024ae <HAL_PCDEx_SetRxFiFo>:
  * @param  hpcd PCD handle
  * @param  size Size of Rx fifo
  * @retval HAL status
  */
HAL_StatusTypeDef HAL_PCDEx_SetRxFiFo(PCD_HandleTypeDef *hpcd, uint16_t size)
{
 80024ae:	b480      	push	{r7}
 80024b0:	b083      	sub	sp, #12
 80024b2:	af00      	add	r7, sp, #0
 80024b4:	6078      	str	r0, [r7, #4]
 80024b6:	460b      	mov	r3, r1
 80024b8:	807b      	strh	r3, [r7, #2]
  hpcd->Instance->GRXFSIZ = size;
 80024ba:	687b      	ldr	r3, [r7, #4]
 80024bc:	681b      	ldr	r3, [r3, #0]
 80024be:	887a      	ldrh	r2, [r7, #2]
 80024c0:	625a      	str	r2, [r3, #36]	; 0x24

  return HAL_OK;
 80024c2:	2300      	movs	r3, #0
}
 80024c4:	4618      	mov	r0, r3
 80024c6:	370c      	adds	r7, #12
 80024c8:	46bd      	mov	sp, r7
 80024ca:	f85d 7b04 	ldr.w	r7, [sp], #4
 80024ce:	4770      	bx	lr

080024d0 <HAL_PCDEx_LPM_Callback>:
  * @param  hpcd PCD handle
  * @param  msg LPM message
  * @retval HAL status
  */
__weak void HAL_PCDEx_LPM_Callback(PCD_HandleTypeDef *hpcd, PCD_LPM_MsgTypeDef msg)
{
 80024d0:	b480      	push	{r7}
 80024d2:	b083      	sub	sp, #12
 80024d4:	af00      	add	r7, sp, #0
 80024d6:	6078      	str	r0, [r7, #4]
 80024d8:	460b      	mov	r3, r1
 80024da:	70fb      	strb	r3, [r7, #3]
  UNUSED(msg);

  /* NOTE : This function should not be modified, when the callback is needed,
            the HAL_PCDEx_LPM_Callback could be implemented in the user file
   */
}
 80024dc:	bf00      	nop
 80024de:	370c      	adds	r7, #12
 80024e0:	46bd      	mov	sp, r7
 80024e2:	f85d 7b04 	ldr.w	r7, [sp], #4
 80024e6:	4770      	bx	lr

080024e8 <HAL_RCC_OscConfig>:
  *         supported by this API. User should request a transition to HSE Off
  *         first and then HSE On or HSE Bypass.
  * @retval HAL status
  */
__weak HAL_StatusTypeDef HAL_RCC_OscConfig(RCC_OscInitTypeDef  *RCC_OscInitStruct)
{
 80024e8:	b580      	push	{r7, lr}
 80024ea:	b086      	sub	sp, #24
 80024ec:	af00      	add	r7, sp, #0
 80024ee:	6078      	str	r0, [r7, #4]
  uint32_t tickstart, pll_config;

  /* Check Null pointer */
  if(RCC_OscInitStruct == NULL)
 80024f0:	687b      	ldr	r3, [r7, #4]
 80024f2:	2b00      	cmp	r3, #0
 80024f4:	d101      	bne.n	80024fa <HAL_RCC_OscConfig+0x12>
  {
    return HAL_ERROR;
 80024f6:	2301      	movs	r3, #1
 80024f8:	e25b      	b.n	80029b2 <HAL_RCC_OscConfig+0x4ca>
  }

  /* Check the parameters */
  assert_param(IS_RCC_OSCILLATORTYPE(RCC_OscInitStruct->OscillatorType));
  /*------------------------------- HSE Configuration ------------------------*/
  if(((RCC_OscInitStruct->OscillatorType) & RCC_OSCILLATORTYPE_HSE) == RCC_OSCILLATORTYPE_HSE)
 80024fa:	687b      	ldr	r3, [r7, #4]
 80024fc:	681b      	ldr	r3, [r3, #0]
 80024fe:	f003 0301 	and.w	r3, r3, #1
 8002502:	2b00      	cmp	r3, #0
 8002504:	d075      	beq.n	80025f2 <HAL_RCC_OscConfig+0x10a>
  {
    /* Check the parameters */
    assert_param(IS_RCC_HSE(RCC_OscInitStruct->HSEState));
    /* When the HSE is used as system clock or clock source for PLL in these cases HSE will not disabled */
    if((__HAL_RCC_GET_SYSCLK_SOURCE() == RCC_CFGR_SWS_HSE) ||\
 8002506:	4ba3      	ldr	r3, [pc, #652]	; (8002794 <HAL_RCC_OscConfig+0x2ac>)
 8002508:	689b      	ldr	r3, [r3, #8]
 800250a:	f003 030c 	and.w	r3, r3, #12
 800250e:	2b04      	cmp	r3, #4
 8002510:	d00c      	beq.n	800252c <HAL_RCC_OscConfig+0x44>
      ((__HAL_RCC_GET_SYSCLK_SOURCE() == RCC_CFGR_SWS_PLL) && ((RCC->PLLCFGR & RCC_PLLCFGR_PLLSRC) == RCC_PLLCFGR_PLLSRC_HSE)))
 8002512:	4ba0      	ldr	r3, [pc, #640]	; (8002794 <HAL_RCC_OscConfig+0x2ac>)
 8002514:	689b      	ldr	r3, [r3, #8]
 8002516:	f003 030c 	and.w	r3, r3, #12
    if((__HAL_RCC_GET_SYSCLK_SOURCE() == RCC_CFGR_SWS_HSE) ||\
 800251a:	2b08      	cmp	r3, #8
 800251c:	d112      	bne.n	8002544 <HAL_RCC_OscConfig+0x5c>
      ((__HAL_RCC_GET_SYSCLK_SOURCE() == RCC_CFGR_SWS_PLL) && ((RCC->PLLCFGR & RCC_PLLCFGR_PLLSRC) == RCC_PLLCFGR_PLLSRC_HSE)))
 800251e:	4b9d      	ldr	r3, [pc, #628]	; (8002794 <HAL_RCC_OscConfig+0x2ac>)
 8002520:	685b      	ldr	r3, [r3, #4]
 8002522:	f403 0380 	and.w	r3, r3, #4194304	; 0x400000
 8002526:	f5b3 0f80 	cmp.w	r3, #4194304	; 0x400000
 800252a:	d10b      	bne.n	8002544 <HAL_RCC_OscConfig+0x5c>
    {
      if((__HAL_RCC_GET_FLAG(RCC_FLAG_HSERDY) != RESET) && (RCC_OscInitStruct->HSEState == RCC_HSE_OFF))
 800252c:	4b99      	ldr	r3, [pc, #612]	; (8002794 <HAL_RCC_OscConfig+0x2ac>)
 800252e:	681b      	ldr	r3, [r3, #0]
 8002530:	f403 3300 	and.w	r3, r3, #131072	; 0x20000
 8002534:	2b00      	cmp	r3, #0
 8002536:	d05b      	beq.n	80025f0 <HAL_RCC_OscConfig+0x108>
 8002538:	687b      	ldr	r3, [r7, #4]
 800253a:	685b      	ldr	r3, [r3, #4]
 800253c:	2b00      	cmp	r3, #0
 800253e:	d157      	bne.n	80025f0 <HAL_RCC_OscConfig+0x108>
      {
        return HAL_ERROR;
 8002540:	2301      	movs	r3, #1
 8002542:	e236      	b.n	80029b2 <HAL_RCC_OscConfig+0x4ca>
      }
    }
    else
    {
      /* Set the new HSE configuration ---------------------------------------*/
      __HAL_RCC_HSE_CONFIG(RCC_OscInitStruct->HSEState);
 8002544:	687b      	ldr	r3, [r7, #4]
 8002546:	685b      	ldr	r3, [r3, #4]
 8002548:	f5b3 3f80 	cmp.w	r3, #65536	; 0x10000
 800254c:	d106      	bne.n	800255c <HAL_RCC_OscConfig+0x74>
 800254e:	4b91      	ldr	r3, [pc, #580]	; (8002794 <HAL_RCC_OscConfig+0x2ac>)
 8002550:	681b      	ldr	r3, [r3, #0]
 8002552:	4a90      	ldr	r2, [pc, #576]	; (8002794 <HAL_RCC_OscConfig+0x2ac>)
 8002554:	f443 3380 	orr.w	r3, r3, #65536	; 0x10000
 8002558:	6013      	str	r3, [r2, #0]
 800255a:	e01d      	b.n	8002598 <HAL_RCC_OscConfig+0xb0>
 800255c:	687b      	ldr	r3, [r7, #4]
 800255e:	685b      	ldr	r3, [r3, #4]
 8002560:	f5b3 2fa0 	cmp.w	r3, #327680	; 0x50000
 8002564:	d10c      	bne.n	8002580 <HAL_RCC_OscConfig+0x98>
 8002566:	4b8b      	ldr	r3, [pc, #556]	; (8002794 <HAL_RCC_OscConfig+0x2ac>)
 8002568:	681b      	ldr	r3, [r3, #0]
 800256a:	4a8a      	ldr	r2, [pc, #552]	; (8002794 <HAL_RCC_OscConfig+0x2ac>)
 800256c:	f443 2380 	orr.w	r3, r3, #262144	; 0x40000
 8002570:	6013      	str	r3, [r2, #0]
 8002572:	4b88      	ldr	r3, [pc, #544]	; (8002794 <HAL_RCC_OscConfig+0x2ac>)
 8002574:	681b      	ldr	r3, [r3, #0]
 8002576:	4a87      	ldr	r2, [pc, #540]	; (8002794 <HAL_RCC_OscConfig+0x2ac>)
 8002578:	f443 3380 	orr.w	r3, r3, #65536	; 0x10000
 800257c:	6013      	str	r3, [r2, #0]
 800257e:	e00b      	b.n	8002598 <HAL_RCC_OscConfig+0xb0>
 8002580:	4b84      	ldr	r3, [pc, #528]	; (8002794 <HAL_RCC_OscConfig+0x2ac>)
 8002582:	681b      	ldr	r3, [r3, #0]
 8002584:	4a83      	ldr	r2, [pc, #524]	; (8002794 <HAL_RCC_OscConfig+0x2ac>)
 8002586:	f423 3380 	bic.w	r3, r3, #65536	; 0x10000
 800258a:	6013      	str	r3, [r2, #0]
 800258c:	4b81      	ldr	r3, [pc, #516]	; (8002794 <HAL_RCC_OscConfig+0x2ac>)
 800258e:	681b      	ldr	r3, [r3, #0]
 8002590:	4a80      	ldr	r2, [pc, #512]	; (8002794 <HAL_RCC_OscConfig+0x2ac>)
 8002592:	f423 2380 	bic.w	r3, r3, #262144	; 0x40000
 8002596:	6013      	str	r3, [r2, #0]

      /* Check the HSE State */
      if((RCC_OscInitStruct->HSEState) != RCC_HSE_OFF)
 8002598:	687b      	ldr	r3, [r7, #4]
 800259a:	685b      	ldr	r3, [r3, #4]
 800259c:	2b00      	cmp	r3, #0
 800259e:	d013      	beq.n	80025c8 <HAL_RCC_OscConfig+0xe0>
      {
        /* Get Start Tick */
        tickstart = HAL_GetTick();
 80025a0:	f7fe fb00 	bl	8000ba4 <HAL_GetTick>
 80025a4:	6138      	str	r0, [r7, #16]

        /* Wait till HSE is ready */
        while(__HAL_RCC_GET_FLAG(RCC_FLAG_HSERDY) == RESET)
 80025a6:	e008      	b.n	80025ba <HAL_RCC_OscConfig+0xd2>
        {
          if((HAL_GetTick() - tickstart ) > HSE_TIMEOUT_VALUE)
 80025a8:	f7fe fafc 	bl	8000ba4 <HAL_GetTick>
 80025ac:	4602      	mov	r2, r0
 80025ae:	693b      	ldr	r3, [r7, #16]
 80025b0:	1ad3      	subs	r3, r2, r3
 80025b2:	2b64      	cmp	r3, #100	; 0x64
 80025b4:	d901      	bls.n	80025ba <HAL_RCC_OscConfig+0xd2>
          {
            return HAL_TIMEOUT;
 80025b6:	2303      	movs	r3, #3
 80025b8:	e1fb      	b.n	80029b2 <HAL_RCC_OscConfig+0x4ca>
        while(__HAL_RCC_GET_FLAG(RCC_FLAG_HSERDY) == RESET)
 80025ba:	4b76      	ldr	r3, [pc, #472]	; (8002794 <HAL_RCC_OscConfig+0x2ac>)
 80025bc:	681b      	ldr	r3, [r3, #0]
 80025be:	f403 3300 	and.w	r3, r3, #131072	; 0x20000
 80025c2:	2b00      	cmp	r3, #0
 80025c4:	d0f0      	beq.n	80025a8 <HAL_RCC_OscConfig+0xc0>
 80025c6:	e014      	b.n	80025f2 <HAL_RCC_OscConfig+0x10a>
        }
      }
      else
      {
        /* Get Start Tick */
        tickstart = HAL_GetTick();
 80025c8:	f7fe faec 	bl	8000ba4 <HAL_GetTick>
 80025cc:	6138      	str	r0, [r7, #16]

        /* Wait till HSE is bypassed or disabled */
        while(__HAL_RCC_GET_FLAG(RCC_FLAG_HSERDY) != RESET)
 80025ce:	e008      	b.n	80025e2 <HAL_RCC_OscConfig+0xfa>
        {
          if((HAL_GetTick() - tickstart ) > HSE_TIMEOUT_VALUE)
 80025d0:	f7fe fae8 	bl	8000ba4 <HAL_GetTick>
 80025d4:	4602      	mov	r2, r0
 80025d6:	693b      	ldr	r3, [r7, #16]
 80025d8:	1ad3      	subs	r3, r2, r3
 80025da:	2b64      	cmp	r3, #100	; 0x64
 80025dc:	d901      	bls.n	80025e2 <HAL_RCC_OscConfig+0xfa>
          {
            return HAL_TIMEOUT;
 80025de:	2303      	movs	r3, #3
 80025e0:	e1e7      	b.n	80029b2 <HAL_RCC_OscConfig+0x4ca>
        while(__HAL_RCC_GET_FLAG(RCC_FLAG_HSERDY) != RESET)
 80025e2:	4b6c      	ldr	r3, [pc, #432]	; (8002794 <HAL_RCC_OscConfig+0x2ac>)
 80025e4:	681b      	ldr	r3, [r3, #0]
 80025e6:	f403 3300 	and.w	r3, r3, #131072	; 0x20000
 80025ea:	2b00      	cmp	r3, #0
 80025ec:	d1f0      	bne.n	80025d0 <HAL_RCC_OscConfig+0xe8>
 80025ee:	e000      	b.n	80025f2 <HAL_RCC_OscConfig+0x10a>
      if((__HAL_RCC_GET_FLAG(RCC_FLAG_HSERDY) != RESET) && (RCC_OscInitStruct->HSEState == RCC_HSE_OFF))
 80025f0:	bf00      	nop
        }
      }
    }
  }
  /*----------------------------- HSI Configuration --------------------------*/
  if(((RCC_OscInitStruct->OscillatorType) & RCC_OSCILLATORTYPE_HSI) == RCC_OSCILLATORTYPE_HSI)
 80025f2:	687b      	ldr	r3, [r7, #4]
 80025f4:	681b      	ldr	r3, [r3, #0]
 80025f6:	f003 0302 	and.w	r3, r3, #2
 80025fa:	2b00      	cmp	r3, #0
 80025fc:	d063      	beq.n	80026c6 <HAL_RCC_OscConfig+0x1de>
    /* Check the parameters */
    assert_param(IS_RCC_HSI(RCC_OscInitStruct->HSIState));
    assert_param(IS_RCC_CALIBRATION_VALUE(RCC_OscInitStruct->HSICalibrationValue));

    /* Check if HSI is used as system clock or as PLL source when PLL is selected as system clock */
    if((__HAL_RCC_GET_SYSCLK_SOURCE() == RCC_CFGR_SWS_HSI) ||\
 80025fe:	4b65      	ldr	r3, [pc, #404]	; (8002794 <HAL_RCC_OscConfig+0x2ac>)
 8002600:	689b      	ldr	r3, [r3, #8]
 8002602:	f003 030c 	and.w	r3, r3, #12
 8002606:	2b00      	cmp	r3, #0
 8002608:	d00b      	beq.n	8002622 <HAL_RCC_OscConfig+0x13a>
      ((__HAL_RCC_GET_SYSCLK_SOURCE() == RCC_CFGR_SWS_PLL) && ((RCC->PLLCFGR & RCC_PLLCFGR_PLLSRC) == RCC_PLLCFGR_PLLSRC_HSI)))
 800260a:	4b62      	ldr	r3, [pc, #392]	; (8002794 <HAL_RCC_OscConfig+0x2ac>)
 800260c:	689b      	ldr	r3, [r3, #8]
 800260e:	f003 030c 	and.w	r3, r3, #12
    if((__HAL_RCC_GET_SYSCLK_SOURCE() == RCC_CFGR_SWS_HSI) ||\
 8002612:	2b08      	cmp	r3, #8
 8002614:	d11c      	bne.n	8002650 <HAL_RCC_OscConfig+0x168>
      ((__HAL_RCC_GET_SYSCLK_SOURCE() == RCC_CFGR_SWS_PLL) && ((RCC->PLLCFGR & RCC_PLLCFGR_PLLSRC) == RCC_PLLCFGR_PLLSRC_HSI)))
 8002616:	4b5f      	ldr	r3, [pc, #380]	; (8002794 <HAL_RCC_OscConfig+0x2ac>)
 8002618:	685b      	ldr	r3, [r3, #4]
 800261a:	f403 0380 	and.w	r3, r3, #4194304	; 0x400000
 800261e:	2b00      	cmp	r3, #0
 8002620:	d116      	bne.n	8002650 <HAL_RCC_OscConfig+0x168>
    {
      /* When HSI is used as system clock it will not disabled */
      if((__HAL_RCC_GET_FLAG(RCC_FLAG_HSIRDY) != RESET) && (RCC_OscInitStruct->HSIState != RCC_HSI_ON))
 8002622:	4b5c      	ldr	r3, [pc, #368]	; (8002794 <HAL_RCC_OscConfig+0x2ac>)
 8002624:	681b      	ldr	r3, [r3, #0]
 8002626:	f003 0302 	and.w	r3, r3, #2
 800262a:	2b00      	cmp	r3, #0
 800262c:	d005      	beq.n	800263a <HAL_RCC_OscConfig+0x152>
 800262e:	687b      	ldr	r3, [r7, #4]
 8002630:	68db      	ldr	r3, [r3, #12]
 8002632:	2b01      	cmp	r3, #1
 8002634:	d001      	beq.n	800263a <HAL_RCC_OscConfig+0x152>
      {
        return HAL_ERROR;
 8002636:	2301      	movs	r3, #1
 8002638:	e1bb      	b.n	80029b2 <HAL_RCC_OscConfig+0x4ca>
      }
      /* Otherwise, just the calibration is allowed */
      else
      {
        /* Adjusts the Internal High Speed oscillator (HSI) calibration value.*/
        __HAL_RCC_HSI_CALIBRATIONVALUE_ADJUST(RCC_OscInitStruct->HSICalibrationValue);
 800263a:	4b56      	ldr	r3, [pc, #344]	; (8002794 <HAL_RCC_OscConfig+0x2ac>)
 800263c:	681b      	ldr	r3, [r3, #0]
 800263e:	f023 02f8 	bic.w	r2, r3, #248	; 0xf8
 8002642:	687b      	ldr	r3, [r7, #4]
 8002644:	691b      	ldr	r3, [r3, #16]
 8002646:	00db      	lsls	r3, r3, #3
 8002648:	4952      	ldr	r1, [pc, #328]	; (8002794 <HAL_RCC_OscConfig+0x2ac>)
 800264a:	4313      	orrs	r3, r2
 800264c:	600b      	str	r3, [r1, #0]
      if((__HAL_RCC_GET_FLAG(RCC_FLAG_HSIRDY) != RESET) && (RCC_OscInitStruct->HSIState != RCC_HSI_ON))
 800264e:	e03a      	b.n	80026c6 <HAL_RCC_OscConfig+0x1de>
      }
    }
    else
    {
      /* Check the HSI State */
      if((RCC_OscInitStruct->HSIState)!= RCC_HSI_OFF)
 8002650:	687b      	ldr	r3, [r7, #4]
 8002652:	68db      	ldr	r3, [r3, #12]
 8002654:	2b00      	cmp	r3, #0
 8002656:	d020      	beq.n	800269a <HAL_RCC_OscConfig+0x1b2>
      {
        /* Enable the Internal High Speed oscillator (HSI). */
        __HAL_RCC_HSI_ENABLE();
 8002658:	4b4f      	ldr	r3, [pc, #316]	; (8002798 <HAL_RCC_OscConfig+0x2b0>)
 800265a:	2201      	movs	r2, #1
 800265c:	601a      	str	r2, [r3, #0]

        /* Get Start Tick*/
        tickstart = HAL_GetTick();
 800265e:	f7fe faa1 	bl	8000ba4 <HAL_GetTick>
 8002662:	6138      	str	r0, [r7, #16]

        /* Wait till HSI is ready */
        while(__HAL_RCC_GET_FLAG(RCC_FLAG_HSIRDY) == RESET)
 8002664:	e008      	b.n	8002678 <HAL_RCC_OscConfig+0x190>
        {
          if((HAL_GetTick() - tickstart ) > HSI_TIMEOUT_VALUE)
 8002666:	f7fe fa9d 	bl	8000ba4 <HAL_GetTick>
 800266a:	4602      	mov	r2, r0
 800266c:	693b      	ldr	r3, [r7, #16]
 800266e:	1ad3      	subs	r3, r2, r3
 8002670:	2b02      	cmp	r3, #2
 8002672:	d901      	bls.n	8002678 <HAL_RCC_OscConfig+0x190>
          {
            return HAL_TIMEOUT;
 8002674:	2303      	movs	r3, #3
 8002676:	e19c      	b.n	80029b2 <HAL_RCC_OscConfig+0x4ca>
        while(__HAL_RCC_GET_FLAG(RCC_FLAG_HSIRDY) == RESET)
 8002678:	4b46      	ldr	r3, [pc, #280]	; (8002794 <HAL_RCC_OscConfig+0x2ac>)
 800267a:	681b      	ldr	r3, [r3, #0]
 800267c:	f003 0302 	and.w	r3, r3, #2
 8002680:	2b00      	cmp	r3, #0
 8002682:	d0f0      	beq.n	8002666 <HAL_RCC_OscConfig+0x17e>
          }
        }

        /* Adjusts the Internal High Speed oscillator (HSI) calibration value. */
        __HAL_RCC_HSI_CALIBRATIONVALUE_ADJUST(RCC_OscInitStruct->HSICalibrationValue);
 8002684:	4b43      	ldr	r3, [pc, #268]	; (8002794 <HAL_RCC_OscConfig+0x2ac>)
 8002686:	681b      	ldr	r3, [r3, #0]
 8002688:	f023 02f8 	bic.w	r2, r3, #248	; 0xf8
 800268c:	687b      	ldr	r3, [r7, #4]
 800268e:	691b      	ldr	r3, [r3, #16]
 8002690:	00db      	lsls	r3, r3, #3
 8002692:	4940      	ldr	r1, [pc, #256]	; (8002794 <HAL_RCC_OscConfig+0x2ac>)
 8002694:	4313      	orrs	r3, r2
 8002696:	600b      	str	r3, [r1, #0]
 8002698:	e015      	b.n	80026c6 <HAL_RCC_OscConfig+0x1de>
      }
      else
      {
        /* Disable the Internal High Speed oscillator (HSI). */
        __HAL_RCC_HSI_DISABLE();
 800269a:	4b3f      	ldr	r3, [pc, #252]	; (8002798 <HAL_RCC_OscConfig+0x2b0>)
 800269c:	2200      	movs	r2, #0
 800269e:	601a      	str	r2, [r3, #0]

        /* Get Start Tick*/
        tickstart = HAL_GetTick();
 80026a0:	f7fe fa80 	bl	8000ba4 <HAL_GetTick>
 80026a4:	6138      	str	r0, [r7, #16]

        /* Wait till HSI is ready */
        while(__HAL_RCC_GET_FLAG(RCC_FLAG_HSIRDY) != RESET)
 80026a6:	e008      	b.n	80026ba <HAL_RCC_OscConfig+0x1d2>
        {
          if((HAL_GetTick() - tickstart ) > HSI_TIMEOUT_VALUE)
 80026a8:	f7fe fa7c 	bl	8000ba4 <HAL_GetTick>
 80026ac:	4602      	mov	r2, r0
 80026ae:	693b      	ldr	r3, [r7, #16]
 80026b0:	1ad3      	subs	r3, r2, r3
 80026b2:	2b02      	cmp	r3, #2
 80026b4:	d901      	bls.n	80026ba <HAL_RCC_OscConfig+0x1d2>
          {
            return HAL_TIMEOUT;
 80026b6:	2303      	movs	r3, #3
 80026b8:	e17b      	b.n	80029b2 <HAL_RCC_OscConfig+0x4ca>
        while(__HAL_RCC_GET_FLAG(RCC_FLAG_HSIRDY) != RESET)
 80026ba:	4b36      	ldr	r3, [pc, #216]	; (8002794 <HAL_RCC_OscConfig+0x2ac>)
 80026bc:	681b      	ldr	r3, [r3, #0]
 80026be:	f003 0302 	and.w	r3, r3, #2
 80026c2:	2b00      	cmp	r3, #0
 80026c4:	d1f0      	bne.n	80026a8 <HAL_RCC_OscConfig+0x1c0>
        }
      }
    }
  }
  /*------------------------------ LSI Configuration -------------------------*/
  if(((RCC_OscInitStruct->OscillatorType) & RCC_OSCILLATORTYPE_LSI) == RCC_OSCILLATORTYPE_LSI)
 80026c6:	687b      	ldr	r3, [r7, #4]
 80026c8:	681b      	ldr	r3, [r3, #0]
 80026ca:	f003 0308 	and.w	r3, r3, #8
 80026ce:	2b00      	cmp	r3, #0
 80026d0:	d030      	beq.n	8002734 <HAL_RCC_OscConfig+0x24c>
  {
    /* Check the parameters */
    assert_param(IS_RCC_LSI(RCC_OscInitStruct->LSIState));

    /* Check the LSI State */
    if((RCC_OscInitStruct->LSIState)!= RCC_LSI_OFF)
 80026d2:	687b      	ldr	r3, [r7, #4]
 80026d4:	695b      	ldr	r3, [r3, #20]
 80026d6:	2b00      	cmp	r3, #0
 80026d8:	d016      	beq.n	8002708 <HAL_RCC_OscConfig+0x220>
    {
      /* Enable the Internal Low Speed oscillator (LSI). */
      __HAL_RCC_LSI_ENABLE();
 80026da:	4b30      	ldr	r3, [pc, #192]	; (800279c <HAL_RCC_OscConfig+0x2b4>)
 80026dc:	2201      	movs	r2, #1
 80026de:	601a      	str	r2, [r3, #0]

      /* Get Start Tick*/
      tickstart = HAL_GetTick();
 80026e0:	f7fe fa60 	bl	8000ba4 <HAL_GetTick>
 80026e4:	6138      	str	r0, [r7, #16]

      /* Wait till LSI is ready */
      while(__HAL_RCC_GET_FLAG(RCC_FLAG_LSIRDY) == RESET)
 80026e6:	e008      	b.n	80026fa <HAL_RCC_OscConfig+0x212>
      {
        if((HAL_GetTick() - tickstart ) > LSI_TIMEOUT_VALUE)
 80026e8:	f7fe fa5c 	bl	8000ba4 <HAL_GetTick>
 80026ec:	4602      	mov	r2, r0
 80026ee:	693b      	ldr	r3, [r7, #16]
 80026f0:	1ad3      	subs	r3, r2, r3
 80026f2:	2b02      	cmp	r3, #2
 80026f4:	d901      	bls.n	80026fa <HAL_RCC_OscConfig+0x212>
        {
          return HAL_TIMEOUT;
 80026f6:	2303      	movs	r3, #3
 80026f8:	e15b      	b.n	80029b2 <HAL_RCC_OscConfig+0x4ca>
      while(__HAL_RCC_GET_FLAG(RCC_FLAG_LSIRDY) == RESET)
 80026fa:	4b26      	ldr	r3, [pc, #152]	; (8002794 <HAL_RCC_OscConfig+0x2ac>)
 80026fc:	6f5b      	ldr	r3, [r3, #116]	; 0x74
 80026fe:	f003 0302 	and.w	r3, r3, #2
 8002702:	2b00      	cmp	r3, #0
 8002704:	d0f0      	beq.n	80026e8 <HAL_RCC_OscConfig+0x200>
 8002706:	e015      	b.n	8002734 <HAL_RCC_OscConfig+0x24c>
      }
    }
    else
    {
      /* Disable the Internal Low Speed oscillator (LSI). */
      __HAL_RCC_LSI_DISABLE();
 8002708:	4b24      	ldr	r3, [pc, #144]	; (800279c <HAL_RCC_OscConfig+0x2b4>)
 800270a:	2200      	movs	r2, #0
 800270c:	601a      	str	r2, [r3, #0]

      /* Get Start Tick */
      tickstart = HAL_GetTick();
 800270e:	f7fe fa49 	bl	8000ba4 <HAL_GetTick>
 8002712:	6138      	str	r0, [r7, #16]

      /* Wait till LSI is ready */
      while(__HAL_RCC_GET_FLAG(RCC_FLAG_LSIRDY) != RESET)
 8002714:	e008      	b.n	8002728 <HAL_RCC_OscConfig+0x240>
      {
        if((HAL_GetTick() - tickstart ) > LSI_TIMEOUT_VALUE)
 8002716:	f7fe fa45 	bl	8000ba4 <HAL_GetTick>
 800271a:	4602      	mov	r2, r0
 800271c:	693b      	ldr	r3, [r7, #16]
 800271e:	1ad3      	subs	r3, r2, r3
 8002720:	2b02      	cmp	r3, #2
 8002722:	d901      	bls.n	8002728 <HAL_RCC_OscConfig+0x240>
        {
          return HAL_TIMEOUT;
 8002724:	2303      	movs	r3, #3
 8002726:	e144      	b.n	80029b2 <HAL_RCC_OscConfig+0x4ca>
      while(__HAL_RCC_GET_FLAG(RCC_FLAG_LSIRDY) != RESET)
 8002728:	4b1a      	ldr	r3, [pc, #104]	; (8002794 <HAL_RCC_OscConfig+0x2ac>)
 800272a:	6f5b      	ldr	r3, [r3, #116]	; 0x74
 800272c:	f003 0302 	and.w	r3, r3, #2
 8002730:	2b00      	cmp	r3, #0
 8002732:	d1f0      	bne.n	8002716 <HAL_RCC_OscConfig+0x22e>
        }
      }
    }
  }
  /*------------------------------ LSE Configuration -------------------------*/
  if(((RCC_OscInitStruct->OscillatorType) & RCC_OSCILLATORTYPE_LSE) == RCC_OSCILLATORTYPE_LSE)
 8002734:	687b      	ldr	r3, [r7, #4]
 8002736:	681b      	ldr	r3, [r3, #0]
 8002738:	f003 0304 	and.w	r3, r3, #4
 800273c:	2b00      	cmp	r3, #0
 800273e:	f000 80a0 	beq.w	8002882 <HAL_RCC_OscConfig+0x39a>
  {
    FlagStatus       pwrclkchanged = RESET;
 8002742:	2300      	movs	r3, #0
 8002744:	75fb      	strb	r3, [r7, #23]
    /* Check the parameters */
    assert_param(IS_RCC_LSE(RCC_OscInitStruct->LSEState));

    /* Update LSE configuration in Backup Domain control register    */
    /* Requires to enable write access to Backup Domain of necessary */
    if(__HAL_RCC_PWR_IS_CLK_DISABLED())
 8002746:	4b13      	ldr	r3, [pc, #76]	; (8002794 <HAL_RCC_OscConfig+0x2ac>)
 8002748:	6c1b      	ldr	r3, [r3, #64]	; 0x40
 800274a:	f003 5380 	and.w	r3, r3, #268435456	; 0x10000000
 800274e:	2b00      	cmp	r3, #0
 8002750:	d10f      	bne.n	8002772 <HAL_RCC_OscConfig+0x28a>
    {
      __HAL_RCC_PWR_CLK_ENABLE();
 8002752:	2300      	movs	r3, #0
 8002754:	60bb      	str	r3, [r7, #8]
 8002756:	4b0f      	ldr	r3, [pc, #60]	; (8002794 <HAL_RCC_OscConfig+0x2ac>)
 8002758:	6c1b      	ldr	r3, [r3, #64]	; 0x40
 800275a:	4a0e      	ldr	r2, [pc, #56]	; (8002794 <HAL_RCC_OscConfig+0x2ac>)
 800275c:	f043 5380 	orr.w	r3, r3, #268435456	; 0x10000000
 8002760:	6413      	str	r3, [r2, #64]	; 0x40
 8002762:	4b0c      	ldr	r3, [pc, #48]	; (8002794 <HAL_RCC_OscConfig+0x2ac>)
 8002764:	6c1b      	ldr	r3, [r3, #64]	; 0x40
 8002766:	f003 5380 	and.w	r3, r3, #268435456	; 0x10000000
 800276a:	60bb      	str	r3, [r7, #8]
 800276c:	68bb      	ldr	r3, [r7, #8]
      pwrclkchanged = SET;
 800276e:	2301      	movs	r3, #1
 8002770:	75fb      	strb	r3, [r7, #23]
    }

    if(HAL_IS_BIT_CLR(PWR->CR, PWR_CR_DBP))
 8002772:	4b0b      	ldr	r3, [pc, #44]	; (80027a0 <HAL_RCC_OscConfig+0x2b8>)
 8002774:	681b      	ldr	r3, [r3, #0]
 8002776:	f403 7380 	and.w	r3, r3, #256	; 0x100
 800277a:	2b00      	cmp	r3, #0
 800277c:	d121      	bne.n	80027c2 <HAL_RCC_OscConfig+0x2da>
    {
      /* Enable write access to Backup domain */
      SET_BIT(PWR->CR, PWR_CR_DBP);
 800277e:	4b08      	ldr	r3, [pc, #32]	; (80027a0 <HAL_RCC_OscConfig+0x2b8>)
 8002780:	681b      	ldr	r3, [r3, #0]
 8002782:	4a07      	ldr	r2, [pc, #28]	; (80027a0 <HAL_RCC_OscConfig+0x2b8>)
 8002784:	f443 7380 	orr.w	r3, r3, #256	; 0x100
 8002788:	6013      	str	r3, [r2, #0]

      /* Wait for Backup domain Write protection disable */
      tickstart = HAL_GetTick();
 800278a:	f7fe fa0b 	bl	8000ba4 <HAL_GetTick>
 800278e:	6138      	str	r0, [r7, #16]

      while(HAL_IS_BIT_CLR(PWR->CR, PWR_CR_DBP))
 8002790:	e011      	b.n	80027b6 <HAL_RCC_OscConfig+0x2ce>
 8002792:	bf00      	nop
 8002794:	40023800 	.word	0x40023800
 8002798:	42470000 	.word	0x42470000
 800279c:	42470e80 	.word	0x42470e80
 80027a0:	40007000 	.word	0x40007000
      {
        if((HAL_GetTick() - tickstart) > RCC_DBP_TIMEOUT_VALUE)
 80027a4:	f7fe f9fe 	bl	8000ba4 <HAL_GetTick>
 80027a8:	4602      	mov	r2, r0
 80027aa:	693b      	ldr	r3, [r7, #16]
 80027ac:	1ad3      	subs	r3, r2, r3
 80027ae:	2b02      	cmp	r3, #2
 80027b0:	d901      	bls.n	80027b6 <HAL_RCC_OscConfig+0x2ce>
        {
          return HAL_TIMEOUT;
 80027b2:	2303      	movs	r3, #3
 80027b4:	e0fd      	b.n	80029b2 <HAL_RCC_OscConfig+0x4ca>
      while(HAL_IS_BIT_CLR(PWR->CR, PWR_CR_DBP))
 80027b6:	4b81      	ldr	r3, [pc, #516]	; (80029bc <HAL_RCC_OscConfig+0x4d4>)
 80027b8:	681b      	ldr	r3, [r3, #0]
 80027ba:	f403 7380 	and.w	r3, r3, #256	; 0x100
 80027be:	2b00      	cmp	r3, #0
 80027c0:	d0f0      	beq.n	80027a4 <HAL_RCC_OscConfig+0x2bc>
        }
      }
    }

    /* Set the new LSE configuration -----------------------------------------*/
    __HAL_RCC_LSE_CONFIG(RCC_OscInitStruct->LSEState);
 80027c2:	687b      	ldr	r3, [r7, #4]
 80027c4:	689b      	ldr	r3, [r3, #8]
 80027c6:	2b01      	cmp	r3, #1
 80027c8:	d106      	bne.n	80027d8 <HAL_RCC_OscConfig+0x2f0>
 80027ca:	4b7d      	ldr	r3, [pc, #500]	; (80029c0 <HAL_RCC_OscConfig+0x4d8>)
 80027cc:	6f1b      	ldr	r3, [r3, #112]	; 0x70
 80027ce:	4a7c      	ldr	r2, [pc, #496]	; (80029c0 <HAL_RCC_OscConfig+0x4d8>)
 80027d0:	f043 0301 	orr.w	r3, r3, #1
 80027d4:	6713      	str	r3, [r2, #112]	; 0x70
 80027d6:	e01c      	b.n	8002812 <HAL_RCC_OscConfig+0x32a>
 80027d8:	687b      	ldr	r3, [r7, #4]
 80027da:	689b      	ldr	r3, [r3, #8]
 80027dc:	2b05      	cmp	r3, #5
 80027de:	d10c      	bne.n	80027fa <HAL_RCC_OscConfig+0x312>
 80027e0:	4b77      	ldr	r3, [pc, #476]	; (80029c0 <HAL_RCC_OscConfig+0x4d8>)
 80027e2:	6f1b      	ldr	r3, [r3, #112]	; 0x70
 80027e4:	4a76      	ldr	r2, [pc, #472]	; (80029c0 <HAL_RCC_OscConfig+0x4d8>)
 80027e6:	f043 0304 	orr.w	r3, r3, #4
 80027ea:	6713      	str	r3, [r2, #112]	; 0x70
 80027ec:	4b74      	ldr	r3, [pc, #464]	; (80029c0 <HAL_RCC_OscConfig+0x4d8>)
 80027ee:	6f1b      	ldr	r3, [r3, #112]	; 0x70
 80027f0:	4a73      	ldr	r2, [pc, #460]	; (80029c0 <HAL_RCC_OscConfig+0x4d8>)
 80027f2:	f043 0301 	orr.w	r3, r3, #1
 80027f6:	6713      	str	r3, [r2, #112]	; 0x70
 80027f8:	e00b      	b.n	8002812 <HAL_RCC_OscConfig+0x32a>
 80027fa:	4b71      	ldr	r3, [pc, #452]	; (80029c0 <HAL_RCC_OscConfig+0x4d8>)
 80027fc:	6f1b      	ldr	r3, [r3, #112]	; 0x70
 80027fe:	4a70      	ldr	r2, [pc, #448]	; (80029c0 <HAL_RCC_OscConfig+0x4d8>)
 8002800:	f023 0301 	bic.w	r3, r3, #1
 8002804:	6713      	str	r3, [r2, #112]	; 0x70
 8002806:	4b6e      	ldr	r3, [pc, #440]	; (80029c0 <HAL_RCC_OscConfig+0x4d8>)
 8002808:	6f1b      	ldr	r3, [r3, #112]	; 0x70
 800280a:	4a6d      	ldr	r2, [pc, #436]	; (80029c0 <HAL_RCC_OscConfig+0x4d8>)
 800280c:	f023 0304 	bic.w	r3, r3, #4
 8002810:	6713      	str	r3, [r2, #112]	; 0x70
    /* Check the LSE State */
    if((RCC_OscInitStruct->LSEState) != RCC_LSE_OFF)
 8002812:	687b      	ldr	r3, [r7, #4]
 8002814:	689b      	ldr	r3, [r3, #8]
 8002816:	2b00      	cmp	r3, #0
 8002818:	d015      	beq.n	8002846 <HAL_RCC_OscConfig+0x35e>
    {
      /* Get Start Tick*/
      tickstart = HAL_GetTick();
 800281a:	f7fe f9c3 	bl	8000ba4 <HAL_GetTick>
 800281e:	6138      	str	r0, [r7, #16]

      /* Wait till LSE is ready */
      while(__HAL_RCC_GET_FLAG(RCC_FLAG_LSERDY) == RESET)
 8002820:	e00a      	b.n	8002838 <HAL_RCC_OscConfig+0x350>
      {
        if((HAL_GetTick() - tickstart ) > RCC_LSE_TIMEOUT_VALUE)
 8002822:	f7fe f9bf 	bl	8000ba4 <HAL_GetTick>
 8002826:	4602      	mov	r2, r0
 8002828:	693b      	ldr	r3, [r7, #16]
 800282a:	1ad3      	subs	r3, r2, r3
 800282c:	f241 3288 	movw	r2, #5000	; 0x1388
 8002830:	4293      	cmp	r3, r2
 8002832:	d901      	bls.n	8002838 <HAL_RCC_OscConfig+0x350>
        {
          return HAL_TIMEOUT;
 8002834:	2303      	movs	r3, #3
 8002836:	e0bc      	b.n	80029b2 <HAL_RCC_OscConfig+0x4ca>
      while(__HAL_RCC_GET_FLAG(RCC_FLAG_LSERDY) == RESET)
 8002838:	4b61      	ldr	r3, [pc, #388]	; (80029c0 <HAL_RCC_OscConfig+0x4d8>)
 800283a:	6f1b      	ldr	r3, [r3, #112]	; 0x70
 800283c:	f003 0302 	and.w	r3, r3, #2
 8002840:	2b00      	cmp	r3, #0
 8002842:	d0ee      	beq.n	8002822 <HAL_RCC_OscConfig+0x33a>
 8002844:	e014      	b.n	8002870 <HAL_RCC_OscConfig+0x388>
      }
    }
    else
    {
      /* Get Start Tick */
      tickstart = HAL_GetTick();
 8002846:	f7fe f9ad 	bl	8000ba4 <HAL_GetTick>
 800284a:	6138      	str	r0, [r7, #16]

      /* Wait till LSE is ready */
      while(__HAL_RCC_GET_FLAG(RCC_FLAG_LSERDY) != RESET)
 800284c:	e00a      	b.n	8002864 <HAL_RCC_OscConfig+0x37c>
      {
        if((HAL_GetTick() - tickstart ) > RCC_LSE_TIMEOUT_VALUE)
 800284e:	f7fe f9a9 	bl	8000ba4 <HAL_GetTick>
 8002852:	4602      	mov	r2, r0
 8002854:	693b      	ldr	r3, [r7, #16]
 8002856:	1ad3      	subs	r3, r2, r3
 8002858:	f241 3288 	movw	r2, #5000	; 0x1388
 800285c:	4293      	cmp	r3, r2
 800285e:	d901      	bls.n	8002864 <HAL_RCC_OscConfig+0x37c>
        {
          return HAL_TIMEOUT;
 8002860:	2303      	movs	r3, #3
 8002862:	e0a6      	b.n	80029b2 <HAL_RCC_OscConfig+0x4ca>
      while(__HAL_RCC_GET_FLAG(RCC_FLAG_LSERDY) != RESET)
 8002864:	4b56      	ldr	r3, [pc, #344]	; (80029c0 <HAL_RCC_OscConfig+0x4d8>)
 8002866:	6f1b      	ldr	r3, [r3, #112]	; 0x70
 8002868:	f003 0302 	and.w	r3, r3, #2
 800286c:	2b00      	cmp	r3, #0
 800286e:	d1ee      	bne.n	800284e <HAL_RCC_OscConfig+0x366>
        }
      }
    }

    /* Restore clock configuration if changed */
    if(pwrclkchanged == SET)
 8002870:	7dfb      	ldrb	r3, [r7, #23]
 8002872:	2b01      	cmp	r3, #1
 8002874:	d105      	bne.n	8002882 <HAL_RCC_OscConfig+0x39a>
    {
      __HAL_RCC_PWR_CLK_DISABLE();
 8002876:	4b52      	ldr	r3, [pc, #328]	; (80029c0 <HAL_RCC_OscConfig+0x4d8>)
 8002878:	6c1b      	ldr	r3, [r3, #64]	; 0x40
 800287a:	4a51      	ldr	r2, [pc, #324]	; (80029c0 <HAL_RCC_OscConfig+0x4d8>)
 800287c:	f023 5380 	bic.w	r3, r3, #268435456	; 0x10000000
 8002880:	6413      	str	r3, [r2, #64]	; 0x40
    }
  }
  /*-------------------------------- PLL Configuration -----------------------*/
  /* Check the parameters */
  assert_param(IS_RCC_PLL(RCC_OscInitStruct->PLL.PLLState));
  if ((RCC_OscInitStruct->PLL.PLLState) != RCC_PLL_NONE)
 8002882:	687b      	ldr	r3, [r7, #4]
 8002884:	699b      	ldr	r3, [r3, #24]
 8002886:	2b00      	cmp	r3, #0
 8002888:	f000 8092 	beq.w	80029b0 <HAL_RCC_OscConfig+0x4c8>
  {
    /* Check if the PLL is used as system clock or not */
    if(__HAL_RCC_GET_SYSCLK_SOURCE() != RCC_CFGR_SWS_PLL)
 800288c:	4b4c      	ldr	r3, [pc, #304]	; (80029c0 <HAL_RCC_OscConfig+0x4d8>)
 800288e:	689b      	ldr	r3, [r3, #8]
 8002890:	f003 030c 	and.w	r3, r3, #12
 8002894:	2b08      	cmp	r3, #8
 8002896:	d05c      	beq.n	8002952 <HAL_RCC_OscConfig+0x46a>
    {
      if((RCC_OscInitStruct->PLL.PLLState) == RCC_PLL_ON)
 8002898:	687b      	ldr	r3, [r7, #4]
 800289a:	699b      	ldr	r3, [r3, #24]
 800289c:	2b02      	cmp	r3, #2
 800289e:	d141      	bne.n	8002924 <HAL_RCC_OscConfig+0x43c>
        assert_param(IS_RCC_PLLN_VALUE(RCC_OscInitStruct->PLL.PLLN));
        assert_param(IS_RCC_PLLP_VALUE(RCC_OscInitStruct->PLL.PLLP));
        assert_param(IS_RCC_PLLQ_VALUE(RCC_OscInitStruct->PLL.PLLQ));

        /* Disable the main PLL. */
        __HAL_RCC_PLL_DISABLE();
 80028a0:	4b48      	ldr	r3, [pc, #288]	; (80029c4 <HAL_RCC_OscConfig+0x4dc>)
 80028a2:	2200      	movs	r2, #0
 80028a4:	601a      	str	r2, [r3, #0]

        /* Get Start Tick */
        tickstart = HAL_GetTick();
 80028a6:	f7fe f97d 	bl	8000ba4 <HAL_GetTick>
 80028aa:	6138      	str	r0, [r7, #16]

        /* Wait till PLL is ready */
        while(__HAL_RCC_GET_FLAG(RCC_FLAG_PLLRDY) != RESET)
 80028ac:	e008      	b.n	80028c0 <HAL_RCC_OscConfig+0x3d8>
        {
          if((HAL_GetTick() - tickstart ) > PLL_TIMEOUT_VALUE)
 80028ae:	f7fe f979 	bl	8000ba4 <HAL_GetTick>
 80028b2:	4602      	mov	r2, r0
 80028b4:	693b      	ldr	r3, [r7, #16]
 80028b6:	1ad3      	subs	r3, r2, r3
 80028b8:	2b02      	cmp	r3, #2
 80028ba:	d901      	bls.n	80028c0 <HAL_RCC_OscConfig+0x3d8>
          {
            return HAL_TIMEOUT;
 80028bc:	2303      	movs	r3, #3
 80028be:	e078      	b.n	80029b2 <HAL_RCC_OscConfig+0x4ca>
        while(__HAL_RCC_GET_FLAG(RCC_FLAG_PLLRDY) != RESET)
 80028c0:	4b3f      	ldr	r3, [pc, #252]	; (80029c0 <HAL_RCC_OscConfig+0x4d8>)
 80028c2:	681b      	ldr	r3, [r3, #0]
 80028c4:	f003 7300 	and.w	r3, r3, #33554432	; 0x2000000
 80028c8:	2b00      	cmp	r3, #0
 80028ca:	d1f0      	bne.n	80028ae <HAL_RCC_OscConfig+0x3c6>
          }
        }

        /* Configure the main PLL clock source, multiplication and division factors. */
        WRITE_REG(RCC->PLLCFGR, (RCC_OscInitStruct->PLL.PLLSource                                            | \
 80028cc:	687b      	ldr	r3, [r7, #4]
 80028ce:	69da      	ldr	r2, [r3, #28]
 80028d0:	687b      	ldr	r3, [r7, #4]
 80028d2:	6a1b      	ldr	r3, [r3, #32]
 80028d4:	431a      	orrs	r2, r3
 80028d6:	687b      	ldr	r3, [r7, #4]
 80028d8:	6a5b      	ldr	r3, [r3, #36]	; 0x24
 80028da:	019b      	lsls	r3, r3, #6
 80028dc:	431a      	orrs	r2, r3
 80028de:	687b      	ldr	r3, [r7, #4]
 80028e0:	6a9b      	ldr	r3, [r3, #40]	; 0x28
 80028e2:	085b      	lsrs	r3, r3, #1
 80028e4:	3b01      	subs	r3, #1
 80028e6:	041b      	lsls	r3, r3, #16
 80028e8:	431a      	orrs	r2, r3
 80028ea:	687b      	ldr	r3, [r7, #4]
 80028ec:	6adb      	ldr	r3, [r3, #44]	; 0x2c
 80028ee:	061b      	lsls	r3, r3, #24
 80028f0:	4933      	ldr	r1, [pc, #204]	; (80029c0 <HAL_RCC_OscConfig+0x4d8>)
 80028f2:	4313      	orrs	r3, r2
 80028f4:	604b      	str	r3, [r1, #4]
                                 RCC_OscInitStruct->PLL.PLLM                                                 | \
                                 (RCC_OscInitStruct->PLL.PLLN << RCC_PLLCFGR_PLLN_Pos)             | \
                                 (((RCC_OscInitStruct->PLL.PLLP >> 1U) - 1U) << RCC_PLLCFGR_PLLP_Pos) | \
                                 (RCC_OscInitStruct->PLL.PLLQ << RCC_PLLCFGR_PLLQ_Pos)));
        /* Enable the main PLL. */
        __HAL_RCC_PLL_ENABLE();
 80028f6:	4b33      	ldr	r3, [pc, #204]	; (80029c4 <HAL_RCC_OscConfig+0x4dc>)
 80028f8:	2201      	movs	r2, #1
 80028fa:	601a      	str	r2, [r3, #0]

        /* Get Start Tick */
        tickstart = HAL_GetTick();
 80028fc:	f7fe f952 	bl	8000ba4 <HAL_GetTick>
 8002900:	6138      	str	r0, [r7, #16]

        /* Wait till PLL is ready */
        while(__HAL_RCC_GET_FLAG(RCC_FLAG_PLLRDY) == RESET)
 8002902:	e008      	b.n	8002916 <HAL_RCC_OscConfig+0x42e>
        {
          if((HAL_GetTick() - tickstart ) > PLL_TIMEOUT_VALUE)
 8002904:	f7fe f94e 	bl	8000ba4 <HAL_GetTick>
 8002908:	4602      	mov	r2, r0
 800290a:	693b      	ldr	r3, [r7, #16]
 800290c:	1ad3      	subs	r3, r2, r3
 800290e:	2b02      	cmp	r3, #2
 8002910:	d901      	bls.n	8002916 <HAL_RCC_OscConfig+0x42e>
          {
            return HAL_TIMEOUT;
 8002912:	2303      	movs	r3, #3
 8002914:	e04d      	b.n	80029b2 <HAL_RCC_OscConfig+0x4ca>
        while(__HAL_RCC_GET_FLAG(RCC_FLAG_PLLRDY) == RESET)
 8002916:	4b2a      	ldr	r3, [pc, #168]	; (80029c0 <HAL_RCC_OscConfig+0x4d8>)
 8002918:	681b      	ldr	r3, [r3, #0]
 800291a:	f003 7300 	and.w	r3, r3, #33554432	; 0x2000000
 800291e:	2b00      	cmp	r3, #0
 8002920:	d0f0      	beq.n	8002904 <HAL_RCC_OscConfig+0x41c>
 8002922:	e045      	b.n	80029b0 <HAL_RCC_OscConfig+0x4c8>
        }
      }
      else
      {
        /* Disable the main PLL. */
        __HAL_RCC_PLL_DISABLE();
 8002924:	4b27      	ldr	r3, [pc, #156]	; (80029c4 <HAL_RCC_OscConfig+0x4dc>)
 8002926:	2200      	movs	r2, #0
 8002928:	601a      	str	r2, [r3, #0]

        /* Get Start Tick */
        tickstart = HAL_GetTick();
 800292a:	f7fe f93b 	bl	8000ba4 <HAL_GetTick>
 800292e:	6138      	str	r0, [r7, #16]

        /* Wait till PLL is ready */
        while(__HAL_RCC_GET_FLAG(RCC_FLAG_PLLRDY) != RESET)
 8002930:	e008      	b.n	8002944 <HAL_RCC_OscConfig+0x45c>
        {
          if((HAL_GetTick() - tickstart ) > PLL_TIMEOUT_VALUE)
 8002932:	f7fe f937 	bl	8000ba4 <HAL_GetTick>
 8002936:	4602      	mov	r2, r0
 8002938:	693b      	ldr	r3, [r7, #16]
 800293a:	1ad3      	subs	r3, r2, r3
 800293c:	2b02      	cmp	r3, #2
 800293e:	d901      	bls.n	8002944 <HAL_RCC_OscConfig+0x45c>
          {
            return HAL_TIMEOUT;
 8002940:	2303      	movs	r3, #3
 8002942:	e036      	b.n	80029b2 <HAL_RCC_OscConfig+0x4ca>
        while(__HAL_RCC_GET_FLAG(RCC_FLAG_PLLRDY) != RESET)
 8002944:	4b1e      	ldr	r3, [pc, #120]	; (80029c0 <HAL_RCC_OscConfig+0x4d8>)
 8002946:	681b      	ldr	r3, [r3, #0]
 8002948:	f003 7300 	and.w	r3, r3, #33554432	; 0x2000000
 800294c:	2b00      	cmp	r3, #0
 800294e:	d1f0      	bne.n	8002932 <HAL_RCC_OscConfig+0x44a>
 8002950:	e02e      	b.n	80029b0 <HAL_RCC_OscConfig+0x4c8>
      }
    }
    else
    {
      /* Check if there is a request to disable the PLL used as System clock source */
      if((RCC_OscInitStruct->PLL.PLLState) == RCC_PLL_OFF)
 8002952:	687b      	ldr	r3, [r7, #4]
 8002954:	699b      	ldr	r3, [r3, #24]
 8002956:	2b01      	cmp	r3, #1
 8002958:	d101      	bne.n	800295e <HAL_RCC_OscConfig+0x476>
      {
        return HAL_ERROR;
 800295a:	2301      	movs	r3, #1
 800295c:	e029      	b.n	80029b2 <HAL_RCC_OscConfig+0x4ca>
      }
      else
      {
        /* Do not return HAL_ERROR if request repeats the current configuration */
        pll_config = RCC->PLLCFGR;
 800295e:	4b18      	ldr	r3, [pc, #96]	; (80029c0 <HAL_RCC_OscConfig+0x4d8>)
 8002960:	685b      	ldr	r3, [r3, #4]
 8002962:	60fb      	str	r3, [r7, #12]
        if((READ_BIT(pll_config, RCC_PLLCFGR_PLLSRC) != RCC_OscInitStruct->PLL.PLLSource) ||
 8002964:	68fb      	ldr	r3, [r7, #12]
 8002966:	f403 0280 	and.w	r2, r3, #4194304	; 0x400000
 800296a:	687b      	ldr	r3, [r7, #4]
 800296c:	69db      	ldr	r3, [r3, #28]
 800296e:	429a      	cmp	r2, r3
 8002970:	d11c      	bne.n	80029ac <HAL_RCC_OscConfig+0x4c4>
           (READ_BIT(pll_config, RCC_PLLCFGR_PLLM) != RCC_OscInitStruct->PLL.PLLM) ||
 8002972:	68fb      	ldr	r3, [r7, #12]
 8002974:	f003 023f 	and.w	r2, r3, #63	; 0x3f
 8002978:	687b      	ldr	r3, [r7, #4]
 800297a:	6a1b      	ldr	r3, [r3, #32]
        if((READ_BIT(pll_config, RCC_PLLCFGR_PLLSRC) != RCC_OscInitStruct->PLL.PLLSource) ||
 800297c:	429a      	cmp	r2, r3
 800297e:	d115      	bne.n	80029ac <HAL_RCC_OscConfig+0x4c4>
           (READ_BIT(pll_config, RCC_PLLCFGR_PLLN) != RCC_OscInitStruct->PLL.PLLN) ||
 8002980:	68fa      	ldr	r2, [r7, #12]
 8002982:	f647 73c0 	movw	r3, #32704	; 0x7fc0
 8002986:	4013      	ands	r3, r2
 8002988:	687a      	ldr	r2, [r7, #4]
 800298a:	6a52      	ldr	r2, [r2, #36]	; 0x24
           (READ_BIT(pll_config, RCC_PLLCFGR_PLLM) != RCC_OscInitStruct->PLL.PLLM) ||
 800298c:	4293      	cmp	r3, r2
 800298e:	d10d      	bne.n	80029ac <HAL_RCC_OscConfig+0x4c4>
           (READ_BIT(pll_config, RCC_PLLCFGR_PLLP) != RCC_OscInitStruct->PLL.PLLP) ||
 8002990:	68fb      	ldr	r3, [r7, #12]
 8002992:	f403 3240 	and.w	r2, r3, #196608	; 0x30000
 8002996:	687b      	ldr	r3, [r7, #4]
 8002998:	6a9b      	ldr	r3, [r3, #40]	; 0x28
           (READ_BIT(pll_config, RCC_PLLCFGR_PLLN) != RCC_OscInitStruct->PLL.PLLN) ||
 800299a:	429a      	cmp	r2, r3
 800299c:	d106      	bne.n	80029ac <HAL_RCC_OscConfig+0x4c4>
           (READ_BIT(pll_config, RCC_PLLCFGR_PLLQ) != RCC_OscInitStruct->PLL.PLLQ))
 800299e:	68fb      	ldr	r3, [r7, #12]
 80029a0:	f003 6270 	and.w	r2, r3, #251658240	; 0xf000000
 80029a4:	687b      	ldr	r3, [r7, #4]
 80029a6:	6adb      	ldr	r3, [r3, #44]	; 0x2c
           (READ_BIT(pll_config, RCC_PLLCFGR_PLLP) != RCC_OscInitStruct->PLL.PLLP) ||
 80029a8:	429a      	cmp	r2, r3
 80029aa:	d001      	beq.n	80029b0 <HAL_RCC_OscConfig+0x4c8>
        {
          return HAL_ERROR;
 80029ac:	2301      	movs	r3, #1
 80029ae:	e000      	b.n	80029b2 <HAL_RCC_OscConfig+0x4ca>
        }
      }
    }
  }
  return HAL_OK;
 80029b0:	2300      	movs	r3, #0
}
 80029b2:	4618      	mov	r0, r3
 80029b4:	3718      	adds	r7, #24
 80029b6:	46bd      	mov	sp, r7
 80029b8:	bd80      	pop	{r7, pc}
 80029ba:	bf00      	nop
 80029bc:	40007000 	.word	0x40007000
 80029c0:	40023800 	.word	0x40023800
 80029c4:	42470060 	.word	0x42470060

080029c8 <HAL_RCC_ClockConfig>:
  *         HPRE[3:0] bits to ensure that HCLK not exceed the maximum allowed frequency
  *         (for more details refer to section above "Initialization/de-initialization functions")
  * @retval None
  */
HAL_StatusTypeDef HAL_RCC_ClockConfig(RCC_ClkInitTypeDef  *RCC_ClkInitStruct, uint32_t FLatency)
{
 80029c8:	b580      	push	{r7, lr}
 80029ca:	b084      	sub	sp, #16
 80029cc:	af00      	add	r7, sp, #0
 80029ce:	6078      	str	r0, [r7, #4]
 80029d0:	6039      	str	r1, [r7, #0]
  uint32_t tickstart;

  /* Check Null pointer */
  if(RCC_ClkInitStruct == NULL)
 80029d2:	687b      	ldr	r3, [r7, #4]
 80029d4:	2b00      	cmp	r3, #0
 80029d6:	d101      	bne.n	80029dc <HAL_RCC_ClockConfig+0x14>
  {
    return HAL_ERROR;
 80029d8:	2301      	movs	r3, #1
 80029da:	e0cc      	b.n	8002b76 <HAL_RCC_ClockConfig+0x1ae>
  /* To correctly read data from FLASH memory, the number of wait states (LATENCY)
    must be correctly programmed according to the frequency of the CPU clock
    (HCLK) and the supply voltage of the device. */

  /* Increasing the number of wait states because of higher CPU frequency */
  if(FLatency > __HAL_FLASH_GET_LATENCY())
 80029dc:	4b68      	ldr	r3, [pc, #416]	; (8002b80 <HAL_RCC_ClockConfig+0x1b8>)
 80029de:	681b      	ldr	r3, [r3, #0]
 80029e0:	f003 030f 	and.w	r3, r3, #15
 80029e4:	683a      	ldr	r2, [r7, #0]
 80029e6:	429a      	cmp	r2, r3
 80029e8:	d90c      	bls.n	8002a04 <HAL_RCC_ClockConfig+0x3c>
  {
    /* Program the new number of wait states to the LATENCY bits in the FLASH_ACR register */
    __HAL_FLASH_SET_LATENCY(FLatency);
 80029ea:	4b65      	ldr	r3, [pc, #404]	; (8002b80 <HAL_RCC_ClockConfig+0x1b8>)
 80029ec:	683a      	ldr	r2, [r7, #0]
 80029ee:	b2d2      	uxtb	r2, r2
 80029f0:	701a      	strb	r2, [r3, #0]

    /* Check that the new number of wait states is taken into account to access the Flash
    memory by reading the FLASH_ACR register */
    if(__HAL_FLASH_GET_LATENCY() != FLatency)
 80029f2:	4b63      	ldr	r3, [pc, #396]	; (8002b80 <HAL_RCC_ClockConfig+0x1b8>)
 80029f4:	681b      	ldr	r3, [r3, #0]
 80029f6:	f003 030f 	and.w	r3, r3, #15
 80029fa:	683a      	ldr	r2, [r7, #0]
 80029fc:	429a      	cmp	r2, r3
 80029fe:	d001      	beq.n	8002a04 <HAL_RCC_ClockConfig+0x3c>
    {
      return HAL_ERROR;
 8002a00:	2301      	movs	r3, #1
 8002a02:	e0b8      	b.n	8002b76 <HAL_RCC_ClockConfig+0x1ae>
    }
  }

  /*-------------------------- HCLK Configuration --------------------------*/
  if(((RCC_ClkInitStruct->ClockType) & RCC_CLOCKTYPE_HCLK) == RCC_CLOCKTYPE_HCLK)
 8002a04:	687b      	ldr	r3, [r7, #4]
 8002a06:	681b      	ldr	r3, [r3, #0]
 8002a08:	f003 0302 	and.w	r3, r3, #2
 8002a0c:	2b00      	cmp	r3, #0
 8002a0e:	d020      	beq.n	8002a52 <HAL_RCC_ClockConfig+0x8a>
  {
    /* Set the highest APBx dividers in order to ensure that we do not go through
       a non-spec phase whatever we decrease or increase HCLK. */
    if(((RCC_ClkInitStruct->ClockType) & RCC_CLOCKTYPE_PCLK1) == RCC_CLOCKTYPE_PCLK1)
 8002a10:	687b      	ldr	r3, [r7, #4]
 8002a12:	681b      	ldr	r3, [r3, #0]
 8002a14:	f003 0304 	and.w	r3, r3, #4
 8002a18:	2b00      	cmp	r3, #0
 8002a1a:	d005      	beq.n	8002a28 <HAL_RCC_ClockConfig+0x60>
    {
      MODIFY_REG(RCC->CFGR, RCC_CFGR_PPRE1, RCC_HCLK_DIV16);
 8002a1c:	4b59      	ldr	r3, [pc, #356]	; (8002b84 <HAL_RCC_ClockConfig+0x1bc>)
 8002a1e:	689b      	ldr	r3, [r3, #8]
 8002a20:	4a58      	ldr	r2, [pc, #352]	; (8002b84 <HAL_RCC_ClockConfig+0x1bc>)
 8002a22:	f443 53e0 	orr.w	r3, r3, #7168	; 0x1c00
 8002a26:	6093      	str	r3, [r2, #8]
    }

    if(((RCC_ClkInitStruct->ClockType) & RCC_CLOCKTYPE_PCLK2) == RCC_CLOCKTYPE_PCLK2)
 8002a28:	687b      	ldr	r3, [r7, #4]
 8002a2a:	681b      	ldr	r3, [r3, #0]
 8002a2c:	f003 0308 	and.w	r3, r3, #8
 8002a30:	2b00      	cmp	r3, #0
 8002a32:	d005      	beq.n	8002a40 <HAL_RCC_ClockConfig+0x78>
    {
      MODIFY_REG(RCC->CFGR, RCC_CFGR_PPRE2, (RCC_HCLK_DIV16 << 3));
 8002a34:	4b53      	ldr	r3, [pc, #332]	; (8002b84 <HAL_RCC_ClockConfig+0x1bc>)
 8002a36:	689b      	ldr	r3, [r3, #8]
 8002a38:	4a52      	ldr	r2, [pc, #328]	; (8002b84 <HAL_RCC_ClockConfig+0x1bc>)
 8002a3a:	f443 4360 	orr.w	r3, r3, #57344	; 0xe000
 8002a3e:	6093      	str	r3, [r2, #8]
    }

    assert_param(IS_RCC_HCLK(RCC_ClkInitStruct->AHBCLKDivider));
    MODIFY_REG(RCC->CFGR, RCC_CFGR_HPRE, RCC_ClkInitStruct->AHBCLKDivider);
 8002a40:	4b50      	ldr	r3, [pc, #320]	; (8002b84 <HAL_RCC_ClockConfig+0x1bc>)
 8002a42:	689b      	ldr	r3, [r3, #8]
 8002a44:	f023 02f0 	bic.w	r2, r3, #240	; 0xf0
 8002a48:	687b      	ldr	r3, [r7, #4]
 8002a4a:	689b      	ldr	r3, [r3, #8]
 8002a4c:	494d      	ldr	r1, [pc, #308]	; (8002b84 <HAL_RCC_ClockConfig+0x1bc>)
 8002a4e:	4313      	orrs	r3, r2
 8002a50:	608b      	str	r3, [r1, #8]
  }

  /*------------------------- SYSCLK Configuration ---------------------------*/
  if(((RCC_ClkInitStruct->ClockType) & RCC_CLOCKTYPE_SYSCLK) == RCC_CLOCKTYPE_SYSCLK)
 8002a52:	687b      	ldr	r3, [r7, #4]
 8002a54:	681b      	ldr	r3, [r3, #0]
 8002a56:	f003 0301 	and.w	r3, r3, #1
 8002a5a:	2b00      	cmp	r3, #0
 8002a5c:	d044      	beq.n	8002ae8 <HAL_RCC_ClockConfig+0x120>
  {
    assert_param(IS_RCC_SYSCLKSOURCE(RCC_ClkInitStruct->SYSCLKSource));

    /* HSE is selected as System Clock Source */
    if(RCC_ClkInitStruct->SYSCLKSource == RCC_SYSCLKSOURCE_HSE)
 8002a5e:	687b      	ldr	r3, [r7, #4]
 8002a60:	685b      	ldr	r3, [r3, #4]
 8002a62:	2b01      	cmp	r3, #1
 8002a64:	d107      	bne.n	8002a76 <HAL_RCC_ClockConfig+0xae>
    {
      /* Check the HSE ready flag */
      if(__HAL_RCC_GET_FLAG(RCC_FLAG_HSERDY) == RESET)
 8002a66:	4b47      	ldr	r3, [pc, #284]	; (8002b84 <HAL_RCC_ClockConfig+0x1bc>)
 8002a68:	681b      	ldr	r3, [r3, #0]
 8002a6a:	f403 3300 	and.w	r3, r3, #131072	; 0x20000
 8002a6e:	2b00      	cmp	r3, #0
 8002a70:	d119      	bne.n	8002aa6 <HAL_RCC_ClockConfig+0xde>
      {
        return HAL_ERROR;
 8002a72:	2301      	movs	r3, #1
 8002a74:	e07f      	b.n	8002b76 <HAL_RCC_ClockConfig+0x1ae>
      }
    }
    /* PLL is selected as System Clock Source */
    else if((RCC_ClkInitStruct->SYSCLKSource == RCC_SYSCLKSOURCE_PLLCLK)   ||
 8002a76:	687b      	ldr	r3, [r7, #4]
 8002a78:	685b      	ldr	r3, [r3, #4]
 8002a7a:	2b02      	cmp	r3, #2
 8002a7c:	d003      	beq.n	8002a86 <HAL_RCC_ClockConfig+0xbe>
            (RCC_ClkInitStruct->SYSCLKSource == RCC_SYSCLKSOURCE_PLLRCLK))
 8002a7e:	687b      	ldr	r3, [r7, #4]
 8002a80:	685b      	ldr	r3, [r3, #4]
    else if((RCC_ClkInitStruct->SYSCLKSource == RCC_SYSCLKSOURCE_PLLCLK)   ||
 8002a82:	2b03      	cmp	r3, #3
 8002a84:	d107      	bne.n	8002a96 <HAL_RCC_ClockConfig+0xce>
    {
      /* Check the PLL ready flag */
      if(__HAL_RCC_GET_FLAG(RCC_FLAG_PLLRDY) == RESET)
 8002a86:	4b3f      	ldr	r3, [pc, #252]	; (8002b84 <HAL_RCC_ClockConfig+0x1bc>)
 8002a88:	681b      	ldr	r3, [r3, #0]
 8002a8a:	f003 7300 	and.w	r3, r3, #33554432	; 0x2000000
 8002a8e:	2b00      	cmp	r3, #0
 8002a90:	d109      	bne.n	8002aa6 <HAL_RCC_ClockConfig+0xde>
      {
        return HAL_ERROR;
 8002a92:	2301      	movs	r3, #1
 8002a94:	e06f      	b.n	8002b76 <HAL_RCC_ClockConfig+0x1ae>
    }
    /* HSI is selected as System Clock Source */
    else
    {
      /* Check the HSI ready flag */
      if(__HAL_RCC_GET_FLAG(RCC_FLAG_HSIRDY) == RESET)
 8002a96:	4b3b      	ldr	r3, [pc, #236]	; (8002b84 <HAL_RCC_ClockConfig+0x1bc>)
 8002a98:	681b      	ldr	r3, [r3, #0]
 8002a9a:	f003 0302 	and.w	r3, r3, #2
 8002a9e:	2b00      	cmp	r3, #0
 8002aa0:	d101      	bne.n	8002aa6 <HAL_RCC_ClockConfig+0xde>
      {
        return HAL_ERROR;
 8002aa2:	2301      	movs	r3, #1
 8002aa4:	e067      	b.n	8002b76 <HAL_RCC_ClockConfig+0x1ae>
      }
    }

    __HAL_RCC_SYSCLK_CONFIG(RCC_ClkInitStruct->SYSCLKSource);
 8002aa6:	4b37      	ldr	r3, [pc, #220]	; (8002b84 <HAL_RCC_ClockConfig+0x1bc>)
 8002aa8:	689b      	ldr	r3, [r3, #8]
 8002aaa:	f023 0203 	bic.w	r2, r3, #3
 8002aae:	687b      	ldr	r3, [r7, #4]
 8002ab0:	685b      	ldr	r3, [r3, #4]
 8002ab2:	4934      	ldr	r1, [pc, #208]	; (8002b84 <HAL_RCC_ClockConfig+0x1bc>)
 8002ab4:	4313      	orrs	r3, r2
 8002ab6:	608b      	str	r3, [r1, #8]

    /* Get Start Tick */
    tickstart = HAL_GetTick();
 8002ab8:	f7fe f874 	bl	8000ba4 <HAL_GetTick>
 8002abc:	60f8      	str	r0, [r7, #12]

    while (__HAL_RCC_GET_SYSCLK_SOURCE() != (RCC_ClkInitStruct->SYSCLKSource << RCC_CFGR_SWS_Pos))
 8002abe:	e00a      	b.n	8002ad6 <HAL_RCC_ClockConfig+0x10e>
    {
      if ((HAL_GetTick() - tickstart) > CLOCKSWITCH_TIMEOUT_VALUE)
 8002ac0:	f7fe f870 	bl	8000ba4 <HAL_GetTick>
 8002ac4:	4602      	mov	r2, r0
 8002ac6:	68fb      	ldr	r3, [r7, #12]
 8002ac8:	1ad3      	subs	r3, r2, r3
 8002aca:	f241 3288 	movw	r2, #5000	; 0x1388
 8002ace:	4293      	cmp	r3, r2
 8002ad0:	d901      	bls.n	8002ad6 <HAL_RCC_ClockConfig+0x10e>
      {
        return HAL_TIMEOUT;
 8002ad2:	2303      	movs	r3, #3
 8002ad4:	e04f      	b.n	8002b76 <HAL_RCC_ClockConfig+0x1ae>
    while (__HAL_RCC_GET_SYSCLK_SOURCE() != (RCC_ClkInitStruct->SYSCLKSource << RCC_CFGR_SWS_Pos))
 8002ad6:	4b2b      	ldr	r3, [pc, #172]	; (8002b84 <HAL_RCC_ClockConfig+0x1bc>)
 8002ad8:	689b      	ldr	r3, [r3, #8]
 8002ada:	f003 020c 	and.w	r2, r3, #12
 8002ade:	687b      	ldr	r3, [r7, #4]
 8002ae0:	685b      	ldr	r3, [r3, #4]
 8002ae2:	009b      	lsls	r3, r3, #2
 8002ae4:	429a      	cmp	r2, r3
 8002ae6:	d1eb      	bne.n	8002ac0 <HAL_RCC_ClockConfig+0xf8>
      }
    }
  }

  /* Decreasing the number of wait states because of lower CPU frequency */
  if(FLatency < __HAL_FLASH_GET_LATENCY())
 8002ae8:	4b25      	ldr	r3, [pc, #148]	; (8002b80 <HAL_RCC_ClockConfig+0x1b8>)
 8002aea:	681b      	ldr	r3, [r3, #0]
 8002aec:	f003 030f 	and.w	r3, r3, #15
 8002af0:	683a      	ldr	r2, [r7, #0]
 8002af2:	429a      	cmp	r2, r3
 8002af4:	d20c      	bcs.n	8002b10 <HAL_RCC_ClockConfig+0x148>
  {
     /* Program the new number of wait states to the LATENCY bits in the FLASH_ACR register */
    __HAL_FLASH_SET_LATENCY(FLatency);
 8002af6:	4b22      	ldr	r3, [pc, #136]	; (8002b80 <HAL_RCC_ClockConfig+0x1b8>)
 8002af8:	683a      	ldr	r2, [r7, #0]
 8002afa:	b2d2      	uxtb	r2, r2
 8002afc:	701a      	strb	r2, [r3, #0]

    /* Check that the new number of wait states is taken into account to access the Flash
    memory by reading the FLASH_ACR register */
    if(__HAL_FLASH_GET_LATENCY() != FLatency)
 8002afe:	4b20      	ldr	r3, [pc, #128]	; (8002b80 <HAL_RCC_ClockConfig+0x1b8>)
 8002b00:	681b      	ldr	r3, [r3, #0]
 8002b02:	f003 030f 	and.w	r3, r3, #15
 8002b06:	683a      	ldr	r2, [r7, #0]
 8002b08:	429a      	cmp	r2, r3
 8002b0a:	d001      	beq.n	8002b10 <HAL_RCC_ClockConfig+0x148>
    {
      return HAL_ERROR;
 8002b0c:	2301      	movs	r3, #1
 8002b0e:	e032      	b.n	8002b76 <HAL_RCC_ClockConfig+0x1ae>
    }
  }

  /*-------------------------- PCLK1 Configuration ---------------------------*/
  if(((RCC_ClkInitStruct->ClockType) & RCC_CLOCKTYPE_PCLK1) == RCC_CLOCKTYPE_PCLK1)
 8002b10:	687b      	ldr	r3, [r7, #4]
 8002b12:	681b      	ldr	r3, [r3, #0]
 8002b14:	f003 0304 	and.w	r3, r3, #4
 8002b18:	2b00      	cmp	r3, #0
 8002b1a:	d008      	beq.n	8002b2e <HAL_RCC_ClockConfig+0x166>
  {
    assert_param(IS_RCC_PCLK(RCC_ClkInitStruct->APB1CLKDivider));
    MODIFY_REG(RCC->CFGR, RCC_CFGR_PPRE1, RCC_ClkInitStruct->APB1CLKDivider);
 8002b1c:	4b19      	ldr	r3, [pc, #100]	; (8002b84 <HAL_RCC_ClockConfig+0x1bc>)
 8002b1e:	689b      	ldr	r3, [r3, #8]
 8002b20:	f423 52e0 	bic.w	r2, r3, #7168	; 0x1c00
 8002b24:	687b      	ldr	r3, [r7, #4]
 8002b26:	68db      	ldr	r3, [r3, #12]
 8002b28:	4916      	ldr	r1, [pc, #88]	; (8002b84 <HAL_RCC_ClockConfig+0x1bc>)
 8002b2a:	4313      	orrs	r3, r2
 8002b2c:	608b      	str	r3, [r1, #8]
  }

  /*-------------------------- PCLK2 Configuration ---------------------------*/
  if(((RCC_ClkInitStruct->ClockType) & RCC_CLOCKTYPE_PCLK2) == RCC_CLOCKTYPE_PCLK2)
 8002b2e:	687b      	ldr	r3, [r7, #4]
 8002b30:	681b      	ldr	r3, [r3, #0]
 8002b32:	f003 0308 	and.w	r3, r3, #8
 8002b36:	2b00      	cmp	r3, #0
 8002b38:	d009      	beq.n	8002b4e <HAL_RCC_ClockConfig+0x186>
  {
    assert_param(IS_RCC_PCLK(RCC_ClkInitStruct->APB2CLKDivider));
    MODIFY_REG(RCC->CFGR, RCC_CFGR_PPRE2, ((RCC_ClkInitStruct->APB2CLKDivider) << 3U));
 8002b3a:	4b12      	ldr	r3, [pc, #72]	; (8002b84 <HAL_RCC_ClockConfig+0x1bc>)
 8002b3c:	689b      	ldr	r3, [r3, #8]
 8002b3e:	f423 4260 	bic.w	r2, r3, #57344	; 0xe000
 8002b42:	687b      	ldr	r3, [r7, #4]
 8002b44:	691b      	ldr	r3, [r3, #16]
 8002b46:	00db      	lsls	r3, r3, #3
 8002b48:	490e      	ldr	r1, [pc, #56]	; (8002b84 <HAL_RCC_ClockConfig+0x1bc>)
 8002b4a:	4313      	orrs	r3, r2
 8002b4c:	608b      	str	r3, [r1, #8]
  }

  /* Update the SystemCoreClock global variable */
  SystemCoreClock = HAL_RCC_GetSysClockFreq() >> AHBPrescTable[(RCC->CFGR & RCC_CFGR_HPRE)>> RCC_CFGR_HPRE_Pos];
 8002b4e:	f000 f821 	bl	8002b94 <HAL_RCC_GetSysClockFreq>
 8002b52:	4601      	mov	r1, r0
 8002b54:	4b0b      	ldr	r3, [pc, #44]	; (8002b84 <HAL_RCC_ClockConfig+0x1bc>)
 8002b56:	689b      	ldr	r3, [r3, #8]
 8002b58:	091b      	lsrs	r3, r3, #4
 8002b5a:	f003 030f 	and.w	r3, r3, #15
 8002b5e:	4a0a      	ldr	r2, [pc, #40]	; (8002b88 <HAL_RCC_ClockConfig+0x1c0>)
 8002b60:	5cd3      	ldrb	r3, [r2, r3]
 8002b62:	fa21 f303 	lsr.w	r3, r1, r3
 8002b66:	4a09      	ldr	r2, [pc, #36]	; (8002b8c <HAL_RCC_ClockConfig+0x1c4>)
 8002b68:	6013      	str	r3, [r2, #0]

  /* Configure the source of time base considering new system clocks settings */
  HAL_InitTick (uwTickPrio);
 8002b6a:	4b09      	ldr	r3, [pc, #36]	; (8002b90 <HAL_RCC_ClockConfig+0x1c8>)
 8002b6c:	681b      	ldr	r3, [r3, #0]
 8002b6e:	4618      	mov	r0, r3
 8002b70:	f7fd ffd4 	bl	8000b1c <HAL_InitTick>

  return HAL_OK;
 8002b74:	2300      	movs	r3, #0
}
 8002b76:	4618      	mov	r0, r3
 8002b78:	3710      	adds	r7, #16
 8002b7a:	46bd      	mov	sp, r7
 8002b7c:	bd80      	pop	{r7, pc}
 8002b7e:	bf00      	nop
 8002b80:	40023c00 	.word	0x40023c00
 8002b84:	40023800 	.word	0x40023800
 8002b88:	080070b8 	.word	0x080070b8
 8002b8c:	20000000 	.word	0x20000000
 8002b90:	20000004 	.word	0x20000004

08002b94 <HAL_RCC_GetSysClockFreq>:
  *
  *
  * @retval SYSCLK frequency
  */
__weak uint32_t HAL_RCC_GetSysClockFreq(void)
{
 8002b94:	b5f0      	push	{r4, r5, r6, r7, lr}
 8002b96:	b085      	sub	sp, #20
 8002b98:	af00      	add	r7, sp, #0
  uint32_t pllm = 0U, pllvco = 0U, pllp = 0U;
 8002b9a:	2300      	movs	r3, #0
 8002b9c:	607b      	str	r3, [r7, #4]
 8002b9e:	2300      	movs	r3, #0
 8002ba0:	60fb      	str	r3, [r7, #12]
 8002ba2:	2300      	movs	r3, #0
 8002ba4:	603b      	str	r3, [r7, #0]
  uint32_t sysclockfreq = 0U;
 8002ba6:	2300      	movs	r3, #0
 8002ba8:	60bb      	str	r3, [r7, #8]

  /* Get SYSCLK source -------------------------------------------------------*/
  switch (RCC->CFGR & RCC_CFGR_SWS)
 8002baa:	4b63      	ldr	r3, [pc, #396]	; (8002d38 <HAL_RCC_GetSysClockFreq+0x1a4>)
 8002bac:	689b      	ldr	r3, [r3, #8]
 8002bae:	f003 030c 	and.w	r3, r3, #12
 8002bb2:	2b04      	cmp	r3, #4
 8002bb4:	d007      	beq.n	8002bc6 <HAL_RCC_GetSysClockFreq+0x32>
 8002bb6:	2b08      	cmp	r3, #8
 8002bb8:	d008      	beq.n	8002bcc <HAL_RCC_GetSysClockFreq+0x38>
 8002bba:	2b00      	cmp	r3, #0
 8002bbc:	f040 80b4 	bne.w	8002d28 <HAL_RCC_GetSysClockFreq+0x194>
  {
    case RCC_CFGR_SWS_HSI:  /* HSI used as system clock source */
    {
      sysclockfreq = HSI_VALUE;
 8002bc0:	4b5e      	ldr	r3, [pc, #376]	; (8002d3c <HAL_RCC_GetSysClockFreq+0x1a8>)
 8002bc2:	60bb      	str	r3, [r7, #8]
       break;
 8002bc4:	e0b3      	b.n	8002d2e <HAL_RCC_GetSysClockFreq+0x19a>
    }
    case RCC_CFGR_SWS_HSE:  /* HSE used as system clock  source */
    {
      sysclockfreq = HSE_VALUE;
 8002bc6:	4b5e      	ldr	r3, [pc, #376]	; (8002d40 <HAL_RCC_GetSysClockFreq+0x1ac>)
 8002bc8:	60bb      	str	r3, [r7, #8]
      break;
 8002bca:	e0b0      	b.n	8002d2e <HAL_RCC_GetSysClockFreq+0x19a>
    }
    case RCC_CFGR_SWS_PLL:  /* PLL used as system clock  source */
    {
      /* PLL_VCO = (HSE_VALUE or HSI_VALUE / PLLM) * PLLN
      SYSCLK = PLL_VCO / PLLP */
      pllm = RCC->PLLCFGR & RCC_PLLCFGR_PLLM;
 8002bcc:	4b5a      	ldr	r3, [pc, #360]	; (8002d38 <HAL_RCC_GetSysClockFreq+0x1a4>)
 8002bce:	685b      	ldr	r3, [r3, #4]
 8002bd0:	f003 033f 	and.w	r3, r3, #63	; 0x3f
 8002bd4:	607b      	str	r3, [r7, #4]
      if(__HAL_RCC_GET_PLL_OSCSOURCE() != RCC_PLLSOURCE_HSI)
 8002bd6:	4b58      	ldr	r3, [pc, #352]	; (8002d38 <HAL_RCC_GetSysClockFreq+0x1a4>)
 8002bd8:	685b      	ldr	r3, [r3, #4]
 8002bda:	f403 0380 	and.w	r3, r3, #4194304	; 0x400000
 8002bde:	2b00      	cmp	r3, #0
 8002be0:	d04a      	beq.n	8002c78 <HAL_RCC_GetSysClockFreq+0xe4>
      {
        /* HSE used as PLL clock source */
        pllvco = (uint32_t) ((((uint64_t) HSE_VALUE * ((uint64_t) ((RCC->PLLCFGR & RCC_PLLCFGR_PLLN) >> RCC_PLLCFGR_PLLN_Pos)))) / (uint64_t)pllm);
 8002be2:	4b55      	ldr	r3, [pc, #340]	; (8002d38 <HAL_RCC_GetSysClockFreq+0x1a4>)
 8002be4:	685b      	ldr	r3, [r3, #4]
 8002be6:	099b      	lsrs	r3, r3, #6
 8002be8:	f04f 0400 	mov.w	r4, #0
 8002bec:	f240 11ff 	movw	r1, #511	; 0x1ff
 8002bf0:	f04f 0200 	mov.w	r2, #0
 8002bf4:	ea03 0501 	and.w	r5, r3, r1
 8002bf8:	ea04 0602 	and.w	r6, r4, r2
 8002bfc:	4629      	mov	r1, r5
 8002bfe:	4632      	mov	r2, r6
 8002c00:	f04f 0300 	mov.w	r3, #0
 8002c04:	f04f 0400 	mov.w	r4, #0
 8002c08:	0154      	lsls	r4, r2, #5
 8002c0a:	ea44 64d1 	orr.w	r4, r4, r1, lsr #27
 8002c0e:	014b      	lsls	r3, r1, #5
 8002c10:	4619      	mov	r1, r3
 8002c12:	4622      	mov	r2, r4
 8002c14:	1b49      	subs	r1, r1, r5
 8002c16:	eb62 0206 	sbc.w	r2, r2, r6
 8002c1a:	f04f 0300 	mov.w	r3, #0
 8002c1e:	f04f 0400 	mov.w	r4, #0
 8002c22:	0194      	lsls	r4, r2, #6
 8002c24:	ea44 6491 	orr.w	r4, r4, r1, lsr #26
 8002c28:	018b      	lsls	r3, r1, #6
 8002c2a:	1a5b      	subs	r3, r3, r1
 8002c2c:	eb64 0402 	sbc.w	r4, r4, r2
 8002c30:	f04f 0100 	mov.w	r1, #0
 8002c34:	f04f 0200 	mov.w	r2, #0
 8002c38:	00e2      	lsls	r2, r4, #3
 8002c3a:	ea42 7253 	orr.w	r2, r2, r3, lsr #29
 8002c3e:	00d9      	lsls	r1, r3, #3
 8002c40:	460b      	mov	r3, r1
 8002c42:	4614      	mov	r4, r2
 8002c44:	195b      	adds	r3, r3, r5
 8002c46:	eb44 0406 	adc.w	r4, r4, r6
 8002c4a:	f04f 0100 	mov.w	r1, #0
 8002c4e:	f04f 0200 	mov.w	r2, #0
 8002c52:	0262      	lsls	r2, r4, #9
 8002c54:	ea42 52d3 	orr.w	r2, r2, r3, lsr #23
 8002c58:	0259      	lsls	r1, r3, #9
 8002c5a:	460b      	mov	r3, r1
 8002c5c:	4614      	mov	r4, r2
 8002c5e:	4618      	mov	r0, r3
 8002c60:	4621      	mov	r1, r4
 8002c62:	687b      	ldr	r3, [r7, #4]
 8002c64:	f04f 0400 	mov.w	r4, #0
 8002c68:	461a      	mov	r2, r3
 8002c6a:	4623      	mov	r3, r4
 8002c6c:	f7fd fac6 	bl	80001fc <__aeabi_uldivmod>
 8002c70:	4603      	mov	r3, r0
 8002c72:	460c      	mov	r4, r1
 8002c74:	60fb      	str	r3, [r7, #12]
 8002c76:	e049      	b.n	8002d0c <HAL_RCC_GetSysClockFreq+0x178>
      }
      else
      {
        /* HSI used as PLL clock source */
        pllvco = (uint32_t) ((((uint64_t) HSI_VALUE * ((uint64_t) ((RCC->PLLCFGR & RCC_PLLCFGR_PLLN) >> RCC_PLLCFGR_PLLN_Pos)))) / (uint64_t)pllm);
 8002c78:	4b2f      	ldr	r3, [pc, #188]	; (8002d38 <HAL_RCC_GetSysClockFreq+0x1a4>)
 8002c7a:	685b      	ldr	r3, [r3, #4]
 8002c7c:	099b      	lsrs	r3, r3, #6
 8002c7e:	f04f 0400 	mov.w	r4, #0
 8002c82:	f240 11ff 	movw	r1, #511	; 0x1ff
 8002c86:	f04f 0200 	mov.w	r2, #0
 8002c8a:	ea03 0501 	and.w	r5, r3, r1
 8002c8e:	ea04 0602 	and.w	r6, r4, r2
 8002c92:	4629      	mov	r1, r5
 8002c94:	4632      	mov	r2, r6
 8002c96:	f04f 0300 	mov.w	r3, #0
 8002c9a:	f04f 0400 	mov.w	r4, #0
 8002c9e:	0154      	lsls	r4, r2, #5
 8002ca0:	ea44 64d1 	orr.w	r4, r4, r1, lsr #27
 8002ca4:	014b      	lsls	r3, r1, #5
 8002ca6:	4619      	mov	r1, r3
 8002ca8:	4622      	mov	r2, r4
 8002caa:	1b49      	subs	r1, r1, r5
 8002cac:	eb62 0206 	sbc.w	r2, r2, r6
 8002cb0:	f04f 0300 	mov.w	r3, #0
 8002cb4:	f04f 0400 	mov.w	r4, #0
 8002cb8:	0194      	lsls	r4, r2, #6
 8002cba:	ea44 6491 	orr.w	r4, r4, r1, lsr #26
 8002cbe:	018b      	lsls	r3, r1, #6
 8002cc0:	1a5b      	subs	r3, r3, r1
 8002cc2:	eb64 0402 	sbc.w	r4, r4, r2
 8002cc6:	f04f 0100 	mov.w	r1, #0
 8002cca:	f04f 0200 	mov.w	r2, #0
 8002cce:	00e2      	lsls	r2, r4, #3
 8002cd0:	ea42 7253 	orr.w	r2, r2, r3, lsr #29
 8002cd4:	00d9      	lsls	r1, r3, #3
 8002cd6:	460b      	mov	r3, r1
 8002cd8:	4614      	mov	r4, r2
 8002cda:	195b      	adds	r3, r3, r5
 8002cdc:	eb44 0406 	adc.w	r4, r4, r6
 8002ce0:	f04f 0100 	mov.w	r1, #0
 8002ce4:	f04f 0200 	mov.w	r2, #0
 8002ce8:	02a2      	lsls	r2, r4, #10
 8002cea:	ea42 5293 	orr.w	r2, r2, r3, lsr #22
 8002cee:	0299      	lsls	r1, r3, #10
 8002cf0:	460b      	mov	r3, r1
 8002cf2:	4614      	mov	r4, r2
 8002cf4:	4618      	mov	r0, r3
 8002cf6:	4621      	mov	r1, r4
 8002cf8:	687b      	ldr	r3, [r7, #4]
 8002cfa:	f04f 0400 	mov.w	r4, #0
 8002cfe:	461a      	mov	r2, r3
 8002d00:	4623      	mov	r3, r4
 8002d02:	f7fd fa7b 	bl	80001fc <__aeabi_uldivmod>
 8002d06:	4603      	mov	r3, r0
 8002d08:	460c      	mov	r4, r1
 8002d0a:	60fb      	str	r3, [r7, #12]
      }
      pllp = ((((RCC->PLLCFGR & RCC_PLLCFGR_PLLP) >> RCC_PLLCFGR_PLLP_Pos) + 1U) *2U);
 8002d0c:	4b0a      	ldr	r3, [pc, #40]	; (8002d38 <HAL_RCC_GetSysClockFreq+0x1a4>)
 8002d0e:	685b      	ldr	r3, [r3, #4]
 8002d10:	0c1b      	lsrs	r3, r3, #16
 8002d12:	f003 0303 	and.w	r3, r3, #3
 8002d16:	3301      	adds	r3, #1
 8002d18:	005b      	lsls	r3, r3, #1
 8002d1a:	603b      	str	r3, [r7, #0]

      sysclockfreq = pllvco/pllp;
 8002d1c:	68fa      	ldr	r2, [r7, #12]
 8002d1e:	683b      	ldr	r3, [r7, #0]
 8002d20:	fbb2 f3f3 	udiv	r3, r2, r3
 8002d24:	60bb      	str	r3, [r7, #8]
      break;
 8002d26:	e002      	b.n	8002d2e <HAL_RCC_GetSysClockFreq+0x19a>
    }
    default:
    {
      sysclockfreq = HSI_VALUE;
 8002d28:	4b04      	ldr	r3, [pc, #16]	; (8002d3c <HAL_RCC_GetSysClockFreq+0x1a8>)
 8002d2a:	60bb      	str	r3, [r7, #8]
      break;
 8002d2c:	bf00      	nop
    }
  }
  return sysclockfreq;
 8002d2e:	68bb      	ldr	r3, [r7, #8]
}
 8002d30:	4618      	mov	r0, r3
 8002d32:	3714      	adds	r7, #20
 8002d34:	46bd      	mov	sp, r7
 8002d36:	bdf0      	pop	{r4, r5, r6, r7, pc}
 8002d38:	40023800 	.word	0x40023800
 8002d3c:	00f42400 	.word	0x00f42400
 8002d40:	007a1200 	.word	0x007a1200

08002d44 <HAL_RCC_GetHCLKFreq>:
  * @note   The SystemCoreClock CMSIS variable is used to store System Clock Frequency
  *         and updated within this function
  * @retval HCLK frequency
  */
uint32_t HAL_RCC_GetHCLKFreq(void)
{
 8002d44:	b480      	push	{r7}
 8002d46:	af00      	add	r7, sp, #0
  return SystemCoreClock;
 8002d48:	4b03      	ldr	r3, [pc, #12]	; (8002d58 <HAL_RCC_GetHCLKFreq+0x14>)
 8002d4a:	681b      	ldr	r3, [r3, #0]
}
 8002d4c:	4618      	mov	r0, r3
 8002d4e:	46bd      	mov	sp, r7
 8002d50:	f85d 7b04 	ldr.w	r7, [sp], #4
 8002d54:	4770      	bx	lr
 8002d56:	bf00      	nop
 8002d58:	20000000 	.word	0x20000000

08002d5c <HAL_RCC_GetPCLK1Freq>:
  * @note   Each time PCLK1 changes, this function must be called to update the
  *         right PCLK1 value. Otherwise, any configuration based on this function will be incorrect.
  * @retval PCLK1 frequency
  */
uint32_t HAL_RCC_GetPCLK1Freq(void)
{
 8002d5c:	b580      	push	{r7, lr}
 8002d5e:	af00      	add	r7, sp, #0
  /* Get HCLK source and Compute PCLK1 frequency ---------------------------*/
  return (HAL_RCC_GetHCLKFreq() >> APBPrescTable[(RCC->CFGR & RCC_CFGR_PPRE1)>> RCC_CFGR_PPRE1_Pos]);
 8002d60:	f7ff fff0 	bl	8002d44 <HAL_RCC_GetHCLKFreq>
 8002d64:	4601      	mov	r1, r0
 8002d66:	4b05      	ldr	r3, [pc, #20]	; (8002d7c <HAL_RCC_GetPCLK1Freq+0x20>)
 8002d68:	689b      	ldr	r3, [r3, #8]
 8002d6a:	0a9b      	lsrs	r3, r3, #10
 8002d6c:	f003 0307 	and.w	r3, r3, #7
 8002d70:	4a03      	ldr	r2, [pc, #12]	; (8002d80 <HAL_RCC_GetPCLK1Freq+0x24>)
 8002d72:	5cd3      	ldrb	r3, [r2, r3]
 8002d74:	fa21 f303 	lsr.w	r3, r1, r3
}
 8002d78:	4618      	mov	r0, r3
 8002d7a:	bd80      	pop	{r7, pc}
 8002d7c:	40023800 	.word	0x40023800
 8002d80:	080070c8 	.word	0x080070c8

08002d84 <HAL_RCC_GetPCLK2Freq>:
  * @note   Each time PCLK2 changes, this function must be called to update the
  *         right PCLK2 value. Otherwise, any configuration based on this function will be incorrect.
  * @retval PCLK2 frequency
  */
uint32_t HAL_RCC_GetPCLK2Freq(void)
{
 8002d84:	b580      	push	{r7, lr}
 8002d86:	af00      	add	r7, sp, #0
  /* Get HCLK source and Compute PCLK2 frequency ---------------------------*/
  return (HAL_RCC_GetHCLKFreq()>> APBPrescTable[(RCC->CFGR & RCC_CFGR_PPRE2)>> RCC_CFGR_PPRE2_Pos]);
 8002d88:	f7ff ffdc 	bl	8002d44 <HAL_RCC_GetHCLKFreq>
 8002d8c:	4601      	mov	r1, r0
 8002d8e:	4b05      	ldr	r3, [pc, #20]	; (8002da4 <HAL_RCC_GetPCLK2Freq+0x20>)
 8002d90:	689b      	ldr	r3, [r3, #8]
 8002d92:	0b5b      	lsrs	r3, r3, #13
 8002d94:	f003 0307 	and.w	r3, r3, #7
 8002d98:	4a03      	ldr	r2, [pc, #12]	; (8002da8 <HAL_RCC_GetPCLK2Freq+0x24>)
 8002d9a:	5cd3      	ldrb	r3, [r2, r3]
 8002d9c:	fa21 f303 	lsr.w	r3, r1, r3
}
 8002da0:	4618      	mov	r0, r3
 8002da2:	bd80      	pop	{r7, pc}
 8002da4:	40023800 	.word	0x40023800
 8002da8:	080070c8 	.word	0x080070c8

08002dac <HAL_UART_Init>:
  * @param  huart  Pointer to a UART_HandleTypeDef structure that contains
  *                the configuration information for the specified UART module.
  * @retval HAL status
  */
HAL_StatusTypeDef HAL_UART_Init(UART_HandleTypeDef *huart)
{
 8002dac:	b580      	push	{r7, lr}
 8002dae:	b082      	sub	sp, #8
 8002db0:	af00      	add	r7, sp, #0
 8002db2:	6078      	str	r0, [r7, #4]
  /* Check the UART handle allocation */
  if (huart == NULL)
 8002db4:	687b      	ldr	r3, [r7, #4]
 8002db6:	2b00      	cmp	r3, #0
 8002db8:	d101      	bne.n	8002dbe <HAL_UART_Init+0x12>
  {
    return HAL_ERROR;
 8002dba:	2301      	movs	r3, #1
 8002dbc:	e03f      	b.n	8002e3e <HAL_UART_Init+0x92>
    assert_param(IS_UART_INSTANCE(huart->Instance));
  }
  assert_param(IS_UART_WORD_LENGTH(huart->Init.WordLength));
  assert_param(IS_UART_OVERSAMPLING(huart->Init.OverSampling));

  if (huart->gState == HAL_UART_STATE_RESET)
 8002dbe:	687b      	ldr	r3, [r7, #4]
 8002dc0:	f893 3039 	ldrb.w	r3, [r3, #57]	; 0x39
 8002dc4:	b2db      	uxtb	r3, r3
 8002dc6:	2b00      	cmp	r3, #0
 8002dc8:	d106      	bne.n	8002dd8 <HAL_UART_Init+0x2c>
  {
    /* Allocate lock resource and initialize it */
    huart->Lock = HAL_UNLOCKED;
 8002dca:	687b      	ldr	r3, [r7, #4]
 8002dcc:	2200      	movs	r2, #0
 8002dce:	f883 2038 	strb.w	r2, [r3, #56]	; 0x38

    /* Init the low level hardware */
    huart->MspInitCallback(huart);
#else
    /* Init the low level hardware : GPIO, CLOCK */
    HAL_UART_MspInit(huart);
 8002dd2:	6878      	ldr	r0, [r7, #4]
 8002dd4:	f7fd fd8e 	bl	80008f4 <HAL_UART_MspInit>
#endif /* (USE_HAL_UART_REGISTER_CALLBACKS) */
  }

  huart->gState = HAL_UART_STATE_BUSY;
 8002dd8:	687b      	ldr	r3, [r7, #4]
 8002dda:	2224      	movs	r2, #36	; 0x24
 8002ddc:	f883 2039 	strb.w	r2, [r3, #57]	; 0x39

  /* Disable the peripheral */
  __HAL_UART_DISABLE(huart);
 8002de0:	687b      	ldr	r3, [r7, #4]
 8002de2:	681b      	ldr	r3, [r3, #0]
 8002de4:	68da      	ldr	r2, [r3, #12]
 8002de6:	687b      	ldr	r3, [r7, #4]
 8002de8:	681b      	ldr	r3, [r3, #0]
 8002dea:	f422 5200 	bic.w	r2, r2, #8192	; 0x2000
 8002dee:	60da      	str	r2, [r3, #12]

  /* Set the UART Communication parameters */
  UART_SetConfig(huart);
 8002df0:	6878      	ldr	r0, [r7, #4]
 8002df2:	f000 f829 	bl	8002e48 <UART_SetConfig>

  /* In asynchronous mode, the following bits must be kept cleared:
     - LINEN and CLKEN bits in the USART_CR2 register,
     - SCEN, HDSEL and IREN  bits in the USART_CR3 register.*/
  CLEAR_BIT(huart->Instance->CR2, (USART_CR2_LINEN | USART_CR2_CLKEN));
 8002df6:	687b      	ldr	r3, [r7, #4]
 8002df8:	681b      	ldr	r3, [r3, #0]
 8002dfa:	691a      	ldr	r2, [r3, #16]
 8002dfc:	687b      	ldr	r3, [r7, #4]
 8002dfe:	681b      	ldr	r3, [r3, #0]
 8002e00:	f422 4290 	bic.w	r2, r2, #18432	; 0x4800
 8002e04:	611a      	str	r2, [r3, #16]
  CLEAR_BIT(huart->Instance->CR3, (USART_CR3_SCEN | USART_CR3_HDSEL | USART_CR3_IREN));
 8002e06:	687b      	ldr	r3, [r7, #4]
 8002e08:	681b      	ldr	r3, [r3, #0]
 8002e0a:	695a      	ldr	r2, [r3, #20]
 8002e0c:	687b      	ldr	r3, [r7, #4]
 8002e0e:	681b      	ldr	r3, [r3, #0]
 8002e10:	f022 022a 	bic.w	r2, r2, #42	; 0x2a
 8002e14:	615a      	str	r2, [r3, #20]

  /* Enable the peripheral */
  __HAL_UART_ENABLE(huart);
 8002e16:	687b      	ldr	r3, [r7, #4]
 8002e18:	681b      	ldr	r3, [r3, #0]
 8002e1a:	68da      	ldr	r2, [r3, #12]
 8002e1c:	687b      	ldr	r3, [r7, #4]
 8002e1e:	681b      	ldr	r3, [r3, #0]
 8002e20:	f442 5200 	orr.w	r2, r2, #8192	; 0x2000
 8002e24:	60da      	str	r2, [r3, #12]

  /* Initialize the UART state */
  huart->ErrorCode = HAL_UART_ERROR_NONE;
 8002e26:	687b      	ldr	r3, [r7, #4]
 8002e28:	2200      	movs	r2, #0
 8002e2a:	63da      	str	r2, [r3, #60]	; 0x3c
  huart->gState = HAL_UART_STATE_READY;
 8002e2c:	687b      	ldr	r3, [r7, #4]
 8002e2e:	2220      	movs	r2, #32
 8002e30:	f883 2039 	strb.w	r2, [r3, #57]	; 0x39
  huart->RxState = HAL_UART_STATE_READY;
 8002e34:	687b      	ldr	r3, [r7, #4]
 8002e36:	2220      	movs	r2, #32
 8002e38:	f883 203a 	strb.w	r2, [r3, #58]	; 0x3a

  return HAL_OK;
 8002e3c:	2300      	movs	r3, #0
}
 8002e3e:	4618      	mov	r0, r3
 8002e40:	3708      	adds	r7, #8
 8002e42:	46bd      	mov	sp, r7
 8002e44:	bd80      	pop	{r7, pc}
	...

08002e48 <UART_SetConfig>:
  * @param  huart  Pointer to a UART_HandleTypeDef structure that contains
  *                the configuration information for the specified UART module.
  * @retval None
  */
static void UART_SetConfig(UART_HandleTypeDef *huart)
{
 8002e48:	e92d 4ff0 	stmdb	sp!, {r4, r5, r6, r7, r8, r9, sl, fp, lr}
 8002e4c:	b085      	sub	sp, #20
 8002e4e:	af00      	add	r7, sp, #0
 8002e50:	6078      	str	r0, [r7, #4]
  assert_param(IS_UART_MODE(huart->Init.Mode));

  /*-------------------------- USART CR2 Configuration -----------------------*/
  /* Configure the UART Stop Bits: Set STOP[13:12] bits
     according to huart->Init.StopBits value */
  MODIFY_REG(huart->Instance->CR2, USART_CR2_STOP, huart->Init.StopBits);
 8002e52:	687b      	ldr	r3, [r7, #4]
 8002e54:	681b      	ldr	r3, [r3, #0]
 8002e56:	691b      	ldr	r3, [r3, #16]
 8002e58:	f423 5140 	bic.w	r1, r3, #12288	; 0x3000
 8002e5c:	687b      	ldr	r3, [r7, #4]
 8002e5e:	68da      	ldr	r2, [r3, #12]
 8002e60:	687b      	ldr	r3, [r7, #4]
 8002e62:	681b      	ldr	r3, [r3, #0]
 8002e64:	430a      	orrs	r2, r1
 8002e66:	611a      	str	r2, [r3, #16]
     Set the M bits according to huart->Init.WordLength value
     Set PCE and PS bits according to huart->Init.Parity value
     Set TE and RE bits according to huart->Init.Mode value
     Set OVER8 bit according to huart->Init.OverSampling value */

  tmpreg = (uint32_t)huart->Init.WordLength | huart->Init.Parity | huart->Init.Mode | huart->Init.OverSampling;
 8002e68:	687b      	ldr	r3, [r7, #4]
 8002e6a:	689a      	ldr	r2, [r3, #8]
 8002e6c:	687b      	ldr	r3, [r7, #4]
 8002e6e:	691b      	ldr	r3, [r3, #16]
 8002e70:	431a      	orrs	r2, r3
 8002e72:	687b      	ldr	r3, [r7, #4]
 8002e74:	695b      	ldr	r3, [r3, #20]
 8002e76:	431a      	orrs	r2, r3
 8002e78:	687b      	ldr	r3, [r7, #4]
 8002e7a:	69db      	ldr	r3, [r3, #28]
 8002e7c:	4313      	orrs	r3, r2
 8002e7e:	60fb      	str	r3, [r7, #12]
  MODIFY_REG(huart->Instance->CR1,
 8002e80:	687b      	ldr	r3, [r7, #4]
 8002e82:	681b      	ldr	r3, [r3, #0]
 8002e84:	68db      	ldr	r3, [r3, #12]
 8002e86:	f423 4316 	bic.w	r3, r3, #38400	; 0x9600
 8002e8a:	f023 030c 	bic.w	r3, r3, #12
 8002e8e:	687a      	ldr	r2, [r7, #4]
 8002e90:	6812      	ldr	r2, [r2, #0]
 8002e92:	68f9      	ldr	r1, [r7, #12]
 8002e94:	430b      	orrs	r3, r1
 8002e96:	60d3      	str	r3, [r2, #12]
             (uint32_t)(USART_CR1_M | USART_CR1_PCE | USART_CR1_PS | USART_CR1_TE | USART_CR1_RE | USART_CR1_OVER8),
             tmpreg);

  /*-------------------------- USART CR3 Configuration -----------------------*/
  /* Configure the UART HFC: Set CTSE and RTSE bits according to huart->Init.HwFlowCtl value */
  MODIFY_REG(huart->Instance->CR3, (USART_CR3_RTSE | USART_CR3_CTSE), huart->Init.HwFlowCtl);
 8002e98:	687b      	ldr	r3, [r7, #4]
 8002e9a:	681b      	ldr	r3, [r3, #0]
 8002e9c:	695b      	ldr	r3, [r3, #20]
 8002e9e:	f423 7140 	bic.w	r1, r3, #768	; 0x300
 8002ea2:	687b      	ldr	r3, [r7, #4]
 8002ea4:	699a      	ldr	r2, [r3, #24]
 8002ea6:	687b      	ldr	r3, [r7, #4]
 8002ea8:	681b      	ldr	r3, [r3, #0]
 8002eaa:	430a      	orrs	r2, r1
 8002eac:	615a      	str	r2, [r3, #20]

  /* Check the Over Sampling */
  if (huart->Init.OverSampling == UART_OVERSAMPLING_8)
 8002eae:	687b      	ldr	r3, [r7, #4]
 8002eb0:	69db      	ldr	r3, [r3, #28]
 8002eb2:	f5b3 4f00 	cmp.w	r3, #32768	; 0x8000
 8002eb6:	f040 818b 	bne.w	80031d0 <UART_SetConfig+0x388>
    {
      pclk = HAL_RCC_GetPCLK2Freq();
      huart->Instance->BRR = UART_BRR_SAMPLING8(pclk, huart->Init.BaudRate);
    }
#elif defined(USART6)
    if ((huart->Instance == USART1) || (huart->Instance == USART6))
 8002eba:	687b      	ldr	r3, [r7, #4]
 8002ebc:	681b      	ldr	r3, [r3, #0]
 8002ebe:	4ac1      	ldr	r2, [pc, #772]	; (80031c4 <UART_SetConfig+0x37c>)
 8002ec0:	4293      	cmp	r3, r2
 8002ec2:	d005      	beq.n	8002ed0 <UART_SetConfig+0x88>
 8002ec4:	687b      	ldr	r3, [r7, #4]
 8002ec6:	681b      	ldr	r3, [r3, #0]
 8002ec8:	4abf      	ldr	r2, [pc, #764]	; (80031c8 <UART_SetConfig+0x380>)
 8002eca:	4293      	cmp	r3, r2
 8002ecc:	f040 80bd 	bne.w	800304a <UART_SetConfig+0x202>
    {
      pclk = HAL_RCC_GetPCLK2Freq();
 8002ed0:	f7ff ff58 	bl	8002d84 <HAL_RCC_GetPCLK2Freq>
 8002ed4:	60b8      	str	r0, [r7, #8]
      huart->Instance->BRR = UART_BRR_SAMPLING8(pclk, huart->Init.BaudRate);
 8002ed6:	68bb      	ldr	r3, [r7, #8]
 8002ed8:	461d      	mov	r5, r3
 8002eda:	f04f 0600 	mov.w	r6, #0
 8002ede:	46a8      	mov	r8, r5
 8002ee0:	46b1      	mov	r9, r6
 8002ee2:	eb18 0308 	adds.w	r3, r8, r8
 8002ee6:	eb49 0409 	adc.w	r4, r9, r9
 8002eea:	4698      	mov	r8, r3
 8002eec:	46a1      	mov	r9, r4
 8002eee:	eb18 0805 	adds.w	r8, r8, r5
 8002ef2:	eb49 0906 	adc.w	r9, r9, r6
 8002ef6:	f04f 0100 	mov.w	r1, #0
 8002efa:	f04f 0200 	mov.w	r2, #0
 8002efe:	ea4f 02c9 	mov.w	r2, r9, lsl #3
 8002f02:	ea42 7258 	orr.w	r2, r2, r8, lsr #29
 8002f06:	ea4f 01c8 	mov.w	r1, r8, lsl #3
 8002f0a:	4688      	mov	r8, r1
 8002f0c:	4691      	mov	r9, r2
 8002f0e:	eb18 0005 	adds.w	r0, r8, r5
 8002f12:	eb49 0106 	adc.w	r1, r9, r6
 8002f16:	687b      	ldr	r3, [r7, #4]
 8002f18:	685b      	ldr	r3, [r3, #4]
 8002f1a:	461d      	mov	r5, r3
 8002f1c:	f04f 0600 	mov.w	r6, #0
 8002f20:	196b      	adds	r3, r5, r5
 8002f22:	eb46 0406 	adc.w	r4, r6, r6
 8002f26:	461a      	mov	r2, r3
 8002f28:	4623      	mov	r3, r4
 8002f2a:	f7fd f967 	bl	80001fc <__aeabi_uldivmod>
 8002f2e:	4603      	mov	r3, r0
 8002f30:	460c      	mov	r4, r1
 8002f32:	461a      	mov	r2, r3
 8002f34:	4ba5      	ldr	r3, [pc, #660]	; (80031cc <UART_SetConfig+0x384>)
 8002f36:	fba3 2302 	umull	r2, r3, r3, r2
 8002f3a:	095b      	lsrs	r3, r3, #5
 8002f3c:	ea4f 1803 	mov.w	r8, r3, lsl #4
 8002f40:	68bb      	ldr	r3, [r7, #8]
 8002f42:	461d      	mov	r5, r3
 8002f44:	f04f 0600 	mov.w	r6, #0
 8002f48:	46a9      	mov	r9, r5
 8002f4a:	46b2      	mov	sl, r6
 8002f4c:	eb19 0309 	adds.w	r3, r9, r9
 8002f50:	eb4a 040a 	adc.w	r4, sl, sl
 8002f54:	4699      	mov	r9, r3
 8002f56:	46a2      	mov	sl, r4
 8002f58:	eb19 0905 	adds.w	r9, r9, r5
 8002f5c:	eb4a 0a06 	adc.w	sl, sl, r6
 8002f60:	f04f 0100 	mov.w	r1, #0
 8002f64:	f04f 0200 	mov.w	r2, #0
 8002f68:	ea4f 02ca 	mov.w	r2, sl, lsl #3
 8002f6c:	ea42 7259 	orr.w	r2, r2, r9, lsr #29
 8002f70:	ea4f 01c9 	mov.w	r1, r9, lsl #3
 8002f74:	4689      	mov	r9, r1
 8002f76:	4692      	mov	sl, r2
 8002f78:	eb19 0005 	adds.w	r0, r9, r5
 8002f7c:	eb4a 0106 	adc.w	r1, sl, r6
 8002f80:	687b      	ldr	r3, [r7, #4]
 8002f82:	685b      	ldr	r3, [r3, #4]
 8002f84:	461d      	mov	r5, r3
 8002f86:	f04f 0600 	mov.w	r6, #0
 8002f8a:	196b      	adds	r3, r5, r5
 8002f8c:	eb46 0406 	adc.w	r4, r6, r6
 8002f90:	461a      	mov	r2, r3
 8002f92:	4623      	mov	r3, r4
 8002f94:	f7fd f932 	bl	80001fc <__aeabi_uldivmod>
 8002f98:	4603      	mov	r3, r0
 8002f9a:	460c      	mov	r4, r1
 8002f9c:	461a      	mov	r2, r3
 8002f9e:	4b8b      	ldr	r3, [pc, #556]	; (80031cc <UART_SetConfig+0x384>)
 8002fa0:	fba3 1302 	umull	r1, r3, r3, r2
 8002fa4:	095b      	lsrs	r3, r3, #5
 8002fa6:	2164      	movs	r1, #100	; 0x64
 8002fa8:	fb01 f303 	mul.w	r3, r1, r3
 8002fac:	1ad3      	subs	r3, r2, r3
 8002fae:	00db      	lsls	r3, r3, #3
 8002fb0:	3332      	adds	r3, #50	; 0x32
 8002fb2:	4a86      	ldr	r2, [pc, #536]	; (80031cc <UART_SetConfig+0x384>)
 8002fb4:	fba2 2303 	umull	r2, r3, r2, r3
 8002fb8:	095b      	lsrs	r3, r3, #5
 8002fba:	005b      	lsls	r3, r3, #1
 8002fbc:	f403 73f8 	and.w	r3, r3, #496	; 0x1f0
 8002fc0:	4498      	add	r8, r3
 8002fc2:	68bb      	ldr	r3, [r7, #8]
 8002fc4:	461d      	mov	r5, r3
 8002fc6:	f04f 0600 	mov.w	r6, #0
 8002fca:	46a9      	mov	r9, r5
 8002fcc:	46b2      	mov	sl, r6
 8002fce:	eb19 0309 	adds.w	r3, r9, r9
 8002fd2:	eb4a 040a 	adc.w	r4, sl, sl
 8002fd6:	4699      	mov	r9, r3
 8002fd8:	46a2      	mov	sl, r4
 8002fda:	eb19 0905 	adds.w	r9, r9, r5
 8002fde:	eb4a 0a06 	adc.w	sl, sl, r6
 8002fe2:	f04f 0100 	mov.w	r1, #0
 8002fe6:	f04f 0200 	mov.w	r2, #0
 8002fea:	ea4f 02ca 	mov.w	r2, sl, lsl #3
 8002fee:	ea42 7259 	orr.w	r2, r2, r9, lsr #29
 8002ff2:	ea4f 01c9 	mov.w	r1, r9, lsl #3
 8002ff6:	4689      	mov	r9, r1
 8002ff8:	4692      	mov	sl, r2
 8002ffa:	eb19 0005 	adds.w	r0, r9, r5
 8002ffe:	eb4a 0106 	adc.w	r1, sl, r6
 8003002:	687b      	ldr	r3, [r7, #4]
 8003004:	685b      	ldr	r3, [r3, #4]
 8003006:	461d      	mov	r5, r3
 8003008:	f04f 0600 	mov.w	r6, #0
 800300c:	196b      	adds	r3, r5, r5
 800300e:	eb46 0406 	adc.w	r4, r6, r6
 8003012:	461a      	mov	r2, r3
 8003014:	4623      	mov	r3, r4
 8003016:	f7fd f8f1 	bl	80001fc <__aeabi_uldivmod>
 800301a:	4603      	mov	r3, r0
 800301c:	460c      	mov	r4, r1
 800301e:	461a      	mov	r2, r3
 8003020:	4b6a      	ldr	r3, [pc, #424]	; (80031cc <UART_SetConfig+0x384>)
 8003022:	fba3 1302 	umull	r1, r3, r3, r2
 8003026:	095b      	lsrs	r3, r3, #5
 8003028:	2164      	movs	r1, #100	; 0x64
 800302a:	fb01 f303 	mul.w	r3, r1, r3
 800302e:	1ad3      	subs	r3, r2, r3
 8003030:	00db      	lsls	r3, r3, #3
 8003032:	3332      	adds	r3, #50	; 0x32
 8003034:	4a65      	ldr	r2, [pc, #404]	; (80031cc <UART_SetConfig+0x384>)
 8003036:	fba2 2303 	umull	r2, r3, r2, r3
 800303a:	095b      	lsrs	r3, r3, #5
 800303c:	f003 0207 	and.w	r2, r3, #7
 8003040:	687b      	ldr	r3, [r7, #4]
 8003042:	681b      	ldr	r3, [r3, #0]
 8003044:	4442      	add	r2, r8
 8003046:	609a      	str	r2, [r3, #8]
 8003048:	e26f      	b.n	800352a <UART_SetConfig+0x6e2>
      huart->Instance->BRR = UART_BRR_SAMPLING8(pclk, huart->Init.BaudRate);
    }
#endif /* USART6 */
    else
    {
      pclk = HAL_RCC_GetPCLK1Freq();
 800304a:	f7ff fe87 	bl	8002d5c <HAL_RCC_GetPCLK1Freq>
 800304e:	60b8      	str	r0, [r7, #8]
      huart->Instance->BRR = UART_BRR_SAMPLING8(pclk, huart->Init.BaudRate);
 8003050:	68bb      	ldr	r3, [r7, #8]
 8003052:	461d      	mov	r5, r3
 8003054:	f04f 0600 	mov.w	r6, #0
 8003058:	46a8      	mov	r8, r5
 800305a:	46b1      	mov	r9, r6
 800305c:	eb18 0308 	adds.w	r3, r8, r8
 8003060:	eb49 0409 	adc.w	r4, r9, r9
 8003064:	4698      	mov	r8, r3
 8003066:	46a1      	mov	r9, r4
 8003068:	eb18 0805 	adds.w	r8, r8, r5
 800306c:	eb49 0906 	adc.w	r9, r9, r6
 8003070:	f04f 0100 	mov.w	r1, #0
 8003074:	f04f 0200 	mov.w	r2, #0
 8003078:	ea4f 02c9 	mov.w	r2, r9, lsl #3
 800307c:	ea42 7258 	orr.w	r2, r2, r8, lsr #29
 8003080:	ea4f 01c8 	mov.w	r1, r8, lsl #3
 8003084:	4688      	mov	r8, r1
 8003086:	4691      	mov	r9, r2
 8003088:	eb18 0005 	adds.w	r0, r8, r5
 800308c:	eb49 0106 	adc.w	r1, r9, r6
 8003090:	687b      	ldr	r3, [r7, #4]
 8003092:	685b      	ldr	r3, [r3, #4]
 8003094:	461d      	mov	r5, r3
 8003096:	f04f 0600 	mov.w	r6, #0
 800309a:	196b      	adds	r3, r5, r5
 800309c:	eb46 0406 	adc.w	r4, r6, r6
 80030a0:	461a      	mov	r2, r3
 80030a2:	4623      	mov	r3, r4
 80030a4:	f7fd f8aa 	bl	80001fc <__aeabi_uldivmod>
 80030a8:	4603      	mov	r3, r0
 80030aa:	460c      	mov	r4, r1
 80030ac:	461a      	mov	r2, r3
 80030ae:	4b47      	ldr	r3, [pc, #284]	; (80031cc <UART_SetConfig+0x384>)
 80030b0:	fba3 2302 	umull	r2, r3, r3, r2
 80030b4:	095b      	lsrs	r3, r3, #5
 80030b6:	ea4f 1803 	mov.w	r8, r3, lsl #4
 80030ba:	68bb      	ldr	r3, [r7, #8]
 80030bc:	461d      	mov	r5, r3
 80030be:	f04f 0600 	mov.w	r6, #0
 80030c2:	46a9      	mov	r9, r5
 80030c4:	46b2      	mov	sl, r6
 80030c6:	eb19 0309 	adds.w	r3, r9, r9
 80030ca:	eb4a 040a 	adc.w	r4, sl, sl
 80030ce:	4699      	mov	r9, r3
 80030d0:	46a2      	mov	sl, r4
 80030d2:	eb19 0905 	adds.w	r9, r9, r5
 80030d6:	eb4a 0a06 	adc.w	sl, sl, r6
 80030da:	f04f 0100 	mov.w	r1, #0
 80030de:	f04f 0200 	mov.w	r2, #0
 80030e2:	ea4f 02ca 	mov.w	r2, sl, lsl #3
 80030e6:	ea42 7259 	orr.w	r2, r2, r9, lsr #29
 80030ea:	ea4f 01c9 	mov.w	r1, r9, lsl #3
 80030ee:	4689      	mov	r9, r1
 80030f0:	4692      	mov	sl, r2
 80030f2:	eb19 0005 	adds.w	r0, r9, r5
 80030f6:	eb4a 0106 	adc.w	r1, sl, r6
 80030fa:	687b      	ldr	r3, [r7, #4]
 80030fc:	685b      	ldr	r3, [r3, #4]
 80030fe:	461d      	mov	r5, r3
 8003100:	f04f 0600 	mov.w	r6, #0
 8003104:	196b      	adds	r3, r5, r5
 8003106:	eb46 0406 	adc.w	r4, r6, r6
 800310a:	461a      	mov	r2, r3
 800310c:	4623      	mov	r3, r4
 800310e:	f7fd f875 	bl	80001fc <__aeabi_uldivmod>
 8003112:	4603      	mov	r3, r0
 8003114:	460c      	mov	r4, r1
 8003116:	461a      	mov	r2, r3
 8003118:	4b2c      	ldr	r3, [pc, #176]	; (80031cc <UART_SetConfig+0x384>)
 800311a:	fba3 1302 	umull	r1, r3, r3, r2
 800311e:	095b      	lsrs	r3, r3, #5
 8003120:	2164      	movs	r1, #100	; 0x64
 8003122:	fb01 f303 	mul.w	r3, r1, r3
 8003126:	1ad3      	subs	r3, r2, r3
 8003128:	00db      	lsls	r3, r3, #3
 800312a:	3332      	adds	r3, #50	; 0x32
 800312c:	4a27      	ldr	r2, [pc, #156]	; (80031cc <UART_SetConfig+0x384>)
 800312e:	fba2 2303 	umull	r2, r3, r2, r3
 8003132:	095b      	lsrs	r3, r3, #5
 8003134:	005b      	lsls	r3, r3, #1
 8003136:	f403 73f8 	and.w	r3, r3, #496	; 0x1f0
 800313a:	4498      	add	r8, r3
 800313c:	68bb      	ldr	r3, [r7, #8]
 800313e:	461d      	mov	r5, r3
 8003140:	f04f 0600 	mov.w	r6, #0
 8003144:	46a9      	mov	r9, r5
 8003146:	46b2      	mov	sl, r6
 8003148:	eb19 0309 	adds.w	r3, r9, r9
 800314c:	eb4a 040a 	adc.w	r4, sl, sl
 8003150:	4699      	mov	r9, r3
 8003152:	46a2      	mov	sl, r4
 8003154:	eb19 0905 	adds.w	r9, r9, r5
 8003158:	eb4a 0a06 	adc.w	sl, sl, r6
 800315c:	f04f 0100 	mov.w	r1, #0
 8003160:	f04f 0200 	mov.w	r2, #0
 8003164:	ea4f 02ca 	mov.w	r2, sl, lsl #3
 8003168:	ea42 7259 	orr.w	r2, r2, r9, lsr #29
 800316c:	ea4f 01c9 	mov.w	r1, r9, lsl #3
 8003170:	4689      	mov	r9, r1
 8003172:	4692      	mov	sl, r2
 8003174:	eb19 0005 	adds.w	r0, r9, r5
 8003178:	eb4a 0106 	adc.w	r1, sl, r6
 800317c:	687b      	ldr	r3, [r7, #4]
 800317e:	685b      	ldr	r3, [r3, #4]
 8003180:	461d      	mov	r5, r3
 8003182:	f04f 0600 	mov.w	r6, #0
 8003186:	196b      	adds	r3, r5, r5
 8003188:	eb46 0406 	adc.w	r4, r6, r6
 800318c:	461a      	mov	r2, r3
 800318e:	4623      	mov	r3, r4
 8003190:	f7fd f834 	bl	80001fc <__aeabi_uldivmod>
 8003194:	4603      	mov	r3, r0
 8003196:	460c      	mov	r4, r1
 8003198:	461a      	mov	r2, r3
 800319a:	4b0c      	ldr	r3, [pc, #48]	; (80031cc <UART_SetConfig+0x384>)
 800319c:	fba3 1302 	umull	r1, r3, r3, r2
 80031a0:	095b      	lsrs	r3, r3, #5
 80031a2:	2164      	movs	r1, #100	; 0x64
 80031a4:	fb01 f303 	mul.w	r3, r1, r3
 80031a8:	1ad3      	subs	r3, r2, r3
 80031aa:	00db      	lsls	r3, r3, #3
 80031ac:	3332      	adds	r3, #50	; 0x32
 80031ae:	4a07      	ldr	r2, [pc, #28]	; (80031cc <UART_SetConfig+0x384>)
 80031b0:	fba2 2303 	umull	r2, r3, r2, r3
 80031b4:	095b      	lsrs	r3, r3, #5
 80031b6:	f003 0207 	and.w	r2, r3, #7
 80031ba:	687b      	ldr	r3, [r7, #4]
 80031bc:	681b      	ldr	r3, [r3, #0]
 80031be:	4442      	add	r2, r8
 80031c0:	609a      	str	r2, [r3, #8]
    {
      pclk = HAL_RCC_GetPCLK1Freq();
      huart->Instance->BRR = UART_BRR_SAMPLING16(pclk, huart->Init.BaudRate);
    }
  }
}
 80031c2:	e1b2      	b.n	800352a <UART_SetConfig+0x6e2>
 80031c4:	40011000 	.word	0x40011000
 80031c8:	40011400 	.word	0x40011400
 80031cc:	51eb851f 	.word	0x51eb851f
    if ((huart->Instance == USART1) || (huart->Instance == USART6))
 80031d0:	687b      	ldr	r3, [r7, #4]
 80031d2:	681b      	ldr	r3, [r3, #0]
 80031d4:	4ad7      	ldr	r2, [pc, #860]	; (8003534 <UART_SetConfig+0x6ec>)
 80031d6:	4293      	cmp	r3, r2
 80031d8:	d005      	beq.n	80031e6 <UART_SetConfig+0x39e>
 80031da:	687b      	ldr	r3, [r7, #4]
 80031dc:	681b      	ldr	r3, [r3, #0]
 80031de:	4ad6      	ldr	r2, [pc, #856]	; (8003538 <UART_SetConfig+0x6f0>)
 80031e0:	4293      	cmp	r3, r2
 80031e2:	f040 80d1 	bne.w	8003388 <UART_SetConfig+0x540>
      pclk = HAL_RCC_GetPCLK2Freq();
 80031e6:	f7ff fdcd 	bl	8002d84 <HAL_RCC_GetPCLK2Freq>
 80031ea:	60b8      	str	r0, [r7, #8]
      huart->Instance->BRR = UART_BRR_SAMPLING16(pclk, huart->Init.BaudRate);
 80031ec:	68bb      	ldr	r3, [r7, #8]
 80031ee:	469a      	mov	sl, r3
 80031f0:	f04f 0b00 	mov.w	fp, #0
 80031f4:	46d0      	mov	r8, sl
 80031f6:	46d9      	mov	r9, fp
 80031f8:	eb18 0308 	adds.w	r3, r8, r8
 80031fc:	eb49 0409 	adc.w	r4, r9, r9
 8003200:	4698      	mov	r8, r3
 8003202:	46a1      	mov	r9, r4
 8003204:	eb18 080a 	adds.w	r8, r8, sl
 8003208:	eb49 090b 	adc.w	r9, r9, fp
 800320c:	f04f 0100 	mov.w	r1, #0
 8003210:	f04f 0200 	mov.w	r2, #0
 8003214:	ea4f 02c9 	mov.w	r2, r9, lsl #3
 8003218:	ea42 7258 	orr.w	r2, r2, r8, lsr #29
 800321c:	ea4f 01c8 	mov.w	r1, r8, lsl #3
 8003220:	4688      	mov	r8, r1
 8003222:	4691      	mov	r9, r2
 8003224:	eb1a 0508 	adds.w	r5, sl, r8
 8003228:	eb4b 0609 	adc.w	r6, fp, r9
 800322c:	687b      	ldr	r3, [r7, #4]
 800322e:	685b      	ldr	r3, [r3, #4]
 8003230:	4619      	mov	r1, r3
 8003232:	f04f 0200 	mov.w	r2, #0
 8003236:	f04f 0300 	mov.w	r3, #0
 800323a:	f04f 0400 	mov.w	r4, #0
 800323e:	0094      	lsls	r4, r2, #2
 8003240:	ea44 7491 	orr.w	r4, r4, r1, lsr #30
 8003244:	008b      	lsls	r3, r1, #2
 8003246:	461a      	mov	r2, r3
 8003248:	4623      	mov	r3, r4
 800324a:	4628      	mov	r0, r5
 800324c:	4631      	mov	r1, r6
 800324e:	f7fc ffd5 	bl	80001fc <__aeabi_uldivmod>
 8003252:	4603      	mov	r3, r0
 8003254:	460c      	mov	r4, r1
 8003256:	461a      	mov	r2, r3
 8003258:	4bb8      	ldr	r3, [pc, #736]	; (800353c <UART_SetConfig+0x6f4>)
 800325a:	fba3 2302 	umull	r2, r3, r3, r2
 800325e:	095b      	lsrs	r3, r3, #5
 8003260:	ea4f 1803 	mov.w	r8, r3, lsl #4
 8003264:	68bb      	ldr	r3, [r7, #8]
 8003266:	469b      	mov	fp, r3
 8003268:	f04f 0c00 	mov.w	ip, #0
 800326c:	46d9      	mov	r9, fp
 800326e:	46e2      	mov	sl, ip
 8003270:	eb19 0309 	adds.w	r3, r9, r9
 8003274:	eb4a 040a 	adc.w	r4, sl, sl
 8003278:	4699      	mov	r9, r3
 800327a:	46a2      	mov	sl, r4
 800327c:	eb19 090b 	adds.w	r9, r9, fp
 8003280:	eb4a 0a0c 	adc.w	sl, sl, ip
 8003284:	f04f 0100 	mov.w	r1, #0
 8003288:	f04f 0200 	mov.w	r2, #0
 800328c:	ea4f 02ca 	mov.w	r2, sl, lsl #3
 8003290:	ea42 7259 	orr.w	r2, r2, r9, lsr #29
 8003294:	ea4f 01c9 	mov.w	r1, r9, lsl #3
 8003298:	4689      	mov	r9, r1
 800329a:	4692      	mov	sl, r2
 800329c:	eb1b 0509 	adds.w	r5, fp, r9
 80032a0:	eb4c 060a 	adc.w	r6, ip, sl
 80032a4:	687b      	ldr	r3, [r7, #4]
 80032a6:	685b      	ldr	r3, [r3, #4]
 80032a8:	4619      	mov	r1, r3
 80032aa:	f04f 0200 	mov.w	r2, #0
 80032ae:	f04f 0300 	mov.w	r3, #0
 80032b2:	f04f 0400 	mov.w	r4, #0
 80032b6:	0094      	lsls	r4, r2, #2
 80032b8:	ea44 7491 	orr.w	r4, r4, r1, lsr #30
 80032bc:	008b      	lsls	r3, r1, #2
 80032be:	461a      	mov	r2, r3
 80032c0:	4623      	mov	r3, r4
 80032c2:	4628      	mov	r0, r5
 80032c4:	4631      	mov	r1, r6
 80032c6:	f7fc ff99 	bl	80001fc <__aeabi_uldivmod>
 80032ca:	4603      	mov	r3, r0
 80032cc:	460c      	mov	r4, r1
 80032ce:	461a      	mov	r2, r3
 80032d0:	4b9a      	ldr	r3, [pc, #616]	; (800353c <UART_SetConfig+0x6f4>)
 80032d2:	fba3 1302 	umull	r1, r3, r3, r2
 80032d6:	095b      	lsrs	r3, r3, #5
 80032d8:	2164      	movs	r1, #100	; 0x64
 80032da:	fb01 f303 	mul.w	r3, r1, r3
 80032de:	1ad3      	subs	r3, r2, r3
 80032e0:	011b      	lsls	r3, r3, #4
 80032e2:	3332      	adds	r3, #50	; 0x32
 80032e4:	4a95      	ldr	r2, [pc, #596]	; (800353c <UART_SetConfig+0x6f4>)
 80032e6:	fba2 2303 	umull	r2, r3, r2, r3
 80032ea:	095b      	lsrs	r3, r3, #5
 80032ec:	f003 03f0 	and.w	r3, r3, #240	; 0xf0
 80032f0:	4498      	add	r8, r3
 80032f2:	68bb      	ldr	r3, [r7, #8]
 80032f4:	469b      	mov	fp, r3
 80032f6:	f04f 0c00 	mov.w	ip, #0
 80032fa:	46d9      	mov	r9, fp
 80032fc:	46e2      	mov	sl, ip
 80032fe:	eb19 0309 	adds.w	r3, r9, r9
 8003302:	eb4a 040a 	adc.w	r4, sl, sl
 8003306:	4699      	mov	r9, r3
 8003308:	46a2      	mov	sl, r4
 800330a:	eb19 090b 	adds.w	r9, r9, fp
 800330e:	eb4a 0a0c 	adc.w	sl, sl, ip
 8003312:	f04f 0100 	mov.w	r1, #0
 8003316:	f04f 0200 	mov.w	r2, #0
 800331a:	ea4f 02ca 	mov.w	r2, sl, lsl #3
 800331e:	ea42 7259 	orr.w	r2, r2, r9, lsr #29
 8003322:	ea4f 01c9 	mov.w	r1, r9, lsl #3
 8003326:	4689      	mov	r9, r1
 8003328:	4692      	mov	sl, r2
 800332a:	eb1b 0509 	adds.w	r5, fp, r9
 800332e:	eb4c 060a 	adc.w	r6, ip, sl
 8003332:	687b      	ldr	r3, [r7, #4]
 8003334:	685b      	ldr	r3, [r3, #4]
 8003336:	4619      	mov	r1, r3
 8003338:	f04f 0200 	mov.w	r2, #0
 800333c:	f04f 0300 	mov.w	r3, #0
 8003340:	f04f 0400 	mov.w	r4, #0
 8003344:	0094      	lsls	r4, r2, #2
 8003346:	ea44 7491 	orr.w	r4, r4, r1, lsr #30
 800334a:	008b      	lsls	r3, r1, #2
 800334c:	461a      	mov	r2, r3
 800334e:	4623      	mov	r3, r4
 8003350:	4628      	mov	r0, r5
 8003352:	4631      	mov	r1, r6
 8003354:	f7fc ff52 	bl	80001fc <__aeabi_uldivmod>
 8003358:	4603      	mov	r3, r0
 800335a:	460c      	mov	r4, r1
 800335c:	461a      	mov	r2, r3
 800335e:	4b77      	ldr	r3, [pc, #476]	; (800353c <UART_SetConfig+0x6f4>)
 8003360:	fba3 1302 	umull	r1, r3, r3, r2
 8003364:	095b      	lsrs	r3, r3, #5
 8003366:	2164      	movs	r1, #100	; 0x64
 8003368:	fb01 f303 	mul.w	r3, r1, r3
 800336c:	1ad3      	subs	r3, r2, r3
 800336e:	011b      	lsls	r3, r3, #4
 8003370:	3332      	adds	r3, #50	; 0x32
 8003372:	4a72      	ldr	r2, [pc, #456]	; (800353c <UART_SetConfig+0x6f4>)
 8003374:	fba2 2303 	umull	r2, r3, r2, r3
 8003378:	095b      	lsrs	r3, r3, #5
 800337a:	f003 020f 	and.w	r2, r3, #15
 800337e:	687b      	ldr	r3, [r7, #4]
 8003380:	681b      	ldr	r3, [r3, #0]
 8003382:	4442      	add	r2, r8
 8003384:	609a      	str	r2, [r3, #8]
 8003386:	e0d0      	b.n	800352a <UART_SetConfig+0x6e2>
      pclk = HAL_RCC_GetPCLK1Freq();
 8003388:	f7ff fce8 	bl	8002d5c <HAL_RCC_GetPCLK1Freq>
 800338c:	60b8      	str	r0, [r7, #8]
      huart->Instance->BRR = UART_BRR_SAMPLING16(pclk, huart->Init.BaudRate);
 800338e:	68bb      	ldr	r3, [r7, #8]
 8003390:	469a      	mov	sl, r3
 8003392:	f04f 0b00 	mov.w	fp, #0
 8003396:	46d0      	mov	r8, sl
 8003398:	46d9      	mov	r9, fp
 800339a:	eb18 0308 	adds.w	r3, r8, r8
 800339e:	eb49 0409 	adc.w	r4, r9, r9
 80033a2:	4698      	mov	r8, r3
 80033a4:	46a1      	mov	r9, r4
 80033a6:	eb18 080a 	adds.w	r8, r8, sl
 80033aa:	eb49 090b 	adc.w	r9, r9, fp
 80033ae:	f04f 0100 	mov.w	r1, #0
 80033b2:	f04f 0200 	mov.w	r2, #0
 80033b6:	ea4f 02c9 	mov.w	r2, r9, lsl #3
 80033ba:	ea42 7258 	orr.w	r2, r2, r8, lsr #29
 80033be:	ea4f 01c8 	mov.w	r1, r8, lsl #3
 80033c2:	4688      	mov	r8, r1
 80033c4:	4691      	mov	r9, r2
 80033c6:	eb1a 0508 	adds.w	r5, sl, r8
 80033ca:	eb4b 0609 	adc.w	r6, fp, r9
 80033ce:	687b      	ldr	r3, [r7, #4]
 80033d0:	685b      	ldr	r3, [r3, #4]
 80033d2:	4619      	mov	r1, r3
 80033d4:	f04f 0200 	mov.w	r2, #0
 80033d8:	f04f 0300 	mov.w	r3, #0
 80033dc:	f04f 0400 	mov.w	r4, #0
 80033e0:	0094      	lsls	r4, r2, #2
 80033e2:	ea44 7491 	orr.w	r4, r4, r1, lsr #30
 80033e6:	008b      	lsls	r3, r1, #2
 80033e8:	461a      	mov	r2, r3
 80033ea:	4623      	mov	r3, r4
 80033ec:	4628      	mov	r0, r5
 80033ee:	4631      	mov	r1, r6
 80033f0:	f7fc ff04 	bl	80001fc <__aeabi_uldivmod>
 80033f4:	4603      	mov	r3, r0
 80033f6:	460c      	mov	r4, r1
 80033f8:	461a      	mov	r2, r3
 80033fa:	4b50      	ldr	r3, [pc, #320]	; (800353c <UART_SetConfig+0x6f4>)
 80033fc:	fba3 2302 	umull	r2, r3, r3, r2
 8003400:	095b      	lsrs	r3, r3, #5
 8003402:	ea4f 1803 	mov.w	r8, r3, lsl #4
 8003406:	68bb      	ldr	r3, [r7, #8]
 8003408:	469b      	mov	fp, r3
 800340a:	f04f 0c00 	mov.w	ip, #0
 800340e:	46d9      	mov	r9, fp
 8003410:	46e2      	mov	sl, ip
 8003412:	eb19 0309 	adds.w	r3, r9, r9
 8003416:	eb4a 040a 	adc.w	r4, sl, sl
 800341a:	4699      	mov	r9, r3
 800341c:	46a2      	mov	sl, r4
 800341e:	eb19 090b 	adds.w	r9, r9, fp
 8003422:	eb4a 0a0c 	adc.w	sl, sl, ip
 8003426:	f04f 0100 	mov.w	r1, #0
 800342a:	f04f 0200 	mov.w	r2, #0
 800342e:	ea4f 02ca 	mov.w	r2, sl, lsl #3
 8003432:	ea42 7259 	orr.w	r2, r2, r9, lsr #29
 8003436:	ea4f 01c9 	mov.w	r1, r9, lsl #3
 800343a:	4689      	mov	r9, r1
 800343c:	4692      	mov	sl, r2
 800343e:	eb1b 0509 	adds.w	r5, fp, r9
 8003442:	eb4c 060a 	adc.w	r6, ip, sl
 8003446:	687b      	ldr	r3, [r7, #4]
 8003448:	685b      	ldr	r3, [r3, #4]
 800344a:	4619      	mov	r1, r3
 800344c:	f04f 0200 	mov.w	r2, #0
 8003450:	f04f 0300 	mov.w	r3, #0
 8003454:	f04f 0400 	mov.w	r4, #0
 8003458:	0094      	lsls	r4, r2, #2
 800345a:	ea44 7491 	orr.w	r4, r4, r1, lsr #30
 800345e:	008b      	lsls	r3, r1, #2
 8003460:	461a      	mov	r2, r3
 8003462:	4623      	mov	r3, r4
 8003464:	4628      	mov	r0, r5
 8003466:	4631      	mov	r1, r6
 8003468:	f7fc fec8 	bl	80001fc <__aeabi_uldivmod>
 800346c:	4603      	mov	r3, r0
 800346e:	460c      	mov	r4, r1
 8003470:	461a      	mov	r2, r3
 8003472:	4b32      	ldr	r3, [pc, #200]	; (800353c <UART_SetConfig+0x6f4>)
 8003474:	fba3 1302 	umull	r1, r3, r3, r2
 8003478:	095b      	lsrs	r3, r3, #5
 800347a:	2164      	movs	r1, #100	; 0x64
 800347c:	fb01 f303 	mul.w	r3, r1, r3
 8003480:	1ad3      	subs	r3, r2, r3
 8003482:	011b      	lsls	r3, r3, #4
 8003484:	3332      	adds	r3, #50	; 0x32
 8003486:	4a2d      	ldr	r2, [pc, #180]	; (800353c <UART_SetConfig+0x6f4>)
 8003488:	fba2 2303 	umull	r2, r3, r2, r3
 800348c:	095b      	lsrs	r3, r3, #5
 800348e:	f003 03f0 	and.w	r3, r3, #240	; 0xf0
 8003492:	4498      	add	r8, r3
 8003494:	68bb      	ldr	r3, [r7, #8]
 8003496:	469b      	mov	fp, r3
 8003498:	f04f 0c00 	mov.w	ip, #0
 800349c:	46d9      	mov	r9, fp
 800349e:	46e2      	mov	sl, ip
 80034a0:	eb19 0309 	adds.w	r3, r9, r9
 80034a4:	eb4a 040a 	adc.w	r4, sl, sl
 80034a8:	4699      	mov	r9, r3
 80034aa:	46a2      	mov	sl, r4
 80034ac:	eb19 090b 	adds.w	r9, r9, fp
 80034b0:	eb4a 0a0c 	adc.w	sl, sl, ip
 80034b4:	f04f 0100 	mov.w	r1, #0
 80034b8:	f04f 0200 	mov.w	r2, #0
 80034bc:	ea4f 02ca 	mov.w	r2, sl, lsl #3
 80034c0:	ea42 7259 	orr.w	r2, r2, r9, lsr #29
 80034c4:	ea4f 01c9 	mov.w	r1, r9, lsl #3
 80034c8:	4689      	mov	r9, r1
 80034ca:	4692      	mov	sl, r2
 80034cc:	eb1b 0509 	adds.w	r5, fp, r9
 80034d0:	eb4c 060a 	adc.w	r6, ip, sl
 80034d4:	687b      	ldr	r3, [r7, #4]
 80034d6:	685b      	ldr	r3, [r3, #4]
 80034d8:	4619      	mov	r1, r3
 80034da:	f04f 0200 	mov.w	r2, #0
 80034de:	f04f 0300 	mov.w	r3, #0
 80034e2:	f04f 0400 	mov.w	r4, #0
 80034e6:	0094      	lsls	r4, r2, #2
 80034e8:	ea44 7491 	orr.w	r4, r4, r1, lsr #30
 80034ec:	008b      	lsls	r3, r1, #2
 80034ee:	461a      	mov	r2, r3
 80034f0:	4623      	mov	r3, r4
 80034f2:	4628      	mov	r0, r5
 80034f4:	4631      	mov	r1, r6
 80034f6:	f7fc fe81 	bl	80001fc <__aeabi_uldivmod>
 80034fa:	4603      	mov	r3, r0
 80034fc:	460c      	mov	r4, r1
 80034fe:	461a      	mov	r2, r3
 8003500:	4b0e      	ldr	r3, [pc, #56]	; (800353c <UART_SetConfig+0x6f4>)
 8003502:	fba3 1302 	umull	r1, r3, r3, r2
 8003506:	095b      	lsrs	r3, r3, #5
 8003508:	2164      	movs	r1, #100	; 0x64
 800350a:	fb01 f303 	mul.w	r3, r1, r3
 800350e:	1ad3      	subs	r3, r2, r3
 8003510:	011b      	lsls	r3, r3, #4
 8003512:	3332      	adds	r3, #50	; 0x32
 8003514:	4a09      	ldr	r2, [pc, #36]	; (800353c <UART_SetConfig+0x6f4>)
 8003516:	fba2 2303 	umull	r2, r3, r2, r3
 800351a:	095b      	lsrs	r3, r3, #5
 800351c:	f003 020f 	and.w	r2, r3, #15
 8003520:	687b      	ldr	r3, [r7, #4]
 8003522:	681b      	ldr	r3, [r3, #0]
 8003524:	4442      	add	r2, r8
 8003526:	609a      	str	r2, [r3, #8]
}
 8003528:	e7ff      	b.n	800352a <UART_SetConfig+0x6e2>
 800352a:	bf00      	nop
 800352c:	3714      	adds	r7, #20
 800352e:	46bd      	mov	sp, r7
 8003530:	e8bd 8ff0 	ldmia.w	sp!, {r4, r5, r6, r7, r8, r9, sl, fp, pc}
 8003534:	40011000 	.word	0x40011000
 8003538:	40011400 	.word	0x40011400
 800353c:	51eb851f 	.word	0x51eb851f

08003540 <USB_CoreInit>:
  * @param  cfg pointer to a USB_OTG_CfgTypeDef structure that contains
  *         the configuration information for the specified USBx peripheral.
  * @retval HAL status
  */
HAL_StatusTypeDef USB_CoreInit(USB_OTG_GlobalTypeDef *USBx, USB_OTG_CfgTypeDef cfg)
{
 8003540:	b084      	sub	sp, #16
 8003542:	b580      	push	{r7, lr}
 8003544:	b084      	sub	sp, #16
 8003546:	af00      	add	r7, sp, #0
 8003548:	6078      	str	r0, [r7, #4]
 800354a:	f107 001c 	add.w	r0, r7, #28
 800354e:	e880 000e 	stmia.w	r0, {r1, r2, r3}
  HAL_StatusTypeDef ret;

  if (cfg.phy_itface == USB_OTG_ULPI_PHY)
 8003552:	6b3b      	ldr	r3, [r7, #48]	; 0x30
 8003554:	2b01      	cmp	r3, #1
 8003556:	d122      	bne.n	800359e <USB_CoreInit+0x5e>
  {
    USBx->GCCFG &= ~(USB_OTG_GCCFG_PWRDWN);
 8003558:	687b      	ldr	r3, [r7, #4]
 800355a:	6b9b      	ldr	r3, [r3, #56]	; 0x38
 800355c:	f423 3280 	bic.w	r2, r3, #65536	; 0x10000
 8003560:	687b      	ldr	r3, [r7, #4]
 8003562:	639a      	str	r2, [r3, #56]	; 0x38

    /* Init The ULPI Interface */
    USBx->GUSBCFG &= ~(USB_OTG_GUSBCFG_TSDPS | USB_OTG_GUSBCFG_ULPIFSLS | USB_OTG_GUSBCFG_PHYSEL);
 8003564:	687b      	ldr	r3, [r7, #4]
 8003566:	68db      	ldr	r3, [r3, #12]
 8003568:	f423 0384 	bic.w	r3, r3, #4325376	; 0x420000
 800356c:	f023 0340 	bic.w	r3, r3, #64	; 0x40
 8003570:	687a      	ldr	r2, [r7, #4]
 8003572:	60d3      	str	r3, [r2, #12]

    /* Select vbus source */
    USBx->GUSBCFG &= ~(USB_OTG_GUSBCFG_ULPIEVBUSD | USB_OTG_GUSBCFG_ULPIEVBUSI);
 8003574:	687b      	ldr	r3, [r7, #4]
 8003576:	68db      	ldr	r3, [r3, #12]
 8003578:	f423 1240 	bic.w	r2, r3, #3145728	; 0x300000
 800357c:	687b      	ldr	r3, [r7, #4]
 800357e:	60da      	str	r2, [r3, #12]
    if (cfg.use_external_vbus == 1U)
 8003580:	6cfb      	ldr	r3, [r7, #76]	; 0x4c
 8003582:	2b01      	cmp	r3, #1
 8003584:	d105      	bne.n	8003592 <USB_CoreInit+0x52>
    {
      USBx->GUSBCFG |= USB_OTG_GUSBCFG_ULPIEVBUSD;
 8003586:	687b      	ldr	r3, [r7, #4]
 8003588:	68db      	ldr	r3, [r3, #12]
 800358a:	f443 1280 	orr.w	r2, r3, #1048576	; 0x100000
 800358e:	687b      	ldr	r3, [r7, #4]
 8003590:	60da      	str	r2, [r3, #12]
    }
    /* Reset after a PHY select  */
    ret = USB_CoreReset(USBx);
 8003592:	6878      	ldr	r0, [r7, #4]
 8003594:	f001 fac6 	bl	8004b24 <USB_CoreReset>
 8003598:	4603      	mov	r3, r0
 800359a:	73fb      	strb	r3, [r7, #15]
 800359c:	e01a      	b.n	80035d4 <USB_CoreInit+0x94>
  }
  else /* FS interface (embedded Phy) */
  {
    /* Select FS Embedded PHY */
    USBx->GUSBCFG |= USB_OTG_GUSBCFG_PHYSEL;
 800359e:	687b      	ldr	r3, [r7, #4]
 80035a0:	68db      	ldr	r3, [r3, #12]
 80035a2:	f043 0240 	orr.w	r2, r3, #64	; 0x40
 80035a6:	687b      	ldr	r3, [r7, #4]
 80035a8:	60da      	str	r2, [r3, #12]

    /* Reset after a PHY select */
    ret = USB_CoreReset(USBx);
 80035aa:	6878      	ldr	r0, [r7, #4]
 80035ac:	f001 faba 	bl	8004b24 <USB_CoreReset>
 80035b0:	4603      	mov	r3, r0
 80035b2:	73fb      	strb	r3, [r7, #15]

    if (cfg.battery_charging_enable == 0U)
 80035b4:	6c3b      	ldr	r3, [r7, #64]	; 0x40
 80035b6:	2b00      	cmp	r3, #0
 80035b8:	d106      	bne.n	80035c8 <USB_CoreInit+0x88>
    {
      /* Activate the USB Transceiver */
      USBx->GCCFG |= USB_OTG_GCCFG_PWRDWN;
 80035ba:	687b      	ldr	r3, [r7, #4]
 80035bc:	6b9b      	ldr	r3, [r3, #56]	; 0x38
 80035be:	f443 3280 	orr.w	r2, r3, #65536	; 0x10000
 80035c2:	687b      	ldr	r3, [r7, #4]
 80035c4:	639a      	str	r2, [r3, #56]	; 0x38
 80035c6:	e005      	b.n	80035d4 <USB_CoreInit+0x94>
    }
    else
    {
      /* Deactivate the USB Transceiver */
      USBx->GCCFG &= ~(USB_OTG_GCCFG_PWRDWN);
 80035c8:	687b      	ldr	r3, [r7, #4]
 80035ca:	6b9b      	ldr	r3, [r3, #56]	; 0x38
 80035cc:	f423 3280 	bic.w	r2, r3, #65536	; 0x10000
 80035d0:	687b      	ldr	r3, [r7, #4]
 80035d2:	639a      	str	r2, [r3, #56]	; 0x38
    }
  }

  if (cfg.dma_enable == 1U)
 80035d4:	6abb      	ldr	r3, [r7, #40]	; 0x28
 80035d6:	2b01      	cmp	r3, #1
 80035d8:	d10b      	bne.n	80035f2 <USB_CoreInit+0xb2>
  {
    USBx->GAHBCFG |= USB_OTG_GAHBCFG_HBSTLEN_2;
 80035da:	687b      	ldr	r3, [r7, #4]
 80035dc:	689b      	ldr	r3, [r3, #8]
 80035de:	f043 0206 	orr.w	r2, r3, #6
 80035e2:	687b      	ldr	r3, [r7, #4]
 80035e4:	609a      	str	r2, [r3, #8]
    USBx->GAHBCFG |= USB_OTG_GAHBCFG_DMAEN;
 80035e6:	687b      	ldr	r3, [r7, #4]
 80035e8:	689b      	ldr	r3, [r3, #8]
 80035ea:	f043 0220 	orr.w	r2, r3, #32
 80035ee:	687b      	ldr	r3, [r7, #4]
 80035f0:	609a      	str	r2, [r3, #8]
  }

  return ret;
 80035f2:	7bfb      	ldrb	r3, [r7, #15]
}
 80035f4:	4618      	mov	r0, r3
 80035f6:	3710      	adds	r7, #16
 80035f8:	46bd      	mov	sp, r7
 80035fa:	e8bd 4080 	ldmia.w	sp!, {r7, lr}
 80035fe:	b004      	add	sp, #16
 8003600:	4770      	bx	lr
	...

08003604 <USB_SetTurnaroundTime>:
  * @param  hclk: AHB clock frequency
  * @retval USB turnaround time In PHY Clocks number
  */
HAL_StatusTypeDef USB_SetTurnaroundTime(USB_OTG_GlobalTypeDef *USBx,
                                        uint32_t hclk, uint8_t speed)
{
 8003604:	b480      	push	{r7}
 8003606:	b087      	sub	sp, #28
 8003608:	af00      	add	r7, sp, #0
 800360a:	60f8      	str	r0, [r7, #12]
 800360c:	60b9      	str	r1, [r7, #8]
 800360e:	4613      	mov	r3, r2
 8003610:	71fb      	strb	r3, [r7, #7]

  /* The USBTRD is configured according to the tables below, depending on AHB frequency
  used by application. In the low AHB frequency range it is used to stretch enough the USB response
  time to IN tokens, the USB turnaround time, so to compensate for the longer AHB read access
  latency to the Data FIFO */
  if (speed == USBD_FS_SPEED)
 8003612:	79fb      	ldrb	r3, [r7, #7]
 8003614:	2b02      	cmp	r3, #2
 8003616:	d165      	bne.n	80036e4 <USB_SetTurnaroundTime+0xe0>
  {
    if ((hclk >= 14200000U) && (hclk < 15000000U))
 8003618:	68bb      	ldr	r3, [r7, #8]
 800361a:	4a41      	ldr	r2, [pc, #260]	; (8003720 <USB_SetTurnaroundTime+0x11c>)
 800361c:	4293      	cmp	r3, r2
 800361e:	d906      	bls.n	800362e <USB_SetTurnaroundTime+0x2a>
 8003620:	68bb      	ldr	r3, [r7, #8]
 8003622:	4a40      	ldr	r2, [pc, #256]	; (8003724 <USB_SetTurnaroundTime+0x120>)
 8003624:	4293      	cmp	r3, r2
 8003626:	d802      	bhi.n	800362e <USB_SetTurnaroundTime+0x2a>
    {
      /* hclk Clock Range between 14.2-15 MHz */
      UsbTrd = 0xFU;
 8003628:	230f      	movs	r3, #15
 800362a:	617b      	str	r3, [r7, #20]
 800362c:	e062      	b.n	80036f4 <USB_SetTurnaroundTime+0xf0>
    }
    else if ((hclk >= 15000000U) && (hclk < 16000000U))
 800362e:	68bb      	ldr	r3, [r7, #8]
 8003630:	4a3c      	ldr	r2, [pc, #240]	; (8003724 <USB_SetTurnaroundTime+0x120>)
 8003632:	4293      	cmp	r3, r2
 8003634:	d906      	bls.n	8003644 <USB_SetTurnaroundTime+0x40>
 8003636:	68bb      	ldr	r3, [r7, #8]
 8003638:	4a3b      	ldr	r2, [pc, #236]	; (8003728 <USB_SetTurnaroundTime+0x124>)
 800363a:	4293      	cmp	r3, r2
 800363c:	d802      	bhi.n	8003644 <USB_SetTurnaroundTime+0x40>
    {
      /* hclk Clock Range between 15-16 MHz */
      UsbTrd = 0xEU;
 800363e:	230e      	movs	r3, #14
 8003640:	617b      	str	r3, [r7, #20]
 8003642:	e057      	b.n	80036f4 <USB_SetTurnaroundTime+0xf0>
    }
    else if ((hclk >= 16000000U) && (hclk < 17200000U))
 8003644:	68bb      	ldr	r3, [r7, #8]
 8003646:	4a38      	ldr	r2, [pc, #224]	; (8003728 <USB_SetTurnaroundTime+0x124>)
 8003648:	4293      	cmp	r3, r2
 800364a:	d906      	bls.n	800365a <USB_SetTurnaroundTime+0x56>
 800364c:	68bb      	ldr	r3, [r7, #8]
 800364e:	4a37      	ldr	r2, [pc, #220]	; (800372c <USB_SetTurnaroundTime+0x128>)
 8003650:	4293      	cmp	r3, r2
 8003652:	d802      	bhi.n	800365a <USB_SetTurnaroundTime+0x56>
    {
      /* hclk Clock Range between 16-17.2 MHz */
      UsbTrd = 0xDU;
 8003654:	230d      	movs	r3, #13
 8003656:	617b      	str	r3, [r7, #20]
 8003658:	e04c      	b.n	80036f4 <USB_SetTurnaroundTime+0xf0>
    }
    else if ((hclk >= 17200000U) && (hclk < 18500000U))
 800365a:	68bb      	ldr	r3, [r7, #8]
 800365c:	4a33      	ldr	r2, [pc, #204]	; (800372c <USB_SetTurnaroundTime+0x128>)
 800365e:	4293      	cmp	r3, r2
 8003660:	d906      	bls.n	8003670 <USB_SetTurnaroundTime+0x6c>
 8003662:	68bb      	ldr	r3, [r7, #8]
 8003664:	4a32      	ldr	r2, [pc, #200]	; (8003730 <USB_SetTurnaroundTime+0x12c>)
 8003666:	4293      	cmp	r3, r2
 8003668:	d802      	bhi.n	8003670 <USB_SetTurnaroundTime+0x6c>
    {
      /* hclk Clock Range between 17.2-18.5 MHz */
      UsbTrd = 0xCU;
 800366a:	230c      	movs	r3, #12
 800366c:	617b      	str	r3, [r7, #20]
 800366e:	e041      	b.n	80036f4 <USB_SetTurnaroundTime+0xf0>
    }
    else if ((hclk >= 18500000U) && (hclk < 20000000U))
 8003670:	68bb      	ldr	r3, [r7, #8]
 8003672:	4a2f      	ldr	r2, [pc, #188]	; (8003730 <USB_SetTurnaroundTime+0x12c>)
 8003674:	4293      	cmp	r3, r2
 8003676:	d906      	bls.n	8003686 <USB_SetTurnaroundTime+0x82>
 8003678:	68bb      	ldr	r3, [r7, #8]
 800367a:	4a2e      	ldr	r2, [pc, #184]	; (8003734 <USB_SetTurnaroundTime+0x130>)
 800367c:	4293      	cmp	r3, r2
 800367e:	d802      	bhi.n	8003686 <USB_SetTurnaroundTime+0x82>
    {
      /* hclk Clock Range between 18.5-20 MHz */
      UsbTrd = 0xBU;
 8003680:	230b      	movs	r3, #11
 8003682:	617b      	str	r3, [r7, #20]
 8003684:	e036      	b.n	80036f4 <USB_SetTurnaroundTime+0xf0>
    }
    else if ((hclk >= 20000000U) && (hclk < 21800000U))
 8003686:	68bb      	ldr	r3, [r7, #8]
 8003688:	4a2a      	ldr	r2, [pc, #168]	; (8003734 <USB_SetTurnaroundTime+0x130>)
 800368a:	4293      	cmp	r3, r2
 800368c:	d906      	bls.n	800369c <USB_SetTurnaroundTime+0x98>
 800368e:	68bb      	ldr	r3, [r7, #8]
 8003690:	4a29      	ldr	r2, [pc, #164]	; (8003738 <USB_SetTurnaroundTime+0x134>)
 8003692:	4293      	cmp	r3, r2
 8003694:	d802      	bhi.n	800369c <USB_SetTurnaroundTime+0x98>
    {
      /* hclk Clock Range between 20-21.8 MHz */
      UsbTrd = 0xAU;
 8003696:	230a      	movs	r3, #10
 8003698:	617b      	str	r3, [r7, #20]
 800369a:	e02b      	b.n	80036f4 <USB_SetTurnaroundTime+0xf0>
    }
    else if ((hclk >= 21800000U) && (hclk < 24000000U))
 800369c:	68bb      	ldr	r3, [r7, #8]
 800369e:	4a26      	ldr	r2, [pc, #152]	; (8003738 <USB_SetTurnaroundTime+0x134>)
 80036a0:	4293      	cmp	r3, r2
 80036a2:	d906      	bls.n	80036b2 <USB_SetTurnaroundTime+0xae>
 80036a4:	68bb      	ldr	r3, [r7, #8]
 80036a6:	4a25      	ldr	r2, [pc, #148]	; (800373c <USB_SetTurnaroundTime+0x138>)
 80036a8:	4293      	cmp	r3, r2
 80036aa:	d802      	bhi.n	80036b2 <USB_SetTurnaroundTime+0xae>
    {
      /* hclk Clock Range between 21.8-24 MHz */
      UsbTrd = 0x9U;
 80036ac:	2309      	movs	r3, #9
 80036ae:	617b      	str	r3, [r7, #20]
 80036b0:	e020      	b.n	80036f4 <USB_SetTurnaroundTime+0xf0>
    }
    else if ((hclk >= 24000000U) && (hclk < 27700000U))
 80036b2:	68bb      	ldr	r3, [r7, #8]
 80036b4:	4a21      	ldr	r2, [pc, #132]	; (800373c <USB_SetTurnaroundTime+0x138>)
 80036b6:	4293      	cmp	r3, r2
 80036b8:	d906      	bls.n	80036c8 <USB_SetTurnaroundTime+0xc4>
 80036ba:	68bb      	ldr	r3, [r7, #8]
 80036bc:	4a20      	ldr	r2, [pc, #128]	; (8003740 <USB_SetTurnaroundTime+0x13c>)
 80036be:	4293      	cmp	r3, r2
 80036c0:	d802      	bhi.n	80036c8 <USB_SetTurnaroundTime+0xc4>
    {
      /* hclk Clock Range between 24-27.7 MHz */
      UsbTrd = 0x8U;
 80036c2:	2308      	movs	r3, #8
 80036c4:	617b      	str	r3, [r7, #20]
 80036c6:	e015      	b.n	80036f4 <USB_SetTurnaroundTime+0xf0>
    }
    else if ((hclk >= 27700000U) && (hclk < 32000000U))
 80036c8:	68bb      	ldr	r3, [r7, #8]
 80036ca:	4a1d      	ldr	r2, [pc, #116]	; (8003740 <USB_SetTurnaroundTime+0x13c>)
 80036cc:	4293      	cmp	r3, r2
 80036ce:	d906      	bls.n	80036de <USB_SetTurnaroundTime+0xda>
 80036d0:	68bb      	ldr	r3, [r7, #8]
 80036d2:	4a1c      	ldr	r2, [pc, #112]	; (8003744 <USB_SetTurnaroundTime+0x140>)
 80036d4:	4293      	cmp	r3, r2
 80036d6:	d802      	bhi.n	80036de <USB_SetTurnaroundTime+0xda>
    {
      /* hclk Clock Range between 27.7-32 MHz */
      UsbTrd = 0x7U;
 80036d8:	2307      	movs	r3, #7
 80036da:	617b      	str	r3, [r7, #20]
 80036dc:	e00a      	b.n	80036f4 <USB_SetTurnaroundTime+0xf0>
    }
    else /* if(hclk >= 32000000) */
    {
      /* hclk Clock Range between 32-200 MHz */
      UsbTrd = 0x6U;
 80036de:	2306      	movs	r3, #6
 80036e0:	617b      	str	r3, [r7, #20]
 80036e2:	e007      	b.n	80036f4 <USB_SetTurnaroundTime+0xf0>
    }
  }
  else if (speed == USBD_HS_SPEED)
 80036e4:	79fb      	ldrb	r3, [r7, #7]
 80036e6:	2b00      	cmp	r3, #0
 80036e8:	d102      	bne.n	80036f0 <USB_SetTurnaroundTime+0xec>
  {
    UsbTrd = USBD_HS_TRDT_VALUE;
 80036ea:	2309      	movs	r3, #9
 80036ec:	617b      	str	r3, [r7, #20]
 80036ee:	e001      	b.n	80036f4 <USB_SetTurnaroundTime+0xf0>
  }
  else
  {
    UsbTrd = USBD_DEFAULT_TRDT_VALUE;
 80036f0:	2309      	movs	r3, #9
 80036f2:	617b      	str	r3, [r7, #20]
  }

  USBx->GUSBCFG &= ~USB_OTG_GUSBCFG_TRDT;
 80036f4:	68fb      	ldr	r3, [r7, #12]
 80036f6:	68db      	ldr	r3, [r3, #12]
 80036f8:	f423 5270 	bic.w	r2, r3, #15360	; 0x3c00
 80036fc:	68fb      	ldr	r3, [r7, #12]
 80036fe:	60da      	str	r2, [r3, #12]
  USBx->GUSBCFG |= (uint32_t)((UsbTrd << 10) & USB_OTG_GUSBCFG_TRDT);
 8003700:	68fb      	ldr	r3, [r7, #12]
 8003702:	68da      	ldr	r2, [r3, #12]
 8003704:	697b      	ldr	r3, [r7, #20]
 8003706:	029b      	lsls	r3, r3, #10
 8003708:	f403 5370 	and.w	r3, r3, #15360	; 0x3c00
 800370c:	431a      	orrs	r2, r3
 800370e:	68fb      	ldr	r3, [r7, #12]
 8003710:	60da      	str	r2, [r3, #12]

  return HAL_OK;
 8003712:	2300      	movs	r3, #0
}
 8003714:	4618      	mov	r0, r3
 8003716:	371c      	adds	r7, #28
 8003718:	46bd      	mov	sp, r7
 800371a:	f85d 7b04 	ldr.w	r7, [sp], #4
 800371e:	4770      	bx	lr
 8003720:	00d8acbf 	.word	0x00d8acbf
 8003724:	00e4e1bf 	.word	0x00e4e1bf
 8003728:	00f423ff 	.word	0x00f423ff
 800372c:	0106737f 	.word	0x0106737f
 8003730:	011a499f 	.word	0x011a499f
 8003734:	01312cff 	.word	0x01312cff
 8003738:	014ca43f 	.word	0x014ca43f
 800373c:	016e35ff 	.word	0x016e35ff
 8003740:	01a6ab1f 	.word	0x01a6ab1f
 8003744:	01e847ff 	.word	0x01e847ff

08003748 <USB_EnableGlobalInt>:
  *         Enables the controller's Global Int in the AHB Config reg
  * @param  USBx  Selected device
  * @retval HAL status
  */
HAL_StatusTypeDef USB_EnableGlobalInt(USB_OTG_GlobalTypeDef *USBx)
{
 8003748:	b480      	push	{r7}
 800374a:	b083      	sub	sp, #12
 800374c:	af00      	add	r7, sp, #0
 800374e:	6078      	str	r0, [r7, #4]
  USBx->GAHBCFG |= USB_OTG_GAHBCFG_GINT;
 8003750:	687b      	ldr	r3, [r7, #4]
 8003752:	689b      	ldr	r3, [r3, #8]
 8003754:	f043 0201 	orr.w	r2, r3, #1
 8003758:	687b      	ldr	r3, [r7, #4]
 800375a:	609a      	str	r2, [r3, #8]
  return HAL_OK;
 800375c:	2300      	movs	r3, #0
}
 800375e:	4618      	mov	r0, r3
 8003760:	370c      	adds	r7, #12
 8003762:	46bd      	mov	sp, r7
 8003764:	f85d 7b04 	ldr.w	r7, [sp], #4
 8003768:	4770      	bx	lr

0800376a <USB_DisableGlobalInt>:
  *         Disable the controller's Global Int in the AHB Config reg
  * @param  USBx  Selected device
  * @retval HAL status
  */
HAL_StatusTypeDef USB_DisableGlobalInt(USB_OTG_GlobalTypeDef *USBx)
{
 800376a:	b480      	push	{r7}
 800376c:	b083      	sub	sp, #12
 800376e:	af00      	add	r7, sp, #0
 8003770:	6078      	str	r0, [r7, #4]
  USBx->GAHBCFG &= ~USB_OTG_GAHBCFG_GINT;
 8003772:	687b      	ldr	r3, [r7, #4]
 8003774:	689b      	ldr	r3, [r3, #8]
 8003776:	f023 0201 	bic.w	r2, r3, #1
 800377a:	687b      	ldr	r3, [r7, #4]
 800377c:	609a      	str	r2, [r3, #8]
  return HAL_OK;
 800377e:	2300      	movs	r3, #0
}
 8003780:	4618      	mov	r0, r3
 8003782:	370c      	adds	r7, #12
 8003784:	46bd      	mov	sp, r7
 8003786:	f85d 7b04 	ldr.w	r7, [sp], #4
 800378a:	4770      	bx	lr

0800378c <USB_SetCurrentMode>:
  *            @arg USB_DEVICE_MODE Peripheral mode
  *            @arg USB_HOST_MODE Host mode
  * @retval HAL status
  */
HAL_StatusTypeDef USB_SetCurrentMode(USB_OTG_GlobalTypeDef *USBx, USB_OTG_ModeTypeDef mode)
{
 800378c:	b580      	push	{r7, lr}
 800378e:	b082      	sub	sp, #8
 8003790:	af00      	add	r7, sp, #0
 8003792:	6078      	str	r0, [r7, #4]
 8003794:	460b      	mov	r3, r1
 8003796:	70fb      	strb	r3, [r7, #3]
  USBx->GUSBCFG &= ~(USB_OTG_GUSBCFG_FHMOD | USB_OTG_GUSBCFG_FDMOD);
 8003798:	687b      	ldr	r3, [r7, #4]
 800379a:	68db      	ldr	r3, [r3, #12]
 800379c:	f023 42c0 	bic.w	r2, r3, #1610612736	; 0x60000000
 80037a0:	687b      	ldr	r3, [r7, #4]
 80037a2:	60da      	str	r2, [r3, #12]

  if (mode == USB_HOST_MODE)
 80037a4:	78fb      	ldrb	r3, [r7, #3]
 80037a6:	2b01      	cmp	r3, #1
 80037a8:	d106      	bne.n	80037b8 <USB_SetCurrentMode+0x2c>
  {
    USBx->GUSBCFG |= USB_OTG_GUSBCFG_FHMOD;
 80037aa:	687b      	ldr	r3, [r7, #4]
 80037ac:	68db      	ldr	r3, [r3, #12]
 80037ae:	f043 5200 	orr.w	r2, r3, #536870912	; 0x20000000
 80037b2:	687b      	ldr	r3, [r7, #4]
 80037b4:	60da      	str	r2, [r3, #12]
 80037b6:	e00b      	b.n	80037d0 <USB_SetCurrentMode+0x44>
  }
  else if (mode == USB_DEVICE_MODE)
 80037b8:	78fb      	ldrb	r3, [r7, #3]
 80037ba:	2b00      	cmp	r3, #0
 80037bc:	d106      	bne.n	80037cc <USB_SetCurrentMode+0x40>
  {
    USBx->GUSBCFG |= USB_OTG_GUSBCFG_FDMOD;
 80037be:	687b      	ldr	r3, [r7, #4]
 80037c0:	68db      	ldr	r3, [r3, #12]
 80037c2:	f043 4280 	orr.w	r2, r3, #1073741824	; 0x40000000
 80037c6:	687b      	ldr	r3, [r7, #4]
 80037c8:	60da      	str	r2, [r3, #12]
 80037ca:	e001      	b.n	80037d0 <USB_SetCurrentMode+0x44>
  }
  else
  {
    return HAL_ERROR;
 80037cc:	2301      	movs	r3, #1
 80037ce:	e003      	b.n	80037d8 <USB_SetCurrentMode+0x4c>
  }
  HAL_Delay(50U);
 80037d0:	2032      	movs	r0, #50	; 0x32
 80037d2:	f7fd f9f3 	bl	8000bbc <HAL_Delay>

  return HAL_OK;
 80037d6:	2300      	movs	r3, #0
}
 80037d8:	4618      	mov	r0, r3
 80037da:	3708      	adds	r7, #8
 80037dc:	46bd      	mov	sp, r7
 80037de:	bd80      	pop	{r7, pc}

080037e0 <USB_DevInit>:
  * @param  cfg   pointer to a USB_OTG_CfgTypeDef structure that contains
  *         the configuration information for the specified USBx peripheral.
  * @retval HAL status
  */
HAL_StatusTypeDef USB_DevInit(USB_OTG_GlobalTypeDef *USBx, USB_OTG_CfgTypeDef cfg)
{
 80037e0:	b084      	sub	sp, #16
 80037e2:	b580      	push	{r7, lr}
 80037e4:	b086      	sub	sp, #24
 80037e6:	af00      	add	r7, sp, #0
 80037e8:	6078      	str	r0, [r7, #4]
 80037ea:	f107 0024 	add.w	r0, r7, #36	; 0x24
 80037ee:	e880 000e 	stmia.w	r0, {r1, r2, r3}
  HAL_StatusTypeDef ret = HAL_OK;
 80037f2:	2300      	movs	r3, #0
 80037f4:	75fb      	strb	r3, [r7, #23]
  uint32_t USBx_BASE = (uint32_t)USBx;
 80037f6:	687b      	ldr	r3, [r7, #4]
 80037f8:	60fb      	str	r3, [r7, #12]
  uint32_t i;

  for (i = 0U; i < 15U; i++)
 80037fa:	2300      	movs	r3, #0
 80037fc:	613b      	str	r3, [r7, #16]
 80037fe:	e009      	b.n	8003814 <USB_DevInit+0x34>
  {
    USBx->DIEPTXF[i] = 0U;
 8003800:	687a      	ldr	r2, [r7, #4]
 8003802:	693b      	ldr	r3, [r7, #16]
 8003804:	3340      	adds	r3, #64	; 0x40
 8003806:	009b      	lsls	r3, r3, #2
 8003808:	4413      	add	r3, r2
 800380a:	2200      	movs	r2, #0
 800380c:	605a      	str	r2, [r3, #4]
  for (i = 0U; i < 15U; i++)
 800380e:	693b      	ldr	r3, [r7, #16]
 8003810:	3301      	adds	r3, #1
 8003812:	613b      	str	r3, [r7, #16]
 8003814:	693b      	ldr	r3, [r7, #16]
 8003816:	2b0e      	cmp	r3, #14
 8003818:	d9f2      	bls.n	8003800 <USB_DevInit+0x20>
    /* Enable HW VBUS sensing */
    USBx->GCCFG |= USB_OTG_GCCFG_VBDEN;
  }
#else
  /* VBUS Sensing setup */
  if (cfg.vbus_sensing_enable == 0U)
 800381a:	6cfb      	ldr	r3, [r7, #76]	; 0x4c
 800381c:	2b00      	cmp	r3, #0
 800381e:	d11c      	bne.n	800385a <USB_DevInit+0x7a>
  {
    /*
     * Disable HW VBUS sensing. VBUS is internally considered to be always
     * at VBUS-Valid level (5V).
     */
    USBx_DEVICE->DCTL |= USB_OTG_DCTL_SDIS;
 8003820:	68fb      	ldr	r3, [r7, #12]
 8003822:	f503 6300 	add.w	r3, r3, #2048	; 0x800
 8003826:	685b      	ldr	r3, [r3, #4]
 8003828:	68fa      	ldr	r2, [r7, #12]
 800382a:	f502 6200 	add.w	r2, r2, #2048	; 0x800
 800382e:	f043 0302 	orr.w	r3, r3, #2
 8003832:	6053      	str	r3, [r2, #4]
    USBx->GCCFG |= USB_OTG_GCCFG_NOVBUSSENS;
 8003834:	687b      	ldr	r3, [r7, #4]
 8003836:	6b9b      	ldr	r3, [r3, #56]	; 0x38
 8003838:	f443 1200 	orr.w	r2, r3, #2097152	; 0x200000
 800383c:	687b      	ldr	r3, [r7, #4]
 800383e:	639a      	str	r2, [r3, #56]	; 0x38
    USBx->GCCFG &= ~USB_OTG_GCCFG_VBUSBSEN;
 8003840:	687b      	ldr	r3, [r7, #4]
 8003842:	6b9b      	ldr	r3, [r3, #56]	; 0x38
 8003844:	f423 2200 	bic.w	r2, r3, #524288	; 0x80000
 8003848:	687b      	ldr	r3, [r7, #4]
 800384a:	639a      	str	r2, [r3, #56]	; 0x38
    USBx->GCCFG &= ~USB_OTG_GCCFG_VBUSASEN;
 800384c:	687b      	ldr	r3, [r7, #4]
 800384e:	6b9b      	ldr	r3, [r3, #56]	; 0x38
 8003850:	f423 2280 	bic.w	r2, r3, #262144	; 0x40000
 8003854:	687b      	ldr	r3, [r7, #4]
 8003856:	639a      	str	r2, [r3, #56]	; 0x38
 8003858:	e00b      	b.n	8003872 <USB_DevInit+0x92>
  }
  else
  {
    /* Enable HW VBUS sensing */
    USBx->GCCFG &= ~USB_OTG_GCCFG_NOVBUSSENS;
 800385a:	687b      	ldr	r3, [r7, #4]
 800385c:	6b9b      	ldr	r3, [r3, #56]	; 0x38
 800385e:	f423 1200 	bic.w	r2, r3, #2097152	; 0x200000
 8003862:	687b      	ldr	r3, [r7, #4]
 8003864:	639a      	str	r2, [r3, #56]	; 0x38
    USBx->GCCFG |= USB_OTG_GCCFG_VBUSBSEN;
 8003866:	687b      	ldr	r3, [r7, #4]
 8003868:	6b9b      	ldr	r3, [r3, #56]	; 0x38
 800386a:	f443 2200 	orr.w	r2, r3, #524288	; 0x80000
 800386e:	687b      	ldr	r3, [r7, #4]
 8003870:	639a      	str	r2, [r3, #56]	; 0x38
  }
#endif /* defined(STM32F446xx) || defined(STM32F469xx) || defined(STM32F479xx) || defined(STM32F412Zx) || defined(STM32F412Vx) || defined(STM32F412Rx) || defined(STM32F412Cx) || defined(STM32F413xx) || defined(STM32F423xx) */

  /* Restart the Phy Clock */
  USBx_PCGCCTL = 0U;
 8003872:	68fb      	ldr	r3, [r7, #12]
 8003874:	f503 6360 	add.w	r3, r3, #3584	; 0xe00
 8003878:	461a      	mov	r2, r3
 800387a:	2300      	movs	r3, #0
 800387c:	6013      	str	r3, [r2, #0]

  /* Device mode configuration */
  USBx_DEVICE->DCFG |= DCFG_FRAME_INTERVAL_80;
 800387e:	68fb      	ldr	r3, [r7, #12]
 8003880:	f503 6300 	add.w	r3, r3, #2048	; 0x800
 8003884:	4619      	mov	r1, r3
 8003886:	68fb      	ldr	r3, [r7, #12]
 8003888:	f503 6300 	add.w	r3, r3, #2048	; 0x800
 800388c:	461a      	mov	r2, r3
 800388e:	680b      	ldr	r3, [r1, #0]
 8003890:	6013      	str	r3, [r2, #0]

  if (cfg.phy_itface == USB_OTG_ULPI_PHY)
 8003892:	6bbb      	ldr	r3, [r7, #56]	; 0x38
 8003894:	2b01      	cmp	r3, #1
 8003896:	d10c      	bne.n	80038b2 <USB_DevInit+0xd2>
  {
    if (cfg.speed == USBD_HS_SPEED)
 8003898:	6afb      	ldr	r3, [r7, #44]	; 0x2c
 800389a:	2b00      	cmp	r3, #0
 800389c:	d104      	bne.n	80038a8 <USB_DevInit+0xc8>
    {
      /* Set Core speed to High speed mode */
      (void)USB_SetDevSpeed(USBx, USB_OTG_SPEED_HIGH);
 800389e:	2100      	movs	r1, #0
 80038a0:	6878      	ldr	r0, [r7, #4]
 80038a2:	f000 f949 	bl	8003b38 <USB_SetDevSpeed>
 80038a6:	e008      	b.n	80038ba <USB_DevInit+0xda>
    }
    else
    {
      /* Set Core speed to Full speed mode */
      (void)USB_SetDevSpeed(USBx, USB_OTG_SPEED_HIGH_IN_FULL);
 80038a8:	2101      	movs	r1, #1
 80038aa:	6878      	ldr	r0, [r7, #4]
 80038ac:	f000 f944 	bl	8003b38 <USB_SetDevSpeed>
 80038b0:	e003      	b.n	80038ba <USB_DevInit+0xda>
    }
  }
  else
  {
    /* Set Core speed to Full speed mode */
    (void)USB_SetDevSpeed(USBx, USB_OTG_SPEED_FULL);
 80038b2:	2103      	movs	r1, #3
 80038b4:	6878      	ldr	r0, [r7, #4]
 80038b6:	f000 f93f 	bl	8003b38 <USB_SetDevSpeed>
  }

  /* Flush the FIFOs */
  if (USB_FlushTxFifo(USBx, 0x10U) != HAL_OK) /* all Tx FIFOs */
 80038ba:	2110      	movs	r1, #16
 80038bc:	6878      	ldr	r0, [r7, #4]
 80038be:	f000 f8f3 	bl	8003aa8 <USB_FlushTxFifo>
 80038c2:	4603      	mov	r3, r0
 80038c4:	2b00      	cmp	r3, #0
 80038c6:	d001      	beq.n	80038cc <USB_DevInit+0xec>
  {
    ret = HAL_ERROR;
 80038c8:	2301      	movs	r3, #1
 80038ca:	75fb      	strb	r3, [r7, #23]
  }

  if (USB_FlushRxFifo(USBx) != HAL_OK)
 80038cc:	6878      	ldr	r0, [r7, #4]
 80038ce:	f000 f911 	bl	8003af4 <USB_FlushRxFifo>
 80038d2:	4603      	mov	r3, r0
 80038d4:	2b00      	cmp	r3, #0
 80038d6:	d001      	beq.n	80038dc <USB_DevInit+0xfc>
  {
    ret = HAL_ERROR;
 80038d8:	2301      	movs	r3, #1
 80038da:	75fb      	strb	r3, [r7, #23]
  }

  /* Clear all pending Device Interrupts */
  USBx_DEVICE->DIEPMSK = 0U;
 80038dc:	68fb      	ldr	r3, [r7, #12]
 80038de:	f503 6300 	add.w	r3, r3, #2048	; 0x800
 80038e2:	461a      	mov	r2, r3
 80038e4:	2300      	movs	r3, #0
 80038e6:	6113      	str	r3, [r2, #16]
  USBx_DEVICE->DOEPMSK = 0U;
 80038e8:	68fb      	ldr	r3, [r7, #12]
 80038ea:	f503 6300 	add.w	r3, r3, #2048	; 0x800
 80038ee:	461a      	mov	r2, r3
 80038f0:	2300      	movs	r3, #0
 80038f2:	6153      	str	r3, [r2, #20]
  USBx_DEVICE->DAINTMSK = 0U;
 80038f4:	68fb      	ldr	r3, [r7, #12]
 80038f6:	f503 6300 	add.w	r3, r3, #2048	; 0x800
 80038fa:	461a      	mov	r2, r3
 80038fc:	2300      	movs	r3, #0
 80038fe:	61d3      	str	r3, [r2, #28]

  for (i = 0U; i < cfg.dev_endpoints; i++)
 8003900:	2300      	movs	r3, #0
 8003902:	613b      	str	r3, [r7, #16]
 8003904:	e043      	b.n	800398e <USB_DevInit+0x1ae>
  {
    if ((USBx_INEP(i)->DIEPCTL & USB_OTG_DIEPCTL_EPENA) == USB_OTG_DIEPCTL_EPENA)
 8003906:	693b      	ldr	r3, [r7, #16]
 8003908:	015a      	lsls	r2, r3, #5
 800390a:	68fb      	ldr	r3, [r7, #12]
 800390c:	4413      	add	r3, r2
 800390e:	f503 6310 	add.w	r3, r3, #2304	; 0x900
 8003912:	681b      	ldr	r3, [r3, #0]
 8003914:	f003 4300 	and.w	r3, r3, #2147483648	; 0x80000000
 8003918:	f1b3 4f00 	cmp.w	r3, #2147483648	; 0x80000000
 800391c:	d118      	bne.n	8003950 <USB_DevInit+0x170>
    {
      if (i == 0U)
 800391e:	693b      	ldr	r3, [r7, #16]
 8003920:	2b00      	cmp	r3, #0
 8003922:	d10a      	bne.n	800393a <USB_DevInit+0x15a>
      {
        USBx_INEP(i)->DIEPCTL = USB_OTG_DIEPCTL_SNAK;
 8003924:	693b      	ldr	r3, [r7, #16]
 8003926:	015a      	lsls	r2, r3, #5
 8003928:	68fb      	ldr	r3, [r7, #12]
 800392a:	4413      	add	r3, r2
 800392c:	f503 6310 	add.w	r3, r3, #2304	; 0x900
 8003930:	461a      	mov	r2, r3
 8003932:	f04f 6300 	mov.w	r3, #134217728	; 0x8000000
 8003936:	6013      	str	r3, [r2, #0]
 8003938:	e013      	b.n	8003962 <USB_DevInit+0x182>
      }
      else
      {
        USBx_INEP(i)->DIEPCTL = USB_OTG_DIEPCTL_EPDIS | USB_OTG_DIEPCTL_SNAK;
 800393a:	693b      	ldr	r3, [r7, #16]
 800393c:	015a      	lsls	r2, r3, #5
 800393e:	68fb      	ldr	r3, [r7, #12]
 8003940:	4413      	add	r3, r2
 8003942:	f503 6310 	add.w	r3, r3, #2304	; 0x900
 8003946:	461a      	mov	r2, r3
 8003948:	f04f 4390 	mov.w	r3, #1207959552	; 0x48000000
 800394c:	6013      	str	r3, [r2, #0]
 800394e:	e008      	b.n	8003962 <USB_DevInit+0x182>
      }
    }
    else
    {
      USBx_INEP(i)->DIEPCTL = 0U;
 8003950:	693b      	ldr	r3, [r7, #16]
 8003952:	015a      	lsls	r2, r3, #5
 8003954:	68fb      	ldr	r3, [r7, #12]
 8003956:	4413      	add	r3, r2
 8003958:	f503 6310 	add.w	r3, r3, #2304	; 0x900
 800395c:	461a      	mov	r2, r3
 800395e:	2300      	movs	r3, #0
 8003960:	6013      	str	r3, [r2, #0]
    }

    USBx_INEP(i)->DIEPTSIZ = 0U;
 8003962:	693b      	ldr	r3, [r7, #16]
 8003964:	015a      	lsls	r2, r3, #5
 8003966:	68fb      	ldr	r3, [r7, #12]
 8003968:	4413      	add	r3, r2
 800396a:	f503 6310 	add.w	r3, r3, #2304	; 0x900
 800396e:	461a      	mov	r2, r3
 8003970:	2300      	movs	r3, #0
 8003972:	6113      	str	r3, [r2, #16]
    USBx_INEP(i)->DIEPINT  = 0xFB7FU;
 8003974:	693b      	ldr	r3, [r7, #16]
 8003976:	015a      	lsls	r2, r3, #5
 8003978:	68fb      	ldr	r3, [r7, #12]
 800397a:	4413      	add	r3, r2
 800397c:	f503 6310 	add.w	r3, r3, #2304	; 0x900
 8003980:	461a      	mov	r2, r3
 8003982:	f64f 337f 	movw	r3, #64383	; 0xfb7f
 8003986:	6093      	str	r3, [r2, #8]
  for (i = 0U; i < cfg.dev_endpoints; i++)
 8003988:	693b      	ldr	r3, [r7, #16]
 800398a:	3301      	adds	r3, #1
 800398c:	613b      	str	r3, [r7, #16]
 800398e:	6a7b      	ldr	r3, [r7, #36]	; 0x24
 8003990:	693a      	ldr	r2, [r7, #16]
 8003992:	429a      	cmp	r2, r3
 8003994:	d3b7      	bcc.n	8003906 <USB_DevInit+0x126>
  }

  for (i = 0U; i < cfg.dev_endpoints; i++)
 8003996:	2300      	movs	r3, #0
 8003998:	613b      	str	r3, [r7, #16]
 800399a:	e043      	b.n	8003a24 <USB_DevInit+0x244>
  {
    if ((USBx_OUTEP(i)->DOEPCTL & USB_OTG_DOEPCTL_EPENA) == USB_OTG_DOEPCTL_EPENA)
 800399c:	693b      	ldr	r3, [r7, #16]
 800399e:	015a      	lsls	r2, r3, #5
 80039a0:	68fb      	ldr	r3, [r7, #12]
 80039a2:	4413      	add	r3, r2
 80039a4:	f503 6330 	add.w	r3, r3, #2816	; 0xb00
 80039a8:	681b      	ldr	r3, [r3, #0]
 80039aa:	f003 4300 	and.w	r3, r3, #2147483648	; 0x80000000
 80039ae:	f1b3 4f00 	cmp.w	r3, #2147483648	; 0x80000000
 80039b2:	d118      	bne.n	80039e6 <USB_DevInit+0x206>
    {
      if (i == 0U)
 80039b4:	693b      	ldr	r3, [r7, #16]
 80039b6:	2b00      	cmp	r3, #0
 80039b8:	d10a      	bne.n	80039d0 <USB_DevInit+0x1f0>
      {
        USBx_OUTEP(i)->DOEPCTL = USB_OTG_DOEPCTL_SNAK;
 80039ba:	693b      	ldr	r3, [r7, #16]
 80039bc:	015a      	lsls	r2, r3, #5
 80039be:	68fb      	ldr	r3, [r7, #12]
 80039c0:	4413      	add	r3, r2
 80039c2:	f503 6330 	add.w	r3, r3, #2816	; 0xb00
 80039c6:	461a      	mov	r2, r3
 80039c8:	f04f 6300 	mov.w	r3, #134217728	; 0x8000000
 80039cc:	6013      	str	r3, [r2, #0]
 80039ce:	e013      	b.n	80039f8 <USB_DevInit+0x218>
      }
      else
      {
        USBx_OUTEP(i)->DOEPCTL = USB_OTG_DOEPCTL_EPDIS | USB_OTG_DOEPCTL_SNAK;
 80039d0:	693b      	ldr	r3, [r7, #16]
 80039d2:	015a      	lsls	r2, r3, #5
 80039d4:	68fb      	ldr	r3, [r7, #12]
 80039d6:	4413      	add	r3, r2
 80039d8:	f503 6330 	add.w	r3, r3, #2816	; 0xb00
 80039dc:	461a      	mov	r2, r3
 80039de:	f04f 4390 	mov.w	r3, #1207959552	; 0x48000000
 80039e2:	6013      	str	r3, [r2, #0]
 80039e4:	e008      	b.n	80039f8 <USB_DevInit+0x218>
      }
    }
    else
    {
      USBx_OUTEP(i)->DOEPCTL = 0U;
 80039e6:	693b      	ldr	r3, [r7, #16]
 80039e8:	015a      	lsls	r2, r3, #5
 80039ea:	68fb      	ldr	r3, [r7, #12]
 80039ec:	4413      	add	r3, r2
 80039ee:	f503 6330 	add.w	r3, r3, #2816	; 0xb00
 80039f2:	461a      	mov	r2, r3
 80039f4:	2300      	movs	r3, #0
 80039f6:	6013      	str	r3, [r2, #0]
    }

    USBx_OUTEP(i)->DOEPTSIZ = 0U;
 80039f8:	693b      	ldr	r3, [r7, #16]
 80039fa:	015a      	lsls	r2, r3, #5
 80039fc:	68fb      	ldr	r3, [r7, #12]
 80039fe:	4413      	add	r3, r2
 8003a00:	f503 6330 	add.w	r3, r3, #2816	; 0xb00
 8003a04:	461a      	mov	r2, r3
 8003a06:	2300      	movs	r3, #0
 8003a08:	6113      	str	r3, [r2, #16]
    USBx_OUTEP(i)->DOEPINT  = 0xFB7FU;
 8003a0a:	693b      	ldr	r3, [r7, #16]
 8003a0c:	015a      	lsls	r2, r3, #5
 8003a0e:	68fb      	ldr	r3, [r7, #12]
 8003a10:	4413      	add	r3, r2
 8003a12:	f503 6330 	add.w	r3, r3, #2816	; 0xb00
 8003a16:	461a      	mov	r2, r3
 8003a18:	f64f 337f 	movw	r3, #64383	; 0xfb7f
 8003a1c:	6093      	str	r3, [r2, #8]
  for (i = 0U; i < cfg.dev_endpoints; i++)
 8003a1e:	693b      	ldr	r3, [r7, #16]
 8003a20:	3301      	adds	r3, #1
 8003a22:	613b      	str	r3, [r7, #16]
 8003a24:	6a7b      	ldr	r3, [r7, #36]	; 0x24
 8003a26:	693a      	ldr	r2, [r7, #16]
 8003a28:	429a      	cmp	r2, r3
 8003a2a:	d3b7      	bcc.n	800399c <USB_DevInit+0x1bc>
  }

  USBx_DEVICE->DIEPMSK &= ~(USB_OTG_DIEPMSK_TXFURM);
 8003a2c:	68fb      	ldr	r3, [r7, #12]
 8003a2e:	f503 6300 	add.w	r3, r3, #2048	; 0x800
 8003a32:	691b      	ldr	r3, [r3, #16]
 8003a34:	68fa      	ldr	r2, [r7, #12]
 8003a36:	f502 6200 	add.w	r2, r2, #2048	; 0x800
 8003a3a:	f423 7380 	bic.w	r3, r3, #256	; 0x100
 8003a3e:	6113      	str	r3, [r2, #16]

  /* Disable all interrupts. */
  USBx->GINTMSK = 0U;
 8003a40:	687b      	ldr	r3, [r7, #4]
 8003a42:	2200      	movs	r2, #0
 8003a44:	619a      	str	r2, [r3, #24]

  /* Clear any pending interrupts */
  USBx->GINTSTS = 0xBFFFFFFFU;
 8003a46:	687b      	ldr	r3, [r7, #4]
 8003a48:	f06f 4280 	mvn.w	r2, #1073741824	; 0x40000000
 8003a4c:	615a      	str	r2, [r3, #20]

  /* Enable the common interrupts */
  if (cfg.dma_enable == 0U)
 8003a4e:	6b3b      	ldr	r3, [r7, #48]	; 0x30
 8003a50:	2b00      	cmp	r3, #0
 8003a52:	d105      	bne.n	8003a60 <USB_DevInit+0x280>
  {
    USBx->GINTMSK |= USB_OTG_GINTMSK_RXFLVLM;
 8003a54:	687b      	ldr	r3, [r7, #4]
 8003a56:	699b      	ldr	r3, [r3, #24]
 8003a58:	f043 0210 	orr.w	r2, r3, #16
 8003a5c:	687b      	ldr	r3, [r7, #4]
 8003a5e:	619a      	str	r2, [r3, #24]
  }

  /* Enable interrupts matching to the Device mode ONLY */
  USBx->GINTMSK |= USB_OTG_GINTMSK_USBSUSPM | USB_OTG_GINTMSK_USBRST |
 8003a60:	687b      	ldr	r3, [r7, #4]
 8003a62:	699a      	ldr	r2, [r3, #24]
 8003a64:	4b0f      	ldr	r3, [pc, #60]	; (8003aa4 <USB_DevInit+0x2c4>)
 8003a66:	4313      	orrs	r3, r2
 8003a68:	687a      	ldr	r2, [r7, #4]
 8003a6a:	6193      	str	r3, [r2, #24]
                   USB_OTG_GINTMSK_ENUMDNEM | USB_OTG_GINTMSK_IEPINT |
                   USB_OTG_GINTMSK_OEPINT   | USB_OTG_GINTMSK_IISOIXFRM |
                   USB_OTG_GINTMSK_PXFRM_IISOOXFRM | USB_OTG_GINTMSK_WUIM;

  if (cfg.Sof_enable != 0U)
 8003a6c:	6bfb      	ldr	r3, [r7, #60]	; 0x3c
 8003a6e:	2b00      	cmp	r3, #0
 8003a70:	d005      	beq.n	8003a7e <USB_DevInit+0x29e>
  {
    USBx->GINTMSK |= USB_OTG_GINTMSK_SOFM;
 8003a72:	687b      	ldr	r3, [r7, #4]
 8003a74:	699b      	ldr	r3, [r3, #24]
 8003a76:	f043 0208 	orr.w	r2, r3, #8
 8003a7a:	687b      	ldr	r3, [r7, #4]
 8003a7c:	619a      	str	r2, [r3, #24]
  }

  if (cfg.vbus_sensing_enable == 1U)
 8003a7e:	6cfb      	ldr	r3, [r7, #76]	; 0x4c
 8003a80:	2b01      	cmp	r3, #1
 8003a82:	d107      	bne.n	8003a94 <USB_DevInit+0x2b4>
  {
    USBx->GINTMSK |= (USB_OTG_GINTMSK_SRQIM | USB_OTG_GINTMSK_OTGINT);
 8003a84:	687b      	ldr	r3, [r7, #4]
 8003a86:	699b      	ldr	r3, [r3, #24]
 8003a88:	f043 4380 	orr.w	r3, r3, #1073741824	; 0x40000000
 8003a8c:	f043 0304 	orr.w	r3, r3, #4
 8003a90:	687a      	ldr	r2, [r7, #4]
 8003a92:	6193      	str	r3, [r2, #24]
  }

  return ret;
 8003a94:	7dfb      	ldrb	r3, [r7, #23]
}
 8003a96:	4618      	mov	r0, r3
 8003a98:	3718      	adds	r7, #24
 8003a9a:	46bd      	mov	sp, r7
 8003a9c:	e8bd 4080 	ldmia.w	sp!, {r7, lr}
 8003aa0:	b004      	add	sp, #16
 8003aa2:	4770      	bx	lr
 8003aa4:	803c3800 	.word	0x803c3800

08003aa8 <USB_FlushTxFifo>:
  *         This parameter can be a value from 1 to 15
            15 means Flush all Tx FIFOs
  * @retval HAL status
  */
HAL_StatusTypeDef USB_FlushTxFifo(USB_OTG_GlobalTypeDef *USBx, uint32_t num)
{
 8003aa8:	b480      	push	{r7}
 8003aaa:	b085      	sub	sp, #20
 8003aac:	af00      	add	r7, sp, #0
 8003aae:	6078      	str	r0, [r7, #4]
 8003ab0:	6039      	str	r1, [r7, #0]
  uint32_t count = 0U;
 8003ab2:	2300      	movs	r3, #0
 8003ab4:	60fb      	str	r3, [r7, #12]

  USBx->GRSTCTL = (USB_OTG_GRSTCTL_TXFFLSH | (num << 6));
 8003ab6:	683b      	ldr	r3, [r7, #0]
 8003ab8:	019b      	lsls	r3, r3, #6
 8003aba:	f043 0220 	orr.w	r2, r3, #32
 8003abe:	687b      	ldr	r3, [r7, #4]
 8003ac0:	611a      	str	r2, [r3, #16]

  do
  {
    if (++count > 200000U)
 8003ac2:	68fb      	ldr	r3, [r7, #12]
 8003ac4:	3301      	adds	r3, #1
 8003ac6:	60fb      	str	r3, [r7, #12]
 8003ac8:	68fb      	ldr	r3, [r7, #12]
 8003aca:	4a09      	ldr	r2, [pc, #36]	; (8003af0 <USB_FlushTxFifo+0x48>)
 8003acc:	4293      	cmp	r3, r2
 8003ace:	d901      	bls.n	8003ad4 <USB_FlushTxFifo+0x2c>
    {
      return HAL_TIMEOUT;
 8003ad0:	2303      	movs	r3, #3
 8003ad2:	e006      	b.n	8003ae2 <USB_FlushTxFifo+0x3a>
    }
  } while ((USBx->GRSTCTL & USB_OTG_GRSTCTL_TXFFLSH) == USB_OTG_GRSTCTL_TXFFLSH);
 8003ad4:	687b      	ldr	r3, [r7, #4]
 8003ad6:	691b      	ldr	r3, [r3, #16]
 8003ad8:	f003 0320 	and.w	r3, r3, #32
 8003adc:	2b20      	cmp	r3, #32
 8003ade:	d0f0      	beq.n	8003ac2 <USB_FlushTxFifo+0x1a>

  return HAL_OK;
 8003ae0:	2300      	movs	r3, #0
}
 8003ae2:	4618      	mov	r0, r3
 8003ae4:	3714      	adds	r7, #20
 8003ae6:	46bd      	mov	sp, r7
 8003ae8:	f85d 7b04 	ldr.w	r7, [sp], #4
 8003aec:	4770      	bx	lr
 8003aee:	bf00      	nop
 8003af0:	00030d40 	.word	0x00030d40

08003af4 <USB_FlushRxFifo>:
  * @brief  USB_FlushRxFifo : Flush Rx FIFO
  * @param  USBx  Selected device
  * @retval HAL status
  */
HAL_StatusTypeDef USB_FlushRxFifo(USB_OTG_GlobalTypeDef *USBx)
{
 8003af4:	b480      	push	{r7}
 8003af6:	b085      	sub	sp, #20
 8003af8:	af00      	add	r7, sp, #0
 8003afa:	6078      	str	r0, [r7, #4]
  uint32_t count = 0;
 8003afc:	2300      	movs	r3, #0
 8003afe:	60fb      	str	r3, [r7, #12]

  USBx->GRSTCTL = USB_OTG_GRSTCTL_RXFFLSH;
 8003b00:	687b      	ldr	r3, [r7, #4]
 8003b02:	2210      	movs	r2, #16
 8003b04:	611a      	str	r2, [r3, #16]

  do
  {
    if (++count > 200000U)
 8003b06:	68fb      	ldr	r3, [r7, #12]
 8003b08:	3301      	adds	r3, #1
 8003b0a:	60fb      	str	r3, [r7, #12]
 8003b0c:	68fb      	ldr	r3, [r7, #12]
 8003b0e:	4a09      	ldr	r2, [pc, #36]	; (8003b34 <USB_FlushRxFifo+0x40>)
 8003b10:	4293      	cmp	r3, r2
 8003b12:	d901      	bls.n	8003b18 <USB_FlushRxFifo+0x24>
    {
      return HAL_TIMEOUT;
 8003b14:	2303      	movs	r3, #3
 8003b16:	e006      	b.n	8003b26 <USB_FlushRxFifo+0x32>
    }
  } while ((USBx->GRSTCTL & USB_OTG_GRSTCTL_RXFFLSH) == USB_OTG_GRSTCTL_RXFFLSH);
 8003b18:	687b      	ldr	r3, [r7, #4]
 8003b1a:	691b      	ldr	r3, [r3, #16]
 8003b1c:	f003 0310 	and.w	r3, r3, #16
 8003b20:	2b10      	cmp	r3, #16
 8003b22:	d0f0      	beq.n	8003b06 <USB_FlushRxFifo+0x12>

  return HAL_OK;
 8003b24:	2300      	movs	r3, #0
}
 8003b26:	4618      	mov	r0, r3
 8003b28:	3714      	adds	r7, #20
 8003b2a:	46bd      	mov	sp, r7
 8003b2c:	f85d 7b04 	ldr.w	r7, [sp], #4
 8003b30:	4770      	bx	lr
 8003b32:	bf00      	nop
 8003b34:	00030d40 	.word	0x00030d40

08003b38 <USB_SetDevSpeed>:
  *            @arg USB_OTG_SPEED_HIGH_IN_FULL: High speed core in Full Speed mode
  *            @arg USB_OTG_SPEED_FULL: Full speed mode
  * @retval  Hal status
  */
HAL_StatusTypeDef USB_SetDevSpeed(USB_OTG_GlobalTypeDef *USBx, uint8_t speed)
{
 8003b38:	b480      	push	{r7}
 8003b3a:	b085      	sub	sp, #20
 8003b3c:	af00      	add	r7, sp, #0
 8003b3e:	6078      	str	r0, [r7, #4]
 8003b40:	460b      	mov	r3, r1
 8003b42:	70fb      	strb	r3, [r7, #3]
  uint32_t USBx_BASE = (uint32_t)USBx;
 8003b44:	687b      	ldr	r3, [r7, #4]
 8003b46:	60fb      	str	r3, [r7, #12]

  USBx_DEVICE->DCFG |= speed;
 8003b48:	68fb      	ldr	r3, [r7, #12]
 8003b4a:	f503 6300 	add.w	r3, r3, #2048	; 0x800
 8003b4e:	681a      	ldr	r2, [r3, #0]
 8003b50:	78fb      	ldrb	r3, [r7, #3]
 8003b52:	68f9      	ldr	r1, [r7, #12]
 8003b54:	f501 6100 	add.w	r1, r1, #2048	; 0x800
 8003b58:	4313      	orrs	r3, r2
 8003b5a:	600b      	str	r3, [r1, #0]
  return HAL_OK;
 8003b5c:	2300      	movs	r3, #0
}
 8003b5e:	4618      	mov	r0, r3
 8003b60:	3714      	adds	r7, #20
 8003b62:	46bd      	mov	sp, r7
 8003b64:	f85d 7b04 	ldr.w	r7, [sp], #4
 8003b68:	4770      	bx	lr

08003b6a <USB_GetDevSpeed>:
  *          This parameter can be one of these values:
  *            @arg PCD_SPEED_HIGH: High speed mode
  *            @arg PCD_SPEED_FULL: Full speed mode
  */
uint8_t USB_GetDevSpeed(USB_OTG_GlobalTypeDef *USBx)
{
 8003b6a:	b480      	push	{r7}
 8003b6c:	b087      	sub	sp, #28
 8003b6e:	af00      	add	r7, sp, #0
 8003b70:	6078      	str	r0, [r7, #4]
  uint32_t USBx_BASE = (uint32_t)USBx;
 8003b72:	687b      	ldr	r3, [r7, #4]
 8003b74:	613b      	str	r3, [r7, #16]
  uint8_t speed;
  uint32_t DevEnumSpeed = USBx_DEVICE->DSTS & USB_OTG_DSTS_ENUMSPD;
 8003b76:	693b      	ldr	r3, [r7, #16]
 8003b78:	f503 6300 	add.w	r3, r3, #2048	; 0x800
 8003b7c:	689b      	ldr	r3, [r3, #8]
 8003b7e:	f003 0306 	and.w	r3, r3, #6
 8003b82:	60fb      	str	r3, [r7, #12]

  if (DevEnumSpeed == DSTS_ENUMSPD_HS_PHY_30MHZ_OR_60MHZ)
 8003b84:	68fb      	ldr	r3, [r7, #12]
 8003b86:	2b00      	cmp	r3, #0
 8003b88:	d102      	bne.n	8003b90 <USB_GetDevSpeed+0x26>
  {
    speed = USBD_HS_SPEED;
 8003b8a:	2300      	movs	r3, #0
 8003b8c:	75fb      	strb	r3, [r7, #23]
 8003b8e:	e00a      	b.n	8003ba6 <USB_GetDevSpeed+0x3c>
  }
  else if ((DevEnumSpeed == DSTS_ENUMSPD_FS_PHY_30MHZ_OR_60MHZ) ||
 8003b90:	68fb      	ldr	r3, [r7, #12]
 8003b92:	2b02      	cmp	r3, #2
 8003b94:	d002      	beq.n	8003b9c <USB_GetDevSpeed+0x32>
 8003b96:	68fb      	ldr	r3, [r7, #12]
 8003b98:	2b06      	cmp	r3, #6
 8003b9a:	d102      	bne.n	8003ba2 <USB_GetDevSpeed+0x38>
           (DevEnumSpeed == DSTS_ENUMSPD_FS_PHY_48MHZ))
  {
    speed = USBD_FS_SPEED;
 8003b9c:	2302      	movs	r3, #2
 8003b9e:	75fb      	strb	r3, [r7, #23]
 8003ba0:	e001      	b.n	8003ba6 <USB_GetDevSpeed+0x3c>
  }
  else
  {
    speed = 0xFU;
 8003ba2:	230f      	movs	r3, #15
 8003ba4:	75fb      	strb	r3, [r7, #23]
  }

  return speed;
 8003ba6:	7dfb      	ldrb	r3, [r7, #23]
}
 8003ba8:	4618      	mov	r0, r3
 8003baa:	371c      	adds	r7, #28
 8003bac:	46bd      	mov	sp, r7
 8003bae:	f85d 7b04 	ldr.w	r7, [sp], #4
 8003bb2:	4770      	bx	lr

08003bb4 <USB_ActivateEndpoint>:
  * @param  USBx  Selected device
  * @param  ep pointer to endpoint structure
  * @retval HAL status
  */
HAL_StatusTypeDef USB_ActivateEndpoint(USB_OTG_GlobalTypeDef *USBx, USB_OTG_EPTypeDef *ep)
{
 8003bb4:	b480      	push	{r7}
 8003bb6:	b085      	sub	sp, #20
 8003bb8:	af00      	add	r7, sp, #0
 8003bba:	6078      	str	r0, [r7, #4]
 8003bbc:	6039      	str	r1, [r7, #0]
  uint32_t USBx_BASE = (uint32_t)USBx;
 8003bbe:	687b      	ldr	r3, [r7, #4]
 8003bc0:	60fb      	str	r3, [r7, #12]
  uint32_t epnum = (uint32_t)ep->num;
 8003bc2:	683b      	ldr	r3, [r7, #0]
 8003bc4:	781b      	ldrb	r3, [r3, #0]
 8003bc6:	60bb      	str	r3, [r7, #8]

  if (ep->is_in == 1U)
 8003bc8:	683b      	ldr	r3, [r7, #0]
 8003bca:	785b      	ldrb	r3, [r3, #1]
 8003bcc:	2b01      	cmp	r3, #1
 8003bce:	d13a      	bne.n	8003c46 <USB_ActivateEndpoint+0x92>
  {
    USBx_DEVICE->DAINTMSK |= USB_OTG_DAINTMSK_IEPM & (uint32_t)(1UL << (ep->num & EP_ADDR_MSK));
 8003bd0:	68fb      	ldr	r3, [r7, #12]
 8003bd2:	f503 6300 	add.w	r3, r3, #2048	; 0x800
 8003bd6:	69da      	ldr	r2, [r3, #28]
 8003bd8:	683b      	ldr	r3, [r7, #0]
 8003bda:	781b      	ldrb	r3, [r3, #0]
 8003bdc:	f003 030f 	and.w	r3, r3, #15
 8003be0:	2101      	movs	r1, #1
 8003be2:	fa01 f303 	lsl.w	r3, r1, r3
 8003be6:	b29b      	uxth	r3, r3
 8003be8:	68f9      	ldr	r1, [r7, #12]
 8003bea:	f501 6100 	add.w	r1, r1, #2048	; 0x800
 8003bee:	4313      	orrs	r3, r2
 8003bf0:	61cb      	str	r3, [r1, #28]

    if ((USBx_INEP(epnum)->DIEPCTL & USB_OTG_DIEPCTL_USBAEP) == 0U)
 8003bf2:	68bb      	ldr	r3, [r7, #8]
 8003bf4:	015a      	lsls	r2, r3, #5
 8003bf6:	68fb      	ldr	r3, [r7, #12]
 8003bf8:	4413      	add	r3, r2
 8003bfa:	f503 6310 	add.w	r3, r3, #2304	; 0x900
 8003bfe:	681b      	ldr	r3, [r3, #0]
 8003c00:	f403 4300 	and.w	r3, r3, #32768	; 0x8000
 8003c04:	2b00      	cmp	r3, #0
 8003c06:	d155      	bne.n	8003cb4 <USB_ActivateEndpoint+0x100>
    {
      USBx_INEP(epnum)->DIEPCTL |= (ep->maxpacket & USB_OTG_DIEPCTL_MPSIZ) |
 8003c08:	68bb      	ldr	r3, [r7, #8]
 8003c0a:	015a      	lsls	r2, r3, #5
 8003c0c:	68fb      	ldr	r3, [r7, #12]
 8003c0e:	4413      	add	r3, r2
 8003c10:	f503 6310 	add.w	r3, r3, #2304	; 0x900
 8003c14:	681a      	ldr	r2, [r3, #0]
 8003c16:	683b      	ldr	r3, [r7, #0]
 8003c18:	689b      	ldr	r3, [r3, #8]
 8003c1a:	f3c3 010a 	ubfx	r1, r3, #0, #11
                                   ((uint32_t)ep->type << 18) | (epnum << 22) |
 8003c1e:	683b      	ldr	r3, [r7, #0]
 8003c20:	78db      	ldrb	r3, [r3, #3]
 8003c22:	049b      	lsls	r3, r3, #18
      USBx_INEP(epnum)->DIEPCTL |= (ep->maxpacket & USB_OTG_DIEPCTL_MPSIZ) |
 8003c24:	4319      	orrs	r1, r3
                                   ((uint32_t)ep->type << 18) | (epnum << 22) |
 8003c26:	68bb      	ldr	r3, [r7, #8]
 8003c28:	059b      	lsls	r3, r3, #22
 8003c2a:	430b      	orrs	r3, r1
      USBx_INEP(epnum)->DIEPCTL |= (ep->maxpacket & USB_OTG_DIEPCTL_MPSIZ) |
 8003c2c:	4313      	orrs	r3, r2
 8003c2e:	68ba      	ldr	r2, [r7, #8]
 8003c30:	0151      	lsls	r1, r2, #5
 8003c32:	68fa      	ldr	r2, [r7, #12]
 8003c34:	440a      	add	r2, r1
 8003c36:	f502 6210 	add.w	r2, r2, #2304	; 0x900
 8003c3a:	f043 5380 	orr.w	r3, r3, #268435456	; 0x10000000
 8003c3e:	f443 4300 	orr.w	r3, r3, #32768	; 0x8000
 8003c42:	6013      	str	r3, [r2, #0]
 8003c44:	e036      	b.n	8003cb4 <USB_ActivateEndpoint+0x100>
                                   USB_OTG_DIEPCTL_USBAEP;
    }
  }
  else
  {
    USBx_DEVICE->DAINTMSK |= USB_OTG_DAINTMSK_OEPM & ((uint32_t)(1UL << (ep->num & EP_ADDR_MSK)) << 16);
 8003c46:	68fb      	ldr	r3, [r7, #12]
 8003c48:	f503 6300 	add.w	r3, r3, #2048	; 0x800
 8003c4c:	69da      	ldr	r2, [r3, #28]
 8003c4e:	683b      	ldr	r3, [r7, #0]
 8003c50:	781b      	ldrb	r3, [r3, #0]
 8003c52:	f003 030f 	and.w	r3, r3, #15
 8003c56:	2101      	movs	r1, #1
 8003c58:	fa01 f303 	lsl.w	r3, r1, r3
 8003c5c:	041b      	lsls	r3, r3, #16
 8003c5e:	68f9      	ldr	r1, [r7, #12]
 8003c60:	f501 6100 	add.w	r1, r1, #2048	; 0x800
 8003c64:	4313      	orrs	r3, r2
 8003c66:	61cb      	str	r3, [r1, #28]

    if (((USBx_OUTEP(epnum)->DOEPCTL) & USB_OTG_DOEPCTL_USBAEP) == 0U)
 8003c68:	68bb      	ldr	r3, [r7, #8]
 8003c6a:	015a      	lsls	r2, r3, #5
 8003c6c:	68fb      	ldr	r3, [r7, #12]
 8003c6e:	4413      	add	r3, r2
 8003c70:	f503 6330 	add.w	r3, r3, #2816	; 0xb00
 8003c74:	681b      	ldr	r3, [r3, #0]
 8003c76:	f403 4300 	and.w	r3, r3, #32768	; 0x8000
 8003c7a:	2b00      	cmp	r3, #0
 8003c7c:	d11a      	bne.n	8003cb4 <USB_ActivateEndpoint+0x100>
    {
      USBx_OUTEP(epnum)->DOEPCTL |= (ep->maxpacket & USB_OTG_DOEPCTL_MPSIZ) |
 8003c7e:	68bb      	ldr	r3, [r7, #8]
 8003c80:	015a      	lsls	r2, r3, #5
 8003c82:	68fb      	ldr	r3, [r7, #12]
 8003c84:	4413      	add	r3, r2
 8003c86:	f503 6330 	add.w	r3, r3, #2816	; 0xb00
 8003c8a:	681a      	ldr	r2, [r3, #0]
 8003c8c:	683b      	ldr	r3, [r7, #0]
 8003c8e:	689b      	ldr	r3, [r3, #8]
 8003c90:	f3c3 010a 	ubfx	r1, r3, #0, #11
                                    ((uint32_t)ep->type << 18) |
 8003c94:	683b      	ldr	r3, [r7, #0]
 8003c96:	78db      	ldrb	r3, [r3, #3]
 8003c98:	049b      	lsls	r3, r3, #18
      USBx_OUTEP(epnum)->DOEPCTL |= (ep->maxpacket & USB_OTG_DOEPCTL_MPSIZ) |
 8003c9a:	430b      	orrs	r3, r1
 8003c9c:	4313      	orrs	r3, r2
 8003c9e:	68ba      	ldr	r2, [r7, #8]
 8003ca0:	0151      	lsls	r1, r2, #5
 8003ca2:	68fa      	ldr	r2, [r7, #12]
 8003ca4:	440a      	add	r2, r1
 8003ca6:	f502 6230 	add.w	r2, r2, #2816	; 0xb00
 8003caa:	f043 5380 	orr.w	r3, r3, #268435456	; 0x10000000
 8003cae:	f443 4300 	orr.w	r3, r3, #32768	; 0x8000
 8003cb2:	6013      	str	r3, [r2, #0]
                                    USB_OTG_DIEPCTL_SD0PID_SEVNFRM |
                                    USB_OTG_DOEPCTL_USBAEP;
    }
  }
  return HAL_OK;
 8003cb4:	2300      	movs	r3, #0
}
 8003cb6:	4618      	mov	r0, r3
 8003cb8:	3714      	adds	r7, #20
 8003cba:	46bd      	mov	sp, r7
 8003cbc:	f85d 7b04 	ldr.w	r7, [sp], #4
 8003cc0:	4770      	bx	lr
	...

08003cc4 <USB_DeactivateEndpoint>:
  * @param  USBx  Selected device
  * @param  ep pointer to endpoint structure
  * @retval HAL status
  */
HAL_StatusTypeDef USB_DeactivateEndpoint(USB_OTG_GlobalTypeDef *USBx, USB_OTG_EPTypeDef *ep)
{
 8003cc4:	b480      	push	{r7}
 8003cc6:	b085      	sub	sp, #20
 8003cc8:	af00      	add	r7, sp, #0
 8003cca:	6078      	str	r0, [r7, #4]
 8003ccc:	6039      	str	r1, [r7, #0]
  uint32_t USBx_BASE = (uint32_t)USBx;
 8003cce:	687b      	ldr	r3, [r7, #4]
 8003cd0:	60fb      	str	r3, [r7, #12]
  uint32_t epnum = (uint32_t)ep->num;
 8003cd2:	683b      	ldr	r3, [r7, #0]
 8003cd4:	781b      	ldrb	r3, [r3, #0]
 8003cd6:	60bb      	str	r3, [r7, #8]

  /* Read DEPCTLn register */
  if (ep->is_in == 1U)
 8003cd8:	683b      	ldr	r3, [r7, #0]
 8003cda:	785b      	ldrb	r3, [r3, #1]
 8003cdc:	2b01      	cmp	r3, #1
 8003cde:	d161      	bne.n	8003da4 <USB_DeactivateEndpoint+0xe0>
  {
    if ((USBx_INEP(epnum)->DIEPCTL & USB_OTG_DIEPCTL_EPENA) == USB_OTG_DIEPCTL_EPENA)
 8003ce0:	68bb      	ldr	r3, [r7, #8]
 8003ce2:	015a      	lsls	r2, r3, #5
 8003ce4:	68fb      	ldr	r3, [r7, #12]
 8003ce6:	4413      	add	r3, r2
 8003ce8:	f503 6310 	add.w	r3, r3, #2304	; 0x900
 8003cec:	681b      	ldr	r3, [r3, #0]
 8003cee:	f003 4300 	and.w	r3, r3, #2147483648	; 0x80000000
 8003cf2:	f1b3 4f00 	cmp.w	r3, #2147483648	; 0x80000000
 8003cf6:	d11f      	bne.n	8003d38 <USB_DeactivateEndpoint+0x74>
    {
      USBx_INEP(epnum)->DIEPCTL |= USB_OTG_DIEPCTL_SNAK;
 8003cf8:	68bb      	ldr	r3, [r7, #8]
 8003cfa:	015a      	lsls	r2, r3, #5
 8003cfc:	68fb      	ldr	r3, [r7, #12]
 8003cfe:	4413      	add	r3, r2
 8003d00:	f503 6310 	add.w	r3, r3, #2304	; 0x900
 8003d04:	681b      	ldr	r3, [r3, #0]
 8003d06:	68ba      	ldr	r2, [r7, #8]
 8003d08:	0151      	lsls	r1, r2, #5
 8003d0a:	68fa      	ldr	r2, [r7, #12]
 8003d0c:	440a      	add	r2, r1
 8003d0e:	f502 6210 	add.w	r2, r2, #2304	; 0x900
 8003d12:	f043 6300 	orr.w	r3, r3, #134217728	; 0x8000000
 8003d16:	6013      	str	r3, [r2, #0]
      USBx_INEP(epnum)->DIEPCTL |= USB_OTG_DIEPCTL_EPDIS;
 8003d18:	68bb      	ldr	r3, [r7, #8]
 8003d1a:	015a      	lsls	r2, r3, #5
 8003d1c:	68fb      	ldr	r3, [r7, #12]
 8003d1e:	4413      	add	r3, r2
 8003d20:	f503 6310 	add.w	r3, r3, #2304	; 0x900
 8003d24:	681b      	ldr	r3, [r3, #0]
 8003d26:	68ba      	ldr	r2, [r7, #8]
 8003d28:	0151      	lsls	r1, r2, #5
 8003d2a:	68fa      	ldr	r2, [r7, #12]
 8003d2c:	440a      	add	r2, r1
 8003d2e:	f502 6210 	add.w	r2, r2, #2304	; 0x900
 8003d32:	f043 4380 	orr.w	r3, r3, #1073741824	; 0x40000000
 8003d36:	6013      	str	r3, [r2, #0]
    }

    USBx_DEVICE->DEACHMSK &= ~(USB_OTG_DAINTMSK_IEPM & (uint32_t)(1UL << (ep->num & EP_ADDR_MSK)));
 8003d38:	68fb      	ldr	r3, [r7, #12]
 8003d3a:	f503 6300 	add.w	r3, r3, #2048	; 0x800
 8003d3e:	6bda      	ldr	r2, [r3, #60]	; 0x3c
 8003d40:	683b      	ldr	r3, [r7, #0]
 8003d42:	781b      	ldrb	r3, [r3, #0]
 8003d44:	f003 030f 	and.w	r3, r3, #15
 8003d48:	2101      	movs	r1, #1
 8003d4a:	fa01 f303 	lsl.w	r3, r1, r3
 8003d4e:	b29b      	uxth	r3, r3
 8003d50:	43db      	mvns	r3, r3
 8003d52:	68f9      	ldr	r1, [r7, #12]
 8003d54:	f501 6100 	add.w	r1, r1, #2048	; 0x800
 8003d58:	4013      	ands	r3, r2
 8003d5a:	63cb      	str	r3, [r1, #60]	; 0x3c
    USBx_DEVICE->DAINTMSK &= ~(USB_OTG_DAINTMSK_IEPM & (uint32_t)(1UL << (ep->num & EP_ADDR_MSK)));
 8003d5c:	68fb      	ldr	r3, [r7, #12]
 8003d5e:	f503 6300 	add.w	r3, r3, #2048	; 0x800
 8003d62:	69da      	ldr	r2, [r3, #28]
 8003d64:	683b      	ldr	r3, [r7, #0]
 8003d66:	781b      	ldrb	r3, [r3, #0]
 8003d68:	f003 030f 	and.w	r3, r3, #15
 8003d6c:	2101      	movs	r1, #1
 8003d6e:	fa01 f303 	lsl.w	r3, r1, r3
 8003d72:	b29b      	uxth	r3, r3
 8003d74:	43db      	mvns	r3, r3
 8003d76:	68f9      	ldr	r1, [r7, #12]
 8003d78:	f501 6100 	add.w	r1, r1, #2048	; 0x800
 8003d7c:	4013      	ands	r3, r2
 8003d7e:	61cb      	str	r3, [r1, #28]
    USBx_INEP(epnum)->DIEPCTL &= ~(USB_OTG_DIEPCTL_USBAEP |
 8003d80:	68bb      	ldr	r3, [r7, #8]
 8003d82:	015a      	lsls	r2, r3, #5
 8003d84:	68fb      	ldr	r3, [r7, #12]
 8003d86:	4413      	add	r3, r2
 8003d88:	f503 6310 	add.w	r3, r3, #2304	; 0x900
 8003d8c:	681a      	ldr	r2, [r3, #0]
 8003d8e:	68bb      	ldr	r3, [r7, #8]
 8003d90:	0159      	lsls	r1, r3, #5
 8003d92:	68fb      	ldr	r3, [r7, #12]
 8003d94:	440b      	add	r3, r1
 8003d96:	f503 6310 	add.w	r3, r3, #2304	; 0x900
 8003d9a:	4619      	mov	r1, r3
 8003d9c:	4b35      	ldr	r3, [pc, #212]	; (8003e74 <USB_DeactivateEndpoint+0x1b0>)
 8003d9e:	4013      	ands	r3, r2
 8003da0:	600b      	str	r3, [r1, #0]
 8003da2:	e060      	b.n	8003e66 <USB_DeactivateEndpoint+0x1a2>
                                   USB_OTG_DIEPCTL_SD0PID_SEVNFRM |
                                   USB_OTG_DIEPCTL_EPTYP);
  }
  else
  {
    if ((USBx_OUTEP(epnum)->DOEPCTL & USB_OTG_DOEPCTL_EPENA) == USB_OTG_DOEPCTL_EPENA)
 8003da4:	68bb      	ldr	r3, [r7, #8]
 8003da6:	015a      	lsls	r2, r3, #5
 8003da8:	68fb      	ldr	r3, [r7, #12]
 8003daa:	4413      	add	r3, r2
 8003dac:	f503 6330 	add.w	r3, r3, #2816	; 0xb00
 8003db0:	681b      	ldr	r3, [r3, #0]
 8003db2:	f003 4300 	and.w	r3, r3, #2147483648	; 0x80000000
 8003db6:	f1b3 4f00 	cmp.w	r3, #2147483648	; 0x80000000
 8003dba:	d11f      	bne.n	8003dfc <USB_DeactivateEndpoint+0x138>
    {
      USBx_OUTEP(epnum)->DOEPCTL |= USB_OTG_DOEPCTL_SNAK;
 8003dbc:	68bb      	ldr	r3, [r7, #8]
 8003dbe:	015a      	lsls	r2, r3, #5
 8003dc0:	68fb      	ldr	r3, [r7, #12]
 8003dc2:	4413      	add	r3, r2
 8003dc4:	f503 6330 	add.w	r3, r3, #2816	; 0xb00
 8003dc8:	681b      	ldr	r3, [r3, #0]
 8003dca:	68ba      	ldr	r2, [r7, #8]
 8003dcc:	0151      	lsls	r1, r2, #5
 8003dce:	68fa      	ldr	r2, [r7, #12]
 8003dd0:	440a      	add	r2, r1
 8003dd2:	f502 6230 	add.w	r2, r2, #2816	; 0xb00
 8003dd6:	f043 6300 	orr.w	r3, r3, #134217728	; 0x8000000
 8003dda:	6013      	str	r3, [r2, #0]
      USBx_OUTEP(epnum)->DOEPCTL |= USB_OTG_DOEPCTL_EPDIS;
 8003ddc:	68bb      	ldr	r3, [r7, #8]
 8003dde:	015a      	lsls	r2, r3, #5
 8003de0:	68fb      	ldr	r3, [r7, #12]
 8003de2:	4413      	add	r3, r2
 8003de4:	f503 6330 	add.w	r3, r3, #2816	; 0xb00
 8003de8:	681b      	ldr	r3, [r3, #0]
 8003dea:	68ba      	ldr	r2, [r7, #8]
 8003dec:	0151      	lsls	r1, r2, #5
 8003dee:	68fa      	ldr	r2, [r7, #12]
 8003df0:	440a      	add	r2, r1
 8003df2:	f502 6230 	add.w	r2, r2, #2816	; 0xb00
 8003df6:	f043 4380 	orr.w	r3, r3, #1073741824	; 0x40000000
 8003dfa:	6013      	str	r3, [r2, #0]
    }

    USBx_DEVICE->DEACHMSK &= ~(USB_OTG_DAINTMSK_OEPM & ((uint32_t)(1UL << (ep->num & EP_ADDR_MSK)) << 16));
 8003dfc:	68fb      	ldr	r3, [r7, #12]
 8003dfe:	f503 6300 	add.w	r3, r3, #2048	; 0x800
 8003e02:	6bda      	ldr	r2, [r3, #60]	; 0x3c
 8003e04:	683b      	ldr	r3, [r7, #0]
 8003e06:	781b      	ldrb	r3, [r3, #0]
 8003e08:	f003 030f 	and.w	r3, r3, #15
 8003e0c:	2101      	movs	r1, #1
 8003e0e:	fa01 f303 	lsl.w	r3, r1, r3
 8003e12:	041b      	lsls	r3, r3, #16
 8003e14:	43db      	mvns	r3, r3
 8003e16:	68f9      	ldr	r1, [r7, #12]
 8003e18:	f501 6100 	add.w	r1, r1, #2048	; 0x800
 8003e1c:	4013      	ands	r3, r2
 8003e1e:	63cb      	str	r3, [r1, #60]	; 0x3c
    USBx_DEVICE->DAINTMSK &= ~(USB_OTG_DAINTMSK_OEPM & ((uint32_t)(1UL << (ep->num & EP_ADDR_MSK)) << 16));
 8003e20:	68fb      	ldr	r3, [r7, #12]
 8003e22:	f503 6300 	add.w	r3, r3, #2048	; 0x800
 8003e26:	69da      	ldr	r2, [r3, #28]
 8003e28:	683b      	ldr	r3, [r7, #0]
 8003e2a:	781b      	ldrb	r3, [r3, #0]
 8003e2c:	f003 030f 	and.w	r3, r3, #15
 8003e30:	2101      	movs	r1, #1
 8003e32:	fa01 f303 	lsl.w	r3, r1, r3
 8003e36:	041b      	lsls	r3, r3, #16
 8003e38:	43db      	mvns	r3, r3
 8003e3a:	68f9      	ldr	r1, [r7, #12]
 8003e3c:	f501 6100 	add.w	r1, r1, #2048	; 0x800
 8003e40:	4013      	ands	r3, r2
 8003e42:	61cb      	str	r3, [r1, #28]
    USBx_OUTEP(epnum)->DOEPCTL &= ~(USB_OTG_DOEPCTL_USBAEP |
 8003e44:	68bb      	ldr	r3, [r7, #8]
 8003e46:	015a      	lsls	r2, r3, #5
 8003e48:	68fb      	ldr	r3, [r7, #12]
 8003e4a:	4413      	add	r3, r2
 8003e4c:	f503 6330 	add.w	r3, r3, #2816	; 0xb00
 8003e50:	681a      	ldr	r2, [r3, #0]
 8003e52:	68bb      	ldr	r3, [r7, #8]
 8003e54:	0159      	lsls	r1, r3, #5
 8003e56:	68fb      	ldr	r3, [r7, #12]
 8003e58:	440b      	add	r3, r1
 8003e5a:	f503 6330 	add.w	r3, r3, #2816	; 0xb00
 8003e5e:	4619      	mov	r1, r3
 8003e60:	4b05      	ldr	r3, [pc, #20]	; (8003e78 <USB_DeactivateEndpoint+0x1b4>)
 8003e62:	4013      	ands	r3, r2
 8003e64:	600b      	str	r3, [r1, #0]
                                    USB_OTG_DOEPCTL_MPSIZ |
                                    USB_OTG_DOEPCTL_SD0PID_SEVNFRM |
                                    USB_OTG_DOEPCTL_EPTYP);
  }

  return HAL_OK;
 8003e66:	2300      	movs	r3, #0
}
 8003e68:	4618      	mov	r0, r3
 8003e6a:	3714      	adds	r7, #20
 8003e6c:	46bd      	mov	sp, r7
 8003e6e:	f85d 7b04 	ldr.w	r7, [sp], #4
 8003e72:	4770      	bx	lr
 8003e74:	ec337800 	.word	0xec337800
 8003e78:	eff37800 	.word	0xeff37800

08003e7c <USB_EPStartXfer>:
  *           0 : DMA feature not used
  *           1 : DMA feature used
  * @retval HAL status
  */
HAL_StatusTypeDef USB_EPStartXfer(USB_OTG_GlobalTypeDef *USBx, USB_OTG_EPTypeDef *ep, uint8_t dma)
{
 8003e7c:	b580      	push	{r7, lr}
 8003e7e:	b08a      	sub	sp, #40	; 0x28
 8003e80:	af02      	add	r7, sp, #8
 8003e82:	60f8      	str	r0, [r7, #12]
 8003e84:	60b9      	str	r1, [r7, #8]
 8003e86:	4613      	mov	r3, r2
 8003e88:	71fb      	strb	r3, [r7, #7]
  uint32_t USBx_BASE = (uint32_t)USBx;
 8003e8a:	68fb      	ldr	r3, [r7, #12]
 8003e8c:	61fb      	str	r3, [r7, #28]
  uint32_t epnum = (uint32_t)ep->num;
 8003e8e:	68bb      	ldr	r3, [r7, #8]
 8003e90:	781b      	ldrb	r3, [r3, #0]
 8003e92:	61bb      	str	r3, [r7, #24]
  uint16_t pktcnt;

  /* IN endpoint */
  if (ep->is_in == 1U)
 8003e94:	68bb      	ldr	r3, [r7, #8]
 8003e96:	785b      	ldrb	r3, [r3, #1]
 8003e98:	2b01      	cmp	r3, #1
 8003e9a:	f040 815c 	bne.w	8004156 <USB_EPStartXfer+0x2da>
  {
    /* Zero Length Packet? */
    if (ep->xfer_len == 0U)
 8003e9e:	68bb      	ldr	r3, [r7, #8]
 8003ea0:	695b      	ldr	r3, [r3, #20]
 8003ea2:	2b00      	cmp	r3, #0
 8003ea4:	d132      	bne.n	8003f0c <USB_EPStartXfer+0x90>
    {
      USBx_INEP(epnum)->DIEPTSIZ &= ~(USB_OTG_DIEPTSIZ_PKTCNT);
 8003ea6:	69bb      	ldr	r3, [r7, #24]
 8003ea8:	015a      	lsls	r2, r3, #5
 8003eaa:	69fb      	ldr	r3, [r7, #28]
 8003eac:	4413      	add	r3, r2
 8003eae:	f503 6310 	add.w	r3, r3, #2304	; 0x900
 8003eb2:	691b      	ldr	r3, [r3, #16]
 8003eb4:	69ba      	ldr	r2, [r7, #24]
 8003eb6:	0151      	lsls	r1, r2, #5
 8003eb8:	69fa      	ldr	r2, [r7, #28]
 8003eba:	440a      	add	r2, r1
 8003ebc:	f502 6210 	add.w	r2, r2, #2304	; 0x900
 8003ec0:	f023 53ff 	bic.w	r3, r3, #534773760	; 0x1fe00000
 8003ec4:	f423 13c0 	bic.w	r3, r3, #1572864	; 0x180000
 8003ec8:	6113      	str	r3, [r2, #16]
      USBx_INEP(epnum)->DIEPTSIZ |= (USB_OTG_DIEPTSIZ_PKTCNT & (1U << 19));
 8003eca:	69bb      	ldr	r3, [r7, #24]
 8003ecc:	015a      	lsls	r2, r3, #5
 8003ece:	69fb      	ldr	r3, [r7, #28]
 8003ed0:	4413      	add	r3, r2
 8003ed2:	f503 6310 	add.w	r3, r3, #2304	; 0x900
 8003ed6:	691b      	ldr	r3, [r3, #16]
 8003ed8:	69ba      	ldr	r2, [r7, #24]
 8003eda:	0151      	lsls	r1, r2, #5
 8003edc:	69fa      	ldr	r2, [r7, #28]
 8003ede:	440a      	add	r2, r1
 8003ee0:	f502 6210 	add.w	r2, r2, #2304	; 0x900
 8003ee4:	f443 2300 	orr.w	r3, r3, #524288	; 0x80000
 8003ee8:	6113      	str	r3, [r2, #16]
      USBx_INEP(epnum)->DIEPTSIZ &= ~(USB_OTG_DIEPTSIZ_XFRSIZ);
 8003eea:	69bb      	ldr	r3, [r7, #24]
 8003eec:	015a      	lsls	r2, r3, #5
 8003eee:	69fb      	ldr	r3, [r7, #28]
 8003ef0:	4413      	add	r3, r2
 8003ef2:	f503 6310 	add.w	r3, r3, #2304	; 0x900
 8003ef6:	691b      	ldr	r3, [r3, #16]
 8003ef8:	69ba      	ldr	r2, [r7, #24]
 8003efa:	0151      	lsls	r1, r2, #5
 8003efc:	69fa      	ldr	r2, [r7, #28]
 8003efe:	440a      	add	r2, r1
 8003f00:	f502 6210 	add.w	r2, r2, #2304	; 0x900
 8003f04:	0cdb      	lsrs	r3, r3, #19
 8003f06:	04db      	lsls	r3, r3, #19
 8003f08:	6113      	str	r3, [r2, #16]
 8003f0a:	e074      	b.n	8003ff6 <USB_EPStartXfer+0x17a>
      /* Program the transfer size and packet count
      * as follows: xfersize = N * maxpacket +
      * short_packet pktcnt = N + (short_packet
      * exist ? 1 : 0)
      */
      USBx_INEP(epnum)->DIEPTSIZ &= ~(USB_OTG_DIEPTSIZ_XFRSIZ);
 8003f0c:	69bb      	ldr	r3, [r7, #24]
 8003f0e:	015a      	lsls	r2, r3, #5
 8003f10:	69fb      	ldr	r3, [r7, #28]
 8003f12:	4413      	add	r3, r2
 8003f14:	f503 6310 	add.w	r3, r3, #2304	; 0x900
 8003f18:	691b      	ldr	r3, [r3, #16]
 8003f1a:	69ba      	ldr	r2, [r7, #24]
 8003f1c:	0151      	lsls	r1, r2, #5
 8003f1e:	69fa      	ldr	r2, [r7, #28]
 8003f20:	440a      	add	r2, r1
 8003f22:	f502 6210 	add.w	r2, r2, #2304	; 0x900
 8003f26:	0cdb      	lsrs	r3, r3, #19
 8003f28:	04db      	lsls	r3, r3, #19
 8003f2a:	6113      	str	r3, [r2, #16]
      USBx_INEP(epnum)->DIEPTSIZ &= ~(USB_OTG_DIEPTSIZ_PKTCNT);
 8003f2c:	69bb      	ldr	r3, [r7, #24]
 8003f2e:	015a      	lsls	r2, r3, #5
 8003f30:	69fb      	ldr	r3, [r7, #28]
 8003f32:	4413      	add	r3, r2
 8003f34:	f503 6310 	add.w	r3, r3, #2304	; 0x900
 8003f38:	691b      	ldr	r3, [r3, #16]
 8003f3a:	69ba      	ldr	r2, [r7, #24]
 8003f3c:	0151      	lsls	r1, r2, #5
 8003f3e:	69fa      	ldr	r2, [r7, #28]
 8003f40:	440a      	add	r2, r1
 8003f42:	f502 6210 	add.w	r2, r2, #2304	; 0x900
 8003f46:	f023 53ff 	bic.w	r3, r3, #534773760	; 0x1fe00000
 8003f4a:	f423 13c0 	bic.w	r3, r3, #1572864	; 0x180000
 8003f4e:	6113      	str	r3, [r2, #16]
      USBx_INEP(epnum)->DIEPTSIZ |= (USB_OTG_DIEPTSIZ_PKTCNT & (((ep->xfer_len + ep->maxpacket - 1U) / ep->maxpacket) << 19));
 8003f50:	69bb      	ldr	r3, [r7, #24]
 8003f52:	015a      	lsls	r2, r3, #5
 8003f54:	69fb      	ldr	r3, [r7, #28]
 8003f56:	4413      	add	r3, r2
 8003f58:	f503 6310 	add.w	r3, r3, #2304	; 0x900
 8003f5c:	691a      	ldr	r2, [r3, #16]
 8003f5e:	68bb      	ldr	r3, [r7, #8]
 8003f60:	6959      	ldr	r1, [r3, #20]
 8003f62:	68bb      	ldr	r3, [r7, #8]
 8003f64:	689b      	ldr	r3, [r3, #8]
 8003f66:	440b      	add	r3, r1
 8003f68:	1e59      	subs	r1, r3, #1
 8003f6a:	68bb      	ldr	r3, [r7, #8]
 8003f6c:	689b      	ldr	r3, [r3, #8]
 8003f6e:	fbb1 f3f3 	udiv	r3, r1, r3
 8003f72:	04d9      	lsls	r1, r3, #19
 8003f74:	4b9d      	ldr	r3, [pc, #628]	; (80041ec <USB_EPStartXfer+0x370>)
 8003f76:	400b      	ands	r3, r1
 8003f78:	69b9      	ldr	r1, [r7, #24]
 8003f7a:	0148      	lsls	r0, r1, #5
 8003f7c:	69f9      	ldr	r1, [r7, #28]
 8003f7e:	4401      	add	r1, r0
 8003f80:	f501 6110 	add.w	r1, r1, #2304	; 0x900
 8003f84:	4313      	orrs	r3, r2
 8003f86:	610b      	str	r3, [r1, #16]
      USBx_INEP(epnum)->DIEPTSIZ |= (USB_OTG_DIEPTSIZ_XFRSIZ & ep->xfer_len);
 8003f88:	69bb      	ldr	r3, [r7, #24]
 8003f8a:	015a      	lsls	r2, r3, #5
 8003f8c:	69fb      	ldr	r3, [r7, #28]
 8003f8e:	4413      	add	r3, r2
 8003f90:	f503 6310 	add.w	r3, r3, #2304	; 0x900
 8003f94:	691a      	ldr	r2, [r3, #16]
 8003f96:	68bb      	ldr	r3, [r7, #8]
 8003f98:	695b      	ldr	r3, [r3, #20]
 8003f9a:	f3c3 0312 	ubfx	r3, r3, #0, #19
 8003f9e:	69b9      	ldr	r1, [r7, #24]
 8003fa0:	0148      	lsls	r0, r1, #5
 8003fa2:	69f9      	ldr	r1, [r7, #28]
 8003fa4:	4401      	add	r1, r0
 8003fa6:	f501 6110 	add.w	r1, r1, #2304	; 0x900
 8003faa:	4313      	orrs	r3, r2
 8003fac:	610b      	str	r3, [r1, #16]

      if (ep->type == EP_TYPE_ISOC)
 8003fae:	68bb      	ldr	r3, [r7, #8]
 8003fb0:	78db      	ldrb	r3, [r3, #3]
 8003fb2:	2b01      	cmp	r3, #1
 8003fb4:	d11f      	bne.n	8003ff6 <USB_EPStartXfer+0x17a>
      {
        USBx_INEP(epnum)->DIEPTSIZ &= ~(USB_OTG_DIEPTSIZ_MULCNT);
 8003fb6:	69bb      	ldr	r3, [r7, #24]
 8003fb8:	015a      	lsls	r2, r3, #5
 8003fba:	69fb      	ldr	r3, [r7, #28]
 8003fbc:	4413      	add	r3, r2
 8003fbe:	f503 6310 	add.w	r3, r3, #2304	; 0x900
 8003fc2:	691b      	ldr	r3, [r3, #16]
 8003fc4:	69ba      	ldr	r2, [r7, #24]
 8003fc6:	0151      	lsls	r1, r2, #5
 8003fc8:	69fa      	ldr	r2, [r7, #28]
 8003fca:	440a      	add	r2, r1
 8003fcc:	f502 6210 	add.w	r2, r2, #2304	; 0x900
 8003fd0:	f023 43c0 	bic.w	r3, r3, #1610612736	; 0x60000000
 8003fd4:	6113      	str	r3, [r2, #16]
        USBx_INEP(epnum)->DIEPTSIZ |= (USB_OTG_DIEPTSIZ_MULCNT & (1U << 29));
 8003fd6:	69bb      	ldr	r3, [r7, #24]
 8003fd8:	015a      	lsls	r2, r3, #5
 8003fda:	69fb      	ldr	r3, [r7, #28]
 8003fdc:	4413      	add	r3, r2
 8003fde:	f503 6310 	add.w	r3, r3, #2304	; 0x900
 8003fe2:	691b      	ldr	r3, [r3, #16]
 8003fe4:	69ba      	ldr	r2, [r7, #24]
 8003fe6:	0151      	lsls	r1, r2, #5
 8003fe8:	69fa      	ldr	r2, [r7, #28]
 8003fea:	440a      	add	r2, r1
 8003fec:	f502 6210 	add.w	r2, r2, #2304	; 0x900
 8003ff0:	f043 5300 	orr.w	r3, r3, #536870912	; 0x20000000
 8003ff4:	6113      	str	r3, [r2, #16]
      }
    }

    if (dma == 1U)
 8003ff6:	79fb      	ldrb	r3, [r7, #7]
 8003ff8:	2b01      	cmp	r3, #1
 8003ffa:	d14b      	bne.n	8004094 <USB_EPStartXfer+0x218>
    {
      if ((uint32_t)ep->dma_addr != 0U)
 8003ffc:	68bb      	ldr	r3, [r7, #8]
 8003ffe:	691b      	ldr	r3, [r3, #16]
 8004000:	2b00      	cmp	r3, #0
 8004002:	d009      	beq.n	8004018 <USB_EPStartXfer+0x19c>
      {
        USBx_INEP(epnum)->DIEPDMA = (uint32_t)(ep->dma_addr);
 8004004:	69bb      	ldr	r3, [r7, #24]
 8004006:	015a      	lsls	r2, r3, #5
 8004008:	69fb      	ldr	r3, [r7, #28]
 800400a:	4413      	add	r3, r2
 800400c:	f503 6310 	add.w	r3, r3, #2304	; 0x900
 8004010:	461a      	mov	r2, r3
 8004012:	68bb      	ldr	r3, [r7, #8]
 8004014:	691b      	ldr	r3, [r3, #16]
 8004016:	6153      	str	r3, [r2, #20]
      }

      if (ep->type == EP_TYPE_ISOC)
 8004018:	68bb      	ldr	r3, [r7, #8]
 800401a:	78db      	ldrb	r3, [r3, #3]
 800401c:	2b01      	cmp	r3, #1
 800401e:	d128      	bne.n	8004072 <USB_EPStartXfer+0x1f6>
      {
        if ((USBx_DEVICE->DSTS & (1U << 8)) == 0U)
 8004020:	69fb      	ldr	r3, [r7, #28]
 8004022:	f503 6300 	add.w	r3, r3, #2048	; 0x800
 8004026:	689b      	ldr	r3, [r3, #8]
 8004028:	f403 7380 	and.w	r3, r3, #256	; 0x100
 800402c:	2b00      	cmp	r3, #0
 800402e:	d110      	bne.n	8004052 <USB_EPStartXfer+0x1d6>
        {
          USBx_INEP(epnum)->DIEPCTL |= USB_OTG_DIEPCTL_SODDFRM;
 8004030:	69bb      	ldr	r3, [r7, #24]
 8004032:	015a      	lsls	r2, r3, #5
 8004034:	69fb      	ldr	r3, [r7, #28]
 8004036:	4413      	add	r3, r2
 8004038:	f503 6310 	add.w	r3, r3, #2304	; 0x900
 800403c:	681b      	ldr	r3, [r3, #0]
 800403e:	69ba      	ldr	r2, [r7, #24]
 8004040:	0151      	lsls	r1, r2, #5
 8004042:	69fa      	ldr	r2, [r7, #28]
 8004044:	440a      	add	r2, r1
 8004046:	f502 6210 	add.w	r2, r2, #2304	; 0x900
 800404a:	f043 5300 	orr.w	r3, r3, #536870912	; 0x20000000
 800404e:	6013      	str	r3, [r2, #0]
 8004050:	e00f      	b.n	8004072 <USB_EPStartXfer+0x1f6>
        }
        else
        {
          USBx_INEP(epnum)->DIEPCTL |= USB_OTG_DIEPCTL_SD0PID_SEVNFRM;
 8004052:	69bb      	ldr	r3, [r7, #24]
 8004054:	015a      	lsls	r2, r3, #5
 8004056:	69fb      	ldr	r3, [r7, #28]
 8004058:	4413      	add	r3, r2
 800405a:	f503 6310 	add.w	r3, r3, #2304	; 0x900
 800405e:	681b      	ldr	r3, [r3, #0]
 8004060:	69ba      	ldr	r2, [r7, #24]
 8004062:	0151      	lsls	r1, r2, #5
 8004064:	69fa      	ldr	r2, [r7, #28]
 8004066:	440a      	add	r2, r1
 8004068:	f502 6210 	add.w	r2, r2, #2304	; 0x900
 800406c:	f043 5380 	orr.w	r3, r3, #268435456	; 0x10000000
 8004070:	6013      	str	r3, [r2, #0]
        }
      }

      /* EP enable, IN data in FIFO */
      USBx_INEP(epnum)->DIEPCTL |= (USB_OTG_DIEPCTL_CNAK | USB_OTG_DIEPCTL_EPENA);
 8004072:	69bb      	ldr	r3, [r7, #24]
 8004074:	015a      	lsls	r2, r3, #5
 8004076:	69fb      	ldr	r3, [r7, #28]
 8004078:	4413      	add	r3, r2
 800407a:	f503 6310 	add.w	r3, r3, #2304	; 0x900
 800407e:	681b      	ldr	r3, [r3, #0]
 8004080:	69ba      	ldr	r2, [r7, #24]
 8004082:	0151      	lsls	r1, r2, #5
 8004084:	69fa      	ldr	r2, [r7, #28]
 8004086:	440a      	add	r2, r1
 8004088:	f502 6210 	add.w	r2, r2, #2304	; 0x900
 800408c:	f043 4304 	orr.w	r3, r3, #2214592512	; 0x84000000
 8004090:	6013      	str	r3, [r2, #0]
 8004092:	e12f      	b.n	80042f4 <USB_EPStartXfer+0x478>
    }
    else
    {
      /* EP enable, IN data in FIFO */
      USBx_INEP(epnum)->DIEPCTL |= (USB_OTG_DIEPCTL_CNAK | USB_OTG_DIEPCTL_EPENA);
 8004094:	69bb      	ldr	r3, [r7, #24]
 8004096:	015a      	lsls	r2, r3, #5
 8004098:	69fb      	ldr	r3, [r7, #28]
 800409a:	4413      	add	r3, r2
 800409c:	f503 6310 	add.w	r3, r3, #2304	; 0x900
 80040a0:	681b      	ldr	r3, [r3, #0]
 80040a2:	69ba      	ldr	r2, [r7, #24]
 80040a4:	0151      	lsls	r1, r2, #5
 80040a6:	69fa      	ldr	r2, [r7, #28]
 80040a8:	440a      	add	r2, r1
 80040aa:	f502 6210 	add.w	r2, r2, #2304	; 0x900
 80040ae:	f043 4304 	orr.w	r3, r3, #2214592512	; 0x84000000
 80040b2:	6013      	str	r3, [r2, #0]

      if (ep->type != EP_TYPE_ISOC)
 80040b4:	68bb      	ldr	r3, [r7, #8]
 80040b6:	78db      	ldrb	r3, [r3, #3]
 80040b8:	2b01      	cmp	r3, #1
 80040ba:	d015      	beq.n	80040e8 <USB_EPStartXfer+0x26c>
      {
        /* Enable the Tx FIFO Empty Interrupt for this EP */
        if (ep->xfer_len > 0U)
 80040bc:	68bb      	ldr	r3, [r7, #8]
 80040be:	695b      	ldr	r3, [r3, #20]
 80040c0:	2b00      	cmp	r3, #0
 80040c2:	f000 8117 	beq.w	80042f4 <USB_EPStartXfer+0x478>
        {
          USBx_DEVICE->DIEPEMPMSK |= 1UL << (ep->num & EP_ADDR_MSK);
 80040c6:	69fb      	ldr	r3, [r7, #28]
 80040c8:	f503 6300 	add.w	r3, r3, #2048	; 0x800
 80040cc:	6b5a      	ldr	r2, [r3, #52]	; 0x34
 80040ce:	68bb      	ldr	r3, [r7, #8]
 80040d0:	781b      	ldrb	r3, [r3, #0]
 80040d2:	f003 030f 	and.w	r3, r3, #15
 80040d6:	2101      	movs	r1, #1
 80040d8:	fa01 f303 	lsl.w	r3, r1, r3
 80040dc:	69f9      	ldr	r1, [r7, #28]
 80040de:	f501 6100 	add.w	r1, r1, #2048	; 0x800
 80040e2:	4313      	orrs	r3, r2
 80040e4:	634b      	str	r3, [r1, #52]	; 0x34
 80040e6:	e105      	b.n	80042f4 <USB_EPStartXfer+0x478>
        }
      }
      else
      {
        if ((USBx_DEVICE->DSTS & (1U << 8)) == 0U)
 80040e8:	69fb      	ldr	r3, [r7, #28]
 80040ea:	f503 6300 	add.w	r3, r3, #2048	; 0x800
 80040ee:	689b      	ldr	r3, [r3, #8]
 80040f0:	f403 7380 	and.w	r3, r3, #256	; 0x100
 80040f4:	2b00      	cmp	r3, #0
 80040f6:	d110      	bne.n	800411a <USB_EPStartXfer+0x29e>
        {
          USBx_INEP(epnum)->DIEPCTL |= USB_OTG_DIEPCTL_SODDFRM;
 80040f8:	69bb      	ldr	r3, [r7, #24]
 80040fa:	015a      	lsls	r2, r3, #5
 80040fc:	69fb      	ldr	r3, [r7, #28]
 80040fe:	4413      	add	r3, r2
 8004100:	f503 6310 	add.w	r3, r3, #2304	; 0x900
 8004104:	681b      	ldr	r3, [r3, #0]
 8004106:	69ba      	ldr	r2, [r7, #24]
 8004108:	0151      	lsls	r1, r2, #5
 800410a:	69fa      	ldr	r2, [r7, #28]
 800410c:	440a      	add	r2, r1
 800410e:	f502 6210 	add.w	r2, r2, #2304	; 0x900
 8004112:	f043 5300 	orr.w	r3, r3, #536870912	; 0x20000000
 8004116:	6013      	str	r3, [r2, #0]
 8004118:	e00f      	b.n	800413a <USB_EPStartXfer+0x2be>
        }
        else
        {
          USBx_INEP(epnum)->DIEPCTL |= USB_OTG_DIEPCTL_SD0PID_SEVNFRM;
 800411a:	69bb      	ldr	r3, [r7, #24]
 800411c:	015a      	lsls	r2, r3, #5
 800411e:	69fb      	ldr	r3, [r7, #28]
 8004120:	4413      	add	r3, r2
 8004122:	f503 6310 	add.w	r3, r3, #2304	; 0x900
 8004126:	681b      	ldr	r3, [r3, #0]
 8004128:	69ba      	ldr	r2, [r7, #24]
 800412a:	0151      	lsls	r1, r2, #5
 800412c:	69fa      	ldr	r2, [r7, #28]
 800412e:	440a      	add	r2, r1
 8004130:	f502 6210 	add.w	r2, r2, #2304	; 0x900
 8004134:	f043 5380 	orr.w	r3, r3, #268435456	; 0x10000000
 8004138:	6013      	str	r3, [r2, #0]
        }

        (void)USB_WritePacket(USBx, ep->xfer_buff, ep->num, (uint16_t)ep->xfer_len, dma);
 800413a:	68bb      	ldr	r3, [r7, #8]
 800413c:	68d9      	ldr	r1, [r3, #12]
 800413e:	68bb      	ldr	r3, [r7, #8]
 8004140:	781a      	ldrb	r2, [r3, #0]
 8004142:	68bb      	ldr	r3, [r7, #8]
 8004144:	695b      	ldr	r3, [r3, #20]
 8004146:	b298      	uxth	r0, r3
 8004148:	79fb      	ldrb	r3, [r7, #7]
 800414a:	9300      	str	r3, [sp, #0]
 800414c:	4603      	mov	r3, r0
 800414e:	68f8      	ldr	r0, [r7, #12]
 8004150:	f000 fa2b 	bl	80045aa <USB_WritePacket>
 8004154:	e0ce      	b.n	80042f4 <USB_EPStartXfer+0x478>
  {
    /* Program the transfer size and packet count as follows:
    * pktcnt = N
    * xfersize = N * maxpacket
    */
    USBx_OUTEP(epnum)->DOEPTSIZ &= ~(USB_OTG_DOEPTSIZ_XFRSIZ);
 8004156:	69bb      	ldr	r3, [r7, #24]
 8004158:	015a      	lsls	r2, r3, #5
 800415a:	69fb      	ldr	r3, [r7, #28]
 800415c:	4413      	add	r3, r2
 800415e:	f503 6330 	add.w	r3, r3, #2816	; 0xb00
 8004162:	691b      	ldr	r3, [r3, #16]
 8004164:	69ba      	ldr	r2, [r7, #24]
 8004166:	0151      	lsls	r1, r2, #5
 8004168:	69fa      	ldr	r2, [r7, #28]
 800416a:	440a      	add	r2, r1
 800416c:	f502 6230 	add.w	r2, r2, #2816	; 0xb00
 8004170:	0cdb      	lsrs	r3, r3, #19
 8004172:	04db      	lsls	r3, r3, #19
 8004174:	6113      	str	r3, [r2, #16]
    USBx_OUTEP(epnum)->DOEPTSIZ &= ~(USB_OTG_DOEPTSIZ_PKTCNT);
 8004176:	69bb      	ldr	r3, [r7, #24]
 8004178:	015a      	lsls	r2, r3, #5
 800417a:	69fb      	ldr	r3, [r7, #28]
 800417c:	4413      	add	r3, r2
 800417e:	f503 6330 	add.w	r3, r3, #2816	; 0xb00
 8004182:	691b      	ldr	r3, [r3, #16]
 8004184:	69ba      	ldr	r2, [r7, #24]
 8004186:	0151      	lsls	r1, r2, #5
 8004188:	69fa      	ldr	r2, [r7, #28]
 800418a:	440a      	add	r2, r1
 800418c:	f502 6230 	add.w	r2, r2, #2816	; 0xb00
 8004190:	f023 53ff 	bic.w	r3, r3, #534773760	; 0x1fe00000
 8004194:	f423 13c0 	bic.w	r3, r3, #1572864	; 0x180000
 8004198:	6113      	str	r3, [r2, #16]

    if (ep->xfer_len == 0U)
 800419a:	68bb      	ldr	r3, [r7, #8]
 800419c:	695b      	ldr	r3, [r3, #20]
 800419e:	2b00      	cmp	r3, #0
 80041a0:	d126      	bne.n	80041f0 <USB_EPStartXfer+0x374>
    {
      USBx_OUTEP(epnum)->DOEPTSIZ |= (USB_OTG_DOEPTSIZ_XFRSIZ & ep->maxpacket);
 80041a2:	69bb      	ldr	r3, [r7, #24]
 80041a4:	015a      	lsls	r2, r3, #5
 80041a6:	69fb      	ldr	r3, [r7, #28]
 80041a8:	4413      	add	r3, r2
 80041aa:	f503 6330 	add.w	r3, r3, #2816	; 0xb00
 80041ae:	691a      	ldr	r2, [r3, #16]
 80041b0:	68bb      	ldr	r3, [r7, #8]
 80041b2:	689b      	ldr	r3, [r3, #8]
 80041b4:	f3c3 0312 	ubfx	r3, r3, #0, #19
 80041b8:	69b9      	ldr	r1, [r7, #24]
 80041ba:	0148      	lsls	r0, r1, #5
 80041bc:	69f9      	ldr	r1, [r7, #28]
 80041be:	4401      	add	r1, r0
 80041c0:	f501 6130 	add.w	r1, r1, #2816	; 0xb00
 80041c4:	4313      	orrs	r3, r2
 80041c6:	610b      	str	r3, [r1, #16]
      USBx_OUTEP(epnum)->DOEPTSIZ |= (USB_OTG_DOEPTSIZ_PKTCNT & (1U << 19));
 80041c8:	69bb      	ldr	r3, [r7, #24]
 80041ca:	015a      	lsls	r2, r3, #5
 80041cc:	69fb      	ldr	r3, [r7, #28]
 80041ce:	4413      	add	r3, r2
 80041d0:	f503 6330 	add.w	r3, r3, #2816	; 0xb00
 80041d4:	691b      	ldr	r3, [r3, #16]
 80041d6:	69ba      	ldr	r2, [r7, #24]
 80041d8:	0151      	lsls	r1, r2, #5
 80041da:	69fa      	ldr	r2, [r7, #28]
 80041dc:	440a      	add	r2, r1
 80041de:	f502 6230 	add.w	r2, r2, #2816	; 0xb00
 80041e2:	f443 2300 	orr.w	r3, r3, #524288	; 0x80000
 80041e6:	6113      	str	r3, [r2, #16]
 80041e8:	e036      	b.n	8004258 <USB_EPStartXfer+0x3dc>
 80041ea:	bf00      	nop
 80041ec:	1ff80000 	.word	0x1ff80000
    }
    else
    {
      pktcnt = (uint16_t)((ep->xfer_len + ep->maxpacket - 1U) / ep->maxpacket);
 80041f0:	68bb      	ldr	r3, [r7, #8]
 80041f2:	695a      	ldr	r2, [r3, #20]
 80041f4:	68bb      	ldr	r3, [r7, #8]
 80041f6:	689b      	ldr	r3, [r3, #8]
 80041f8:	4413      	add	r3, r2
 80041fa:	1e5a      	subs	r2, r3, #1
 80041fc:	68bb      	ldr	r3, [r7, #8]
 80041fe:	689b      	ldr	r3, [r3, #8]
 8004200:	fbb2 f3f3 	udiv	r3, r2, r3
 8004204:	82fb      	strh	r3, [r7, #22]
      USBx_OUTEP(epnum)->DOEPTSIZ |= USB_OTG_DOEPTSIZ_PKTCNT & ((uint32_t)pktcnt << 19);
 8004206:	69bb      	ldr	r3, [r7, #24]
 8004208:	015a      	lsls	r2, r3, #5
 800420a:	69fb      	ldr	r3, [r7, #28]
 800420c:	4413      	add	r3, r2
 800420e:	f503 6330 	add.w	r3, r3, #2816	; 0xb00
 8004212:	691a      	ldr	r2, [r3, #16]
 8004214:	8afb      	ldrh	r3, [r7, #22]
 8004216:	04d9      	lsls	r1, r3, #19
 8004218:	4b39      	ldr	r3, [pc, #228]	; (8004300 <USB_EPStartXfer+0x484>)
 800421a:	400b      	ands	r3, r1
 800421c:	69b9      	ldr	r1, [r7, #24]
 800421e:	0148      	lsls	r0, r1, #5
 8004220:	69f9      	ldr	r1, [r7, #28]
 8004222:	4401      	add	r1, r0
 8004224:	f501 6130 	add.w	r1, r1, #2816	; 0xb00
 8004228:	4313      	orrs	r3, r2
 800422a:	610b      	str	r3, [r1, #16]
      USBx_OUTEP(epnum)->DOEPTSIZ |= USB_OTG_DOEPTSIZ_XFRSIZ & (ep->maxpacket * pktcnt);
 800422c:	69bb      	ldr	r3, [r7, #24]
 800422e:	015a      	lsls	r2, r3, #5
 8004230:	69fb      	ldr	r3, [r7, #28]
 8004232:	4413      	add	r3, r2
 8004234:	f503 6330 	add.w	r3, r3, #2816	; 0xb00
 8004238:	691a      	ldr	r2, [r3, #16]
 800423a:	68bb      	ldr	r3, [r7, #8]
 800423c:	689b      	ldr	r3, [r3, #8]
 800423e:	8af9      	ldrh	r1, [r7, #22]
 8004240:	fb01 f303 	mul.w	r3, r1, r3
 8004244:	f3c3 0312 	ubfx	r3, r3, #0, #19
 8004248:	69b9      	ldr	r1, [r7, #24]
 800424a:	0148      	lsls	r0, r1, #5
 800424c:	69f9      	ldr	r1, [r7, #28]
 800424e:	4401      	add	r1, r0
 8004250:	f501 6130 	add.w	r1, r1, #2816	; 0xb00
 8004254:	4313      	orrs	r3, r2
 8004256:	610b      	str	r3, [r1, #16]
    }

    if (dma == 1U)
 8004258:	79fb      	ldrb	r3, [r7, #7]
 800425a:	2b01      	cmp	r3, #1
 800425c:	d10d      	bne.n	800427a <USB_EPStartXfer+0x3fe>
    {
      if ((uint32_t)ep->xfer_buff != 0U)
 800425e:	68bb      	ldr	r3, [r7, #8]
 8004260:	68db      	ldr	r3, [r3, #12]
 8004262:	2b00      	cmp	r3, #0
 8004264:	d009      	beq.n	800427a <USB_EPStartXfer+0x3fe>
      {
        USBx_OUTEP(epnum)->DOEPDMA = (uint32_t)(ep->xfer_buff);
 8004266:	68bb      	ldr	r3, [r7, #8]
 8004268:	68d9      	ldr	r1, [r3, #12]
 800426a:	69bb      	ldr	r3, [r7, #24]
 800426c:	015a      	lsls	r2, r3, #5
 800426e:	69fb      	ldr	r3, [r7, #28]
 8004270:	4413      	add	r3, r2
 8004272:	f503 6330 	add.w	r3, r3, #2816	; 0xb00
 8004276:	460a      	mov	r2, r1
 8004278:	615a      	str	r2, [r3, #20]
      }
    }

    if (ep->type == EP_TYPE_ISOC)
 800427a:	68bb      	ldr	r3, [r7, #8]
 800427c:	78db      	ldrb	r3, [r3, #3]
 800427e:	2b01      	cmp	r3, #1
 8004280:	d128      	bne.n	80042d4 <USB_EPStartXfer+0x458>
    {
      if ((USBx_DEVICE->DSTS & (1U << 8)) == 0U)
 8004282:	69fb      	ldr	r3, [r7, #28]
 8004284:	f503 6300 	add.w	r3, r3, #2048	; 0x800
 8004288:	689b      	ldr	r3, [r3, #8]
 800428a:	f403 7380 	and.w	r3, r3, #256	; 0x100
 800428e:	2b00      	cmp	r3, #0
 8004290:	d110      	bne.n	80042b4 <USB_EPStartXfer+0x438>
      {
        USBx_OUTEP(epnum)->DOEPCTL |= USB_OTG_DOEPCTL_SODDFRM;
 8004292:	69bb      	ldr	r3, [r7, #24]
 8004294:	015a      	lsls	r2, r3, #5
 8004296:	69fb      	ldr	r3, [r7, #28]
 8004298:	4413      	add	r3, r2
 800429a:	f503 6330 	add.w	r3, r3, #2816	; 0xb00
 800429e:	681b      	ldr	r3, [r3, #0]
 80042a0:	69ba      	ldr	r2, [r7, #24]
 80042a2:	0151      	lsls	r1, r2, #5
 80042a4:	69fa      	ldr	r2, [r7, #28]
 80042a6:	440a      	add	r2, r1
 80042a8:	f502 6230 	add.w	r2, r2, #2816	; 0xb00
 80042ac:	f043 5300 	orr.w	r3, r3, #536870912	; 0x20000000
 80042b0:	6013      	str	r3, [r2, #0]
 80042b2:	e00f      	b.n	80042d4 <USB_EPStartXfer+0x458>
      }
      else
      {
        USBx_OUTEP(epnum)->DOEPCTL |= USB_OTG_DOEPCTL_SD0PID_SEVNFRM;
 80042b4:	69bb      	ldr	r3, [r7, #24]
 80042b6:	015a      	lsls	r2, r3, #5
 80042b8:	69fb      	ldr	r3, [r7, #28]
 80042ba:	4413      	add	r3, r2
 80042bc:	f503 6330 	add.w	r3, r3, #2816	; 0xb00
 80042c0:	681b      	ldr	r3, [r3, #0]
 80042c2:	69ba      	ldr	r2, [r7, #24]
 80042c4:	0151      	lsls	r1, r2, #5
 80042c6:	69fa      	ldr	r2, [r7, #28]
 80042c8:	440a      	add	r2, r1
 80042ca:	f502 6230 	add.w	r2, r2, #2816	; 0xb00
 80042ce:	f043 5380 	orr.w	r3, r3, #268435456	; 0x10000000
 80042d2:	6013      	str	r3, [r2, #0]
      }
    }
    /* EP enable */
    USBx_OUTEP(epnum)->DOEPCTL |= (USB_OTG_DOEPCTL_CNAK | USB_OTG_DOEPCTL_EPENA);
 80042d4:	69bb      	ldr	r3, [r7, #24]
 80042d6:	015a      	lsls	r2, r3, #5
 80042d8:	69fb      	ldr	r3, [r7, #28]
 80042da:	4413      	add	r3, r2
 80042dc:	f503 6330 	add.w	r3, r3, #2816	; 0xb00
 80042e0:	681b      	ldr	r3, [r3, #0]
 80042e2:	69ba      	ldr	r2, [r7, #24]
 80042e4:	0151      	lsls	r1, r2, #5
 80042e6:	69fa      	ldr	r2, [r7, #28]
 80042e8:	440a      	add	r2, r1
 80042ea:	f502 6230 	add.w	r2, r2, #2816	; 0xb00
 80042ee:	f043 4304 	orr.w	r3, r3, #2214592512	; 0x84000000
 80042f2:	6013      	str	r3, [r2, #0]
  }

  return HAL_OK;
 80042f4:	2300      	movs	r3, #0
}
 80042f6:	4618      	mov	r0, r3
 80042f8:	3720      	adds	r7, #32
 80042fa:	46bd      	mov	sp, r7
 80042fc:	bd80      	pop	{r7, pc}
 80042fe:	bf00      	nop
 8004300:	1ff80000 	.word	0x1ff80000

08004304 <USB_EP0StartXfer>:
  *           0 : DMA feature not used
  *           1 : DMA feature used
  * @retval HAL status
  */
HAL_StatusTypeDef USB_EP0StartXfer(USB_OTG_GlobalTypeDef *USBx, USB_OTG_EPTypeDef *ep, uint8_t dma)
{
 8004304:	b480      	push	{r7}
 8004306:	b087      	sub	sp, #28
 8004308:	af00      	add	r7, sp, #0
 800430a:	60f8      	str	r0, [r7, #12]
 800430c:	60b9      	str	r1, [r7, #8]
 800430e:	4613      	mov	r3, r2
 8004310:	71fb      	strb	r3, [r7, #7]
  uint32_t USBx_BASE = (uint32_t)USBx;
 8004312:	68fb      	ldr	r3, [r7, #12]
 8004314:	617b      	str	r3, [r7, #20]
  uint32_t epnum = (uint32_t)ep->num;
 8004316:	68bb      	ldr	r3, [r7, #8]
 8004318:	781b      	ldrb	r3, [r3, #0]
 800431a:	613b      	str	r3, [r7, #16]

  /* IN endpoint */
  if (ep->is_in == 1U)
 800431c:	68bb      	ldr	r3, [r7, #8]
 800431e:	785b      	ldrb	r3, [r3, #1]
 8004320:	2b01      	cmp	r3, #1
 8004322:	f040 80cd 	bne.w	80044c0 <USB_EP0StartXfer+0x1bc>
  {
    /* Zero Length Packet? */
    if (ep->xfer_len == 0U)
 8004326:	68bb      	ldr	r3, [r7, #8]
 8004328:	695b      	ldr	r3, [r3, #20]
 800432a:	2b00      	cmp	r3, #0
 800432c:	d132      	bne.n	8004394 <USB_EP0StartXfer+0x90>
    {
      USBx_INEP(epnum)->DIEPTSIZ &= ~(USB_OTG_DIEPTSIZ_PKTCNT);
 800432e:	693b      	ldr	r3, [r7, #16]
 8004330:	015a      	lsls	r2, r3, #5
 8004332:	697b      	ldr	r3, [r7, #20]
 8004334:	4413      	add	r3, r2
 8004336:	f503 6310 	add.w	r3, r3, #2304	; 0x900
 800433a:	691b      	ldr	r3, [r3, #16]
 800433c:	693a      	ldr	r2, [r7, #16]
 800433e:	0151      	lsls	r1, r2, #5
 8004340:	697a      	ldr	r2, [r7, #20]
 8004342:	440a      	add	r2, r1
 8004344:	f502 6210 	add.w	r2, r2, #2304	; 0x900
 8004348:	f023 53ff 	bic.w	r3, r3, #534773760	; 0x1fe00000
 800434c:	f423 13c0 	bic.w	r3, r3, #1572864	; 0x180000
 8004350:	6113      	str	r3, [r2, #16]
      USBx_INEP(epnum)->DIEPTSIZ |= (USB_OTG_DIEPTSIZ_PKTCNT & (1U << 19));
 8004352:	693b      	ldr	r3, [r7, #16]
 8004354:	015a      	lsls	r2, r3, #5
 8004356:	697b      	ldr	r3, [r7, #20]
 8004358:	4413      	add	r3, r2
 800435a:	f503 6310 	add.w	r3, r3, #2304	; 0x900
 800435e:	691b      	ldr	r3, [r3, #16]
 8004360:	693a      	ldr	r2, [r7, #16]
 8004362:	0151      	lsls	r1, r2, #5
 8004364:	697a      	ldr	r2, [r7, #20]
 8004366:	440a      	add	r2, r1
 8004368:	f502 6210 	add.w	r2, r2, #2304	; 0x900
 800436c:	f443 2300 	orr.w	r3, r3, #524288	; 0x80000
 8004370:	6113      	str	r3, [r2, #16]
      USBx_INEP(epnum)->DIEPTSIZ &= ~(USB_OTG_DIEPTSIZ_XFRSIZ);
 8004372:	693b      	ldr	r3, [r7, #16]
 8004374:	015a      	lsls	r2, r3, #5
 8004376:	697b      	ldr	r3, [r7, #20]
 8004378:	4413      	add	r3, r2
 800437a:	f503 6310 	add.w	r3, r3, #2304	; 0x900
 800437e:	691b      	ldr	r3, [r3, #16]
 8004380:	693a      	ldr	r2, [r7, #16]
 8004382:	0151      	lsls	r1, r2, #5
 8004384:	697a      	ldr	r2, [r7, #20]
 8004386:	440a      	add	r2, r1
 8004388:	f502 6210 	add.w	r2, r2, #2304	; 0x900
 800438c:	0cdb      	lsrs	r3, r3, #19
 800438e:	04db      	lsls	r3, r3, #19
 8004390:	6113      	str	r3, [r2, #16]
 8004392:	e04e      	b.n	8004432 <USB_EP0StartXfer+0x12e>
      /* Program the transfer size and packet count
      * as follows: xfersize = N * maxpacket +
      * short_packet pktcnt = N + (short_packet
      * exist ? 1 : 0)
      */
      USBx_INEP(epnum)->DIEPTSIZ &= ~(USB_OTG_DIEPTSIZ_XFRSIZ);
 8004394:	693b      	ldr	r3, [r7, #16]
 8004396:	015a      	lsls	r2, r3, #5
 8004398:	697b      	ldr	r3, [r7, #20]
 800439a:	4413      	add	r3, r2
 800439c:	f503 6310 	add.w	r3, r3, #2304	; 0x900
 80043a0:	691b      	ldr	r3, [r3, #16]
 80043a2:	693a      	ldr	r2, [r7, #16]
 80043a4:	0151      	lsls	r1, r2, #5
 80043a6:	697a      	ldr	r2, [r7, #20]
 80043a8:	440a      	add	r2, r1
 80043aa:	f502 6210 	add.w	r2, r2, #2304	; 0x900
 80043ae:	0cdb      	lsrs	r3, r3, #19
 80043b0:	04db      	lsls	r3, r3, #19
 80043b2:	6113      	str	r3, [r2, #16]
      USBx_INEP(epnum)->DIEPTSIZ &= ~(USB_OTG_DIEPTSIZ_PKTCNT);
 80043b4:	693b      	ldr	r3, [r7, #16]
 80043b6:	015a      	lsls	r2, r3, #5
 80043b8:	697b      	ldr	r3, [r7, #20]
 80043ba:	4413      	add	r3, r2
 80043bc:	f503 6310 	add.w	r3, r3, #2304	; 0x900
 80043c0:	691b      	ldr	r3, [r3, #16]
 80043c2:	693a      	ldr	r2, [r7, #16]
 80043c4:	0151      	lsls	r1, r2, #5
 80043c6:	697a      	ldr	r2, [r7, #20]
 80043c8:	440a      	add	r2, r1
 80043ca:	f502 6210 	add.w	r2, r2, #2304	; 0x900
 80043ce:	f023 53ff 	bic.w	r3, r3, #534773760	; 0x1fe00000
 80043d2:	f423 13c0 	bic.w	r3, r3, #1572864	; 0x180000
 80043d6:	6113      	str	r3, [r2, #16]

      if (ep->xfer_len > ep->maxpacket)
 80043d8:	68bb      	ldr	r3, [r7, #8]
 80043da:	695a      	ldr	r2, [r3, #20]
 80043dc:	68bb      	ldr	r3, [r7, #8]
 80043de:	689b      	ldr	r3, [r3, #8]
 80043e0:	429a      	cmp	r2, r3
 80043e2:	d903      	bls.n	80043ec <USB_EP0StartXfer+0xe8>
      {
        ep->xfer_len = ep->maxpacket;
 80043e4:	68bb      	ldr	r3, [r7, #8]
 80043e6:	689a      	ldr	r2, [r3, #8]
 80043e8:	68bb      	ldr	r3, [r7, #8]
 80043ea:	615a      	str	r2, [r3, #20]
      }
      USBx_INEP(epnum)->DIEPTSIZ |= (USB_OTG_DIEPTSIZ_PKTCNT & (1U << 19));
 80043ec:	693b      	ldr	r3, [r7, #16]
 80043ee:	015a      	lsls	r2, r3, #5
 80043f0:	697b      	ldr	r3, [r7, #20]
 80043f2:	4413      	add	r3, r2
 80043f4:	f503 6310 	add.w	r3, r3, #2304	; 0x900
 80043f8:	691b      	ldr	r3, [r3, #16]
 80043fa:	693a      	ldr	r2, [r7, #16]
 80043fc:	0151      	lsls	r1, r2, #5
 80043fe:	697a      	ldr	r2, [r7, #20]
 8004400:	440a      	add	r2, r1
 8004402:	f502 6210 	add.w	r2, r2, #2304	; 0x900
 8004406:	f443 2300 	orr.w	r3, r3, #524288	; 0x80000
 800440a:	6113      	str	r3, [r2, #16]
      USBx_INEP(epnum)->DIEPTSIZ |= (USB_OTG_DIEPTSIZ_XFRSIZ & ep->xfer_len);
 800440c:	693b      	ldr	r3, [r7, #16]
 800440e:	015a      	lsls	r2, r3, #5
 8004410:	697b      	ldr	r3, [r7, #20]
 8004412:	4413      	add	r3, r2
 8004414:	f503 6310 	add.w	r3, r3, #2304	; 0x900
 8004418:	691a      	ldr	r2, [r3, #16]
 800441a:	68bb      	ldr	r3, [r7, #8]
 800441c:	695b      	ldr	r3, [r3, #20]
 800441e:	f3c3 0312 	ubfx	r3, r3, #0, #19
 8004422:	6939      	ldr	r1, [r7, #16]
 8004424:	0148      	lsls	r0, r1, #5
 8004426:	6979      	ldr	r1, [r7, #20]
 8004428:	4401      	add	r1, r0
 800442a:	f501 6110 	add.w	r1, r1, #2304	; 0x900
 800442e:	4313      	orrs	r3, r2
 8004430:	610b      	str	r3, [r1, #16]
    }

    if (dma == 1U)
 8004432:	79fb      	ldrb	r3, [r7, #7]
 8004434:	2b01      	cmp	r3, #1
 8004436:	d11e      	bne.n	8004476 <USB_EP0StartXfer+0x172>
    {
      if ((uint32_t)ep->dma_addr != 0U)
 8004438:	68bb      	ldr	r3, [r7, #8]
 800443a:	691b      	ldr	r3, [r3, #16]
 800443c:	2b00      	cmp	r3, #0
 800443e:	d009      	beq.n	8004454 <USB_EP0StartXfer+0x150>
      {
        USBx_INEP(epnum)->DIEPDMA = (uint32_t)(ep->dma_addr);
 8004440:	693b      	ldr	r3, [r7, #16]
 8004442:	015a      	lsls	r2, r3, #5
 8004444:	697b      	ldr	r3, [r7, #20]
 8004446:	4413      	add	r3, r2
 8004448:	f503 6310 	add.w	r3, r3, #2304	; 0x900
 800444c:	461a      	mov	r2, r3
 800444e:	68bb      	ldr	r3, [r7, #8]
 8004450:	691b      	ldr	r3, [r3, #16]
 8004452:	6153      	str	r3, [r2, #20]
      }

      /* EP enable, IN data in FIFO */
      USBx_INEP(epnum)->DIEPCTL |= (USB_OTG_DIEPCTL_CNAK | USB_OTG_DIEPCTL_EPENA);
 8004454:	693b      	ldr	r3, [r7, #16]
 8004456:	015a      	lsls	r2, r3, #5
 8004458:	697b      	ldr	r3, [r7, #20]
 800445a:	4413      	add	r3, r2
 800445c:	f503 6310 	add.w	r3, r3, #2304	; 0x900
 8004460:	681b      	ldr	r3, [r3, #0]
 8004462:	693a      	ldr	r2, [r7, #16]
 8004464:	0151      	lsls	r1, r2, #5
 8004466:	697a      	ldr	r2, [r7, #20]
 8004468:	440a      	add	r2, r1
 800446a:	f502 6210 	add.w	r2, r2, #2304	; 0x900
 800446e:	f043 4304 	orr.w	r3, r3, #2214592512	; 0x84000000
 8004472:	6013      	str	r3, [r2, #0]
 8004474:	e092      	b.n	800459c <USB_EP0StartXfer+0x298>
    }
    else
    {
      /* EP enable, IN data in FIFO */
      USBx_INEP(epnum)->DIEPCTL |= (USB_OTG_DIEPCTL_CNAK | USB_OTG_DIEPCTL_EPENA);
 8004476:	693b      	ldr	r3, [r7, #16]
 8004478:	015a      	lsls	r2, r3, #5
 800447a:	697b      	ldr	r3, [r7, #20]
 800447c:	4413      	add	r3, r2
 800447e:	f503 6310 	add.w	r3, r3, #2304	; 0x900
 8004482:	681b      	ldr	r3, [r3, #0]
 8004484:	693a      	ldr	r2, [r7, #16]
 8004486:	0151      	lsls	r1, r2, #5
 8004488:	697a      	ldr	r2, [r7, #20]
 800448a:	440a      	add	r2, r1
 800448c:	f502 6210 	add.w	r2, r2, #2304	; 0x900
 8004490:	f043 4304 	orr.w	r3, r3, #2214592512	; 0x84000000
 8004494:	6013      	str	r3, [r2, #0]

      /* Enable the Tx FIFO Empty Interrupt for this EP */
      if (ep->xfer_len > 0U)
 8004496:	68bb      	ldr	r3, [r7, #8]
 8004498:	695b      	ldr	r3, [r3, #20]
 800449a:	2b00      	cmp	r3, #0
 800449c:	d07e      	beq.n	800459c <USB_EP0StartXfer+0x298>
      {
        USBx_DEVICE->DIEPEMPMSK |= 1UL << (ep->num & EP_ADDR_MSK);
 800449e:	697b      	ldr	r3, [r7, #20]
 80044a0:	f503 6300 	add.w	r3, r3, #2048	; 0x800
 80044a4:	6b5a      	ldr	r2, [r3, #52]	; 0x34
 80044a6:	68bb      	ldr	r3, [r7, #8]
 80044a8:	781b      	ldrb	r3, [r3, #0]
 80044aa:	f003 030f 	and.w	r3, r3, #15
 80044ae:	2101      	movs	r1, #1
 80044b0:	fa01 f303 	lsl.w	r3, r1, r3
 80044b4:	6979      	ldr	r1, [r7, #20]
 80044b6:	f501 6100 	add.w	r1, r1, #2048	; 0x800
 80044ba:	4313      	orrs	r3, r2
 80044bc:	634b      	str	r3, [r1, #52]	; 0x34
 80044be:	e06d      	b.n	800459c <USB_EP0StartXfer+0x298>
  {
    /* Program the transfer size and packet count as follows:
    * pktcnt = N
    * xfersize = N * maxpacket
    */
    USBx_OUTEP(epnum)->DOEPTSIZ &= ~(USB_OTG_DOEPTSIZ_XFRSIZ);
 80044c0:	693b      	ldr	r3, [r7, #16]
 80044c2:	015a      	lsls	r2, r3, #5
 80044c4:	697b      	ldr	r3, [r7, #20]
 80044c6:	4413      	add	r3, r2
 80044c8:	f503 6330 	add.w	r3, r3, #2816	; 0xb00
 80044cc:	691b      	ldr	r3, [r3, #16]
 80044ce:	693a      	ldr	r2, [r7, #16]
 80044d0:	0151      	lsls	r1, r2, #5
 80044d2:	697a      	ldr	r2, [r7, #20]
 80044d4:	440a      	add	r2, r1
 80044d6:	f502 6230 	add.w	r2, r2, #2816	; 0xb00
 80044da:	0cdb      	lsrs	r3, r3, #19
 80044dc:	04db      	lsls	r3, r3, #19
 80044de:	6113      	str	r3, [r2, #16]
    USBx_OUTEP(epnum)->DOEPTSIZ &= ~(USB_OTG_DOEPTSIZ_PKTCNT);
 80044e0:	693b      	ldr	r3, [r7, #16]
 80044e2:	015a      	lsls	r2, r3, #5
 80044e4:	697b      	ldr	r3, [r7, #20]
 80044e6:	4413      	add	r3, r2
 80044e8:	f503 6330 	add.w	r3, r3, #2816	; 0xb00
 80044ec:	691b      	ldr	r3, [r3, #16]
 80044ee:	693a      	ldr	r2, [r7, #16]
 80044f0:	0151      	lsls	r1, r2, #5
 80044f2:	697a      	ldr	r2, [r7, #20]
 80044f4:	440a      	add	r2, r1
 80044f6:	f502 6230 	add.w	r2, r2, #2816	; 0xb00
 80044fa:	f023 53ff 	bic.w	r3, r3, #534773760	; 0x1fe00000
 80044fe:	f423 13c0 	bic.w	r3, r3, #1572864	; 0x180000
 8004502:	6113      	str	r3, [r2, #16]

    if (ep->xfer_len > 0U)
 8004504:	68bb      	ldr	r3, [r7, #8]
 8004506:	695b      	ldr	r3, [r3, #20]
 8004508:	2b00      	cmp	r3, #0
 800450a:	d003      	beq.n	8004514 <USB_EP0StartXfer+0x210>
    {
      ep->xfer_len = ep->maxpacket;
 800450c:	68bb      	ldr	r3, [r7, #8]
 800450e:	689a      	ldr	r2, [r3, #8]
 8004510:	68bb      	ldr	r3, [r7, #8]
 8004512:	615a      	str	r2, [r3, #20]
    }

    USBx_OUTEP(epnum)->DOEPTSIZ |= (USB_OTG_DOEPTSIZ_PKTCNT & (1U << 19));
 8004514:	693b      	ldr	r3, [r7, #16]
 8004516:	015a      	lsls	r2, r3, #5
 8004518:	697b      	ldr	r3, [r7, #20]
 800451a:	4413      	add	r3, r2
 800451c:	f503 6330 	add.w	r3, r3, #2816	; 0xb00
 8004520:	691b      	ldr	r3, [r3, #16]
 8004522:	693a      	ldr	r2, [r7, #16]
 8004524:	0151      	lsls	r1, r2, #5
 8004526:	697a      	ldr	r2, [r7, #20]
 8004528:	440a      	add	r2, r1
 800452a:	f502 6230 	add.w	r2, r2, #2816	; 0xb00
 800452e:	f443 2300 	orr.w	r3, r3, #524288	; 0x80000
 8004532:	6113      	str	r3, [r2, #16]
    USBx_OUTEP(epnum)->DOEPTSIZ |= (USB_OTG_DOEPTSIZ_XFRSIZ & (ep->maxpacket));
 8004534:	693b      	ldr	r3, [r7, #16]
 8004536:	015a      	lsls	r2, r3, #5
 8004538:	697b      	ldr	r3, [r7, #20]
 800453a:	4413      	add	r3, r2
 800453c:	f503 6330 	add.w	r3, r3, #2816	; 0xb00
 8004540:	691a      	ldr	r2, [r3, #16]
 8004542:	68bb      	ldr	r3, [r7, #8]
 8004544:	689b      	ldr	r3, [r3, #8]
 8004546:	f3c3 0312 	ubfx	r3, r3, #0, #19
 800454a:	6939      	ldr	r1, [r7, #16]
 800454c:	0148      	lsls	r0, r1, #5
 800454e:	6979      	ldr	r1, [r7, #20]
 8004550:	4401      	add	r1, r0
 8004552:	f501 6130 	add.w	r1, r1, #2816	; 0xb00
 8004556:	4313      	orrs	r3, r2
 8004558:	610b      	str	r3, [r1, #16]

    if (dma == 1U)
 800455a:	79fb      	ldrb	r3, [r7, #7]
 800455c:	2b01      	cmp	r3, #1
 800455e:	d10d      	bne.n	800457c <USB_EP0StartXfer+0x278>
    {
      if ((uint32_t)ep->xfer_buff != 0U)
 8004560:	68bb      	ldr	r3, [r7, #8]
 8004562:	68db      	ldr	r3, [r3, #12]
 8004564:	2b00      	cmp	r3, #0
 8004566:	d009      	beq.n	800457c <USB_EP0StartXfer+0x278>
      {
        USBx_OUTEP(epnum)->DOEPDMA = (uint32_t)(ep->xfer_buff);
 8004568:	68bb      	ldr	r3, [r7, #8]
 800456a:	68d9      	ldr	r1, [r3, #12]
 800456c:	693b      	ldr	r3, [r7, #16]
 800456e:	015a      	lsls	r2, r3, #5
 8004570:	697b      	ldr	r3, [r7, #20]
 8004572:	4413      	add	r3, r2
 8004574:	f503 6330 	add.w	r3, r3, #2816	; 0xb00
 8004578:	460a      	mov	r2, r1
 800457a:	615a      	str	r2, [r3, #20]
      }
    }

    /* EP enable */
    USBx_OUTEP(epnum)->DOEPCTL |= (USB_OTG_DOEPCTL_CNAK | USB_OTG_DOEPCTL_EPENA);
 800457c:	693b      	ldr	r3, [r7, #16]
 800457e:	015a      	lsls	r2, r3, #5
 8004580:	697b      	ldr	r3, [r7, #20]
 8004582:	4413      	add	r3, r2
 8004584:	f503 6330 	add.w	r3, r3, #2816	; 0xb00
 8004588:	681b      	ldr	r3, [r3, #0]
 800458a:	693a      	ldr	r2, [r7, #16]
 800458c:	0151      	lsls	r1, r2, #5
 800458e:	697a      	ldr	r2, [r7, #20]
 8004590:	440a      	add	r2, r1
 8004592:	f502 6230 	add.w	r2, r2, #2816	; 0xb00
 8004596:	f043 4304 	orr.w	r3, r3, #2214592512	; 0x84000000
 800459a:	6013      	str	r3, [r2, #0]
  }

  return HAL_OK;
 800459c:	2300      	movs	r3, #0
}
 800459e:	4618      	mov	r0, r3
 80045a0:	371c      	adds	r7, #28
 80045a2:	46bd      	mov	sp, r7
 80045a4:	f85d 7b04 	ldr.w	r7, [sp], #4
 80045a8:	4770      	bx	lr

080045aa <USB_WritePacket>:
  *           1 : DMA feature used
  * @retval HAL status
  */
HAL_StatusTypeDef USB_WritePacket(USB_OTG_GlobalTypeDef *USBx, uint8_t *src,
                                  uint8_t ch_ep_num, uint16_t len, uint8_t dma)
{
 80045aa:	b480      	push	{r7}
 80045ac:	b089      	sub	sp, #36	; 0x24
 80045ae:	af00      	add	r7, sp, #0
 80045b0:	60f8      	str	r0, [r7, #12]
 80045b2:	60b9      	str	r1, [r7, #8]
 80045b4:	4611      	mov	r1, r2
 80045b6:	461a      	mov	r2, r3
 80045b8:	460b      	mov	r3, r1
 80045ba:	71fb      	strb	r3, [r7, #7]
 80045bc:	4613      	mov	r3, r2
 80045be:	80bb      	strh	r3, [r7, #4]
  uint32_t USBx_BASE = (uint32_t)USBx;
 80045c0:	68fb      	ldr	r3, [r7, #12]
 80045c2:	617b      	str	r3, [r7, #20]
  uint32_t *pSrc = (uint32_t *)src;
 80045c4:	68bb      	ldr	r3, [r7, #8]
 80045c6:	61fb      	str	r3, [r7, #28]
  uint32_t count32b, i;

  if (dma == 0U)
 80045c8:	f897 3028 	ldrb.w	r3, [r7, #40]	; 0x28
 80045cc:	2b00      	cmp	r3, #0
 80045ce:	d11a      	bne.n	8004606 <USB_WritePacket+0x5c>
  {
    count32b = ((uint32_t)len + 3U) / 4U;
 80045d0:	88bb      	ldrh	r3, [r7, #4]
 80045d2:	3303      	adds	r3, #3
 80045d4:	089b      	lsrs	r3, r3, #2
 80045d6:	613b      	str	r3, [r7, #16]
    for (i = 0U; i < count32b; i++)
 80045d8:	2300      	movs	r3, #0
 80045da:	61bb      	str	r3, [r7, #24]
 80045dc:	e00f      	b.n	80045fe <USB_WritePacket+0x54>
    {
      USBx_DFIFO((uint32_t)ch_ep_num) = __UNALIGNED_UINT32_READ(pSrc);
 80045de:	79fb      	ldrb	r3, [r7, #7]
 80045e0:	031a      	lsls	r2, r3, #12
 80045e2:	697b      	ldr	r3, [r7, #20]
 80045e4:	4413      	add	r3, r2
 80045e6:	f503 5380 	add.w	r3, r3, #4096	; 0x1000
 80045ea:	461a      	mov	r2, r3
 80045ec:	69fb      	ldr	r3, [r7, #28]
 80045ee:	681b      	ldr	r3, [r3, #0]
 80045f0:	6013      	str	r3, [r2, #0]
      pSrc++;
 80045f2:	69fb      	ldr	r3, [r7, #28]
 80045f4:	3304      	adds	r3, #4
 80045f6:	61fb      	str	r3, [r7, #28]
    for (i = 0U; i < count32b; i++)
 80045f8:	69bb      	ldr	r3, [r7, #24]
 80045fa:	3301      	adds	r3, #1
 80045fc:	61bb      	str	r3, [r7, #24]
 80045fe:	69ba      	ldr	r2, [r7, #24]
 8004600:	693b      	ldr	r3, [r7, #16]
 8004602:	429a      	cmp	r2, r3
 8004604:	d3eb      	bcc.n	80045de <USB_WritePacket+0x34>
    }
  }

  return HAL_OK;
 8004606:	2300      	movs	r3, #0
}
 8004608:	4618      	mov	r0, r3
 800460a:	3724      	adds	r7, #36	; 0x24
 800460c:	46bd      	mov	sp, r7
 800460e:	f85d 7b04 	ldr.w	r7, [sp], #4
 8004612:	4770      	bx	lr

08004614 <USB_ReadPacket>:
  * @param  dest  source pointer
  * @param  len  Number of bytes to read
  * @retval pointer to destination buffer
  */
void *USB_ReadPacket(USB_OTG_GlobalTypeDef *USBx, uint8_t *dest, uint16_t len)
{
 8004614:	b480      	push	{r7}
 8004616:	b089      	sub	sp, #36	; 0x24
 8004618:	af00      	add	r7, sp, #0
 800461a:	60f8      	str	r0, [r7, #12]
 800461c:	60b9      	str	r1, [r7, #8]
 800461e:	4613      	mov	r3, r2
 8004620:	80fb      	strh	r3, [r7, #6]
  uint32_t USBx_BASE = (uint32_t)USBx;
 8004622:	68fb      	ldr	r3, [r7, #12]
 8004624:	617b      	str	r3, [r7, #20]
  uint32_t *pDest = (uint32_t *)dest;
 8004626:	68bb      	ldr	r3, [r7, #8]
 8004628:	61fb      	str	r3, [r7, #28]
  uint32_t i;
  uint32_t count32b = ((uint32_t)len + 3U) / 4U;
 800462a:	88fb      	ldrh	r3, [r7, #6]
 800462c:	3303      	adds	r3, #3
 800462e:	089b      	lsrs	r3, r3, #2
 8004630:	613b      	str	r3, [r7, #16]

  for (i = 0U; i < count32b; i++)
 8004632:	2300      	movs	r3, #0
 8004634:	61bb      	str	r3, [r7, #24]
 8004636:	e00b      	b.n	8004650 <USB_ReadPacket+0x3c>
  {
    __UNALIGNED_UINT32_WRITE(pDest, USBx_DFIFO(0U));
 8004638:	697b      	ldr	r3, [r7, #20]
 800463a:	f503 5380 	add.w	r3, r3, #4096	; 0x1000
 800463e:	681a      	ldr	r2, [r3, #0]
 8004640:	69fb      	ldr	r3, [r7, #28]
 8004642:	601a      	str	r2, [r3, #0]
    pDest++;
 8004644:	69fb      	ldr	r3, [r7, #28]
 8004646:	3304      	adds	r3, #4
 8004648:	61fb      	str	r3, [r7, #28]
  for (i = 0U; i < count32b; i++)
 800464a:	69bb      	ldr	r3, [r7, #24]
 800464c:	3301      	adds	r3, #1
 800464e:	61bb      	str	r3, [r7, #24]
 8004650:	69ba      	ldr	r2, [r7, #24]
 8004652:	693b      	ldr	r3, [r7, #16]
 8004654:	429a      	cmp	r2, r3
 8004656:	d3ef      	bcc.n	8004638 <USB_ReadPacket+0x24>
  }

  return ((void *)pDest);
 8004658:	69fb      	ldr	r3, [r7, #28]
}
 800465a:	4618      	mov	r0, r3
 800465c:	3724      	adds	r7, #36	; 0x24
 800465e:	46bd      	mov	sp, r7
 8004660:	f85d 7b04 	ldr.w	r7, [sp], #4
 8004664:	4770      	bx	lr

08004666 <USB_EPSetStall>:
  * @param  USBx  Selected device
  * @param  ep pointer to endpoint structure
  * @retval HAL status
  */
HAL_StatusTypeDef USB_EPSetStall(USB_OTG_GlobalTypeDef *USBx, USB_OTG_EPTypeDef *ep)
{
 8004666:	b480      	push	{r7}
 8004668:	b085      	sub	sp, #20
 800466a:	af00      	add	r7, sp, #0
 800466c:	6078      	str	r0, [r7, #4]
 800466e:	6039      	str	r1, [r7, #0]
  uint32_t USBx_BASE = (uint32_t)USBx;
 8004670:	687b      	ldr	r3, [r7, #4]
 8004672:	60fb      	str	r3, [r7, #12]
  uint32_t epnum = (uint32_t)ep->num;
 8004674:	683b      	ldr	r3, [r7, #0]
 8004676:	781b      	ldrb	r3, [r3, #0]
 8004678:	60bb      	str	r3, [r7, #8]

  if (ep->is_in == 1U)
 800467a:	683b      	ldr	r3, [r7, #0]
 800467c:	785b      	ldrb	r3, [r3, #1]
 800467e:	2b01      	cmp	r3, #1
 8004680:	d12c      	bne.n	80046dc <USB_EPSetStall+0x76>
  {
    if (((USBx_INEP(epnum)->DIEPCTL & USB_OTG_DIEPCTL_EPENA) == 0U) && (epnum != 0U))
 8004682:	68bb      	ldr	r3, [r7, #8]
 8004684:	015a      	lsls	r2, r3, #5
 8004686:	68fb      	ldr	r3, [r7, #12]
 8004688:	4413      	add	r3, r2
 800468a:	f503 6310 	add.w	r3, r3, #2304	; 0x900
 800468e:	681b      	ldr	r3, [r3, #0]
 8004690:	2b00      	cmp	r3, #0
 8004692:	db12      	blt.n	80046ba <USB_EPSetStall+0x54>
 8004694:	68bb      	ldr	r3, [r7, #8]
 8004696:	2b00      	cmp	r3, #0
 8004698:	d00f      	beq.n	80046ba <USB_EPSetStall+0x54>
    {
      USBx_INEP(epnum)->DIEPCTL &= ~(USB_OTG_DIEPCTL_EPDIS);
 800469a:	68bb      	ldr	r3, [r7, #8]
 800469c:	015a      	lsls	r2, r3, #5
 800469e:	68fb      	ldr	r3, [r7, #12]
 80046a0:	4413      	add	r3, r2
 80046a2:	f503 6310 	add.w	r3, r3, #2304	; 0x900
 80046a6:	681b      	ldr	r3, [r3, #0]
 80046a8:	68ba      	ldr	r2, [r7, #8]
 80046aa:	0151      	lsls	r1, r2, #5
 80046ac:	68fa      	ldr	r2, [r7, #12]
 80046ae:	440a      	add	r2, r1
 80046b0:	f502 6210 	add.w	r2, r2, #2304	; 0x900
 80046b4:	f023 4380 	bic.w	r3, r3, #1073741824	; 0x40000000
 80046b8:	6013      	str	r3, [r2, #0]
    }
    USBx_INEP(epnum)->DIEPCTL |= USB_OTG_DIEPCTL_STALL;
 80046ba:	68bb      	ldr	r3, [r7, #8]
 80046bc:	015a      	lsls	r2, r3, #5
 80046be:	68fb      	ldr	r3, [r7, #12]
 80046c0:	4413      	add	r3, r2
 80046c2:	f503 6310 	add.w	r3, r3, #2304	; 0x900
 80046c6:	681b      	ldr	r3, [r3, #0]
 80046c8:	68ba      	ldr	r2, [r7, #8]
 80046ca:	0151      	lsls	r1, r2, #5
 80046cc:	68fa      	ldr	r2, [r7, #12]
 80046ce:	440a      	add	r2, r1
 80046d0:	f502 6210 	add.w	r2, r2, #2304	; 0x900
 80046d4:	f443 1300 	orr.w	r3, r3, #2097152	; 0x200000
 80046d8:	6013      	str	r3, [r2, #0]
 80046da:	e02b      	b.n	8004734 <USB_EPSetStall+0xce>
  }
  else
  {
    if (((USBx_OUTEP(epnum)->DOEPCTL & USB_OTG_DOEPCTL_EPENA) == 0U) && (epnum != 0U))
 80046dc:	68bb      	ldr	r3, [r7, #8]
 80046de:	015a      	lsls	r2, r3, #5
 80046e0:	68fb      	ldr	r3, [r7, #12]
 80046e2:	4413      	add	r3, r2
 80046e4:	f503 6330 	add.w	r3, r3, #2816	; 0xb00
 80046e8:	681b      	ldr	r3, [r3, #0]
 80046ea:	2b00      	cmp	r3, #0
 80046ec:	db12      	blt.n	8004714 <USB_EPSetStall+0xae>
 80046ee:	68bb      	ldr	r3, [r7, #8]
 80046f0:	2b00      	cmp	r3, #0
 80046f2:	d00f      	beq.n	8004714 <USB_EPSetStall+0xae>
    {
      USBx_OUTEP(epnum)->DOEPCTL &= ~(USB_OTG_DOEPCTL_EPDIS);
 80046f4:	68bb      	ldr	r3, [r7, #8]
 80046f6:	015a      	lsls	r2, r3, #5
 80046f8:	68fb      	ldr	r3, [r7, #12]
 80046fa:	4413      	add	r3, r2
 80046fc:	f503 6330 	add.w	r3, r3, #2816	; 0xb00
 8004700:	681b      	ldr	r3, [r3, #0]
 8004702:	68ba      	ldr	r2, [r7, #8]
 8004704:	0151      	lsls	r1, r2, #5
 8004706:	68fa      	ldr	r2, [r7, #12]
 8004708:	440a      	add	r2, r1
 800470a:	f502 6230 	add.w	r2, r2, #2816	; 0xb00
 800470e:	f023 4380 	bic.w	r3, r3, #1073741824	; 0x40000000
 8004712:	6013      	str	r3, [r2, #0]
    }
    USBx_OUTEP(epnum)->DOEPCTL |= USB_OTG_DOEPCTL_STALL;
 8004714:	68bb      	ldr	r3, [r7, #8]
 8004716:	015a      	lsls	r2, r3, #5
 8004718:	68fb      	ldr	r3, [r7, #12]
 800471a:	4413      	add	r3, r2
 800471c:	f503 6330 	add.w	r3, r3, #2816	; 0xb00
 8004720:	681b      	ldr	r3, [r3, #0]
 8004722:	68ba      	ldr	r2, [r7, #8]
 8004724:	0151      	lsls	r1, r2, #5
 8004726:	68fa      	ldr	r2, [r7, #12]
 8004728:	440a      	add	r2, r1
 800472a:	f502 6230 	add.w	r2, r2, #2816	; 0xb00
 800472e:	f443 1300 	orr.w	r3, r3, #2097152	; 0x200000
 8004732:	6013      	str	r3, [r2, #0]
  }

  return HAL_OK;
 8004734:	2300      	movs	r3, #0
}
 8004736:	4618      	mov	r0, r3
 8004738:	3714      	adds	r7, #20
 800473a:	46bd      	mov	sp, r7
 800473c:	f85d 7b04 	ldr.w	r7, [sp], #4
 8004740:	4770      	bx	lr

08004742 <USB_EPClearStall>:
  * @param  USBx  Selected device
  * @param  ep pointer to endpoint structure
  * @retval HAL status
  */
HAL_StatusTypeDef USB_EPClearStall(USB_OTG_GlobalTypeDef *USBx, USB_OTG_EPTypeDef *ep)
{
 8004742:	b480      	push	{r7}
 8004744:	b085      	sub	sp, #20
 8004746:	af00      	add	r7, sp, #0
 8004748:	6078      	str	r0, [r7, #4]
 800474a:	6039      	str	r1, [r7, #0]
  uint32_t USBx_BASE = (uint32_t)USBx;
 800474c:	687b      	ldr	r3, [r7, #4]
 800474e:	60fb      	str	r3, [r7, #12]
  uint32_t epnum = (uint32_t)ep->num;
 8004750:	683b      	ldr	r3, [r7, #0]
 8004752:	781b      	ldrb	r3, [r3, #0]
 8004754:	60bb      	str	r3, [r7, #8]

  if (ep->is_in == 1U)
 8004756:	683b      	ldr	r3, [r7, #0]
 8004758:	785b      	ldrb	r3, [r3, #1]
 800475a:	2b01      	cmp	r3, #1
 800475c:	d128      	bne.n	80047b0 <USB_EPClearStall+0x6e>
  {
    USBx_INEP(epnum)->DIEPCTL &= ~USB_OTG_DIEPCTL_STALL;
 800475e:	68bb      	ldr	r3, [r7, #8]
 8004760:	015a      	lsls	r2, r3, #5
 8004762:	68fb      	ldr	r3, [r7, #12]
 8004764:	4413      	add	r3, r2
 8004766:	f503 6310 	add.w	r3, r3, #2304	; 0x900
 800476a:	681b      	ldr	r3, [r3, #0]
 800476c:	68ba      	ldr	r2, [r7, #8]
 800476e:	0151      	lsls	r1, r2, #5
 8004770:	68fa      	ldr	r2, [r7, #12]
 8004772:	440a      	add	r2, r1
 8004774:	f502 6210 	add.w	r2, r2, #2304	; 0x900
 8004778:	f423 1300 	bic.w	r3, r3, #2097152	; 0x200000
 800477c:	6013      	str	r3, [r2, #0]
    if ((ep->type == EP_TYPE_INTR) || (ep->type == EP_TYPE_BULK))
 800477e:	683b      	ldr	r3, [r7, #0]
 8004780:	78db      	ldrb	r3, [r3, #3]
 8004782:	2b03      	cmp	r3, #3
 8004784:	d003      	beq.n	800478e <USB_EPClearStall+0x4c>
 8004786:	683b      	ldr	r3, [r7, #0]
 8004788:	78db      	ldrb	r3, [r3, #3]
 800478a:	2b02      	cmp	r3, #2
 800478c:	d138      	bne.n	8004800 <USB_EPClearStall+0xbe>
    {
      USBx_INEP(epnum)->DIEPCTL |= USB_OTG_DIEPCTL_SD0PID_SEVNFRM; /* DATA0 */
 800478e:	68bb      	ldr	r3, [r7, #8]
 8004790:	015a      	lsls	r2, r3, #5
 8004792:	68fb      	ldr	r3, [r7, #12]
 8004794:	4413      	add	r3, r2
 8004796:	f503 6310 	add.w	r3, r3, #2304	; 0x900
 800479a:	681b      	ldr	r3, [r3, #0]
 800479c:	68ba      	ldr	r2, [r7, #8]
 800479e:	0151      	lsls	r1, r2, #5
 80047a0:	68fa      	ldr	r2, [r7, #12]
 80047a2:	440a      	add	r2, r1
 80047a4:	f502 6210 	add.w	r2, r2, #2304	; 0x900
 80047a8:	f043 5380 	orr.w	r3, r3, #268435456	; 0x10000000
 80047ac:	6013      	str	r3, [r2, #0]
 80047ae:	e027      	b.n	8004800 <USB_EPClearStall+0xbe>
    }
  }
  else
  {
    USBx_OUTEP(epnum)->DOEPCTL &= ~USB_OTG_DOEPCTL_STALL;
 80047b0:	68bb      	ldr	r3, [r7, #8]
 80047b2:	015a      	lsls	r2, r3, #5
 80047b4:	68fb      	ldr	r3, [r7, #12]
 80047b6:	4413      	add	r3, r2
 80047b8:	f503 6330 	add.w	r3, r3, #2816	; 0xb00
 80047bc:	681b      	ldr	r3, [r3, #0]
 80047be:	68ba      	ldr	r2, [r7, #8]
 80047c0:	0151      	lsls	r1, r2, #5
 80047c2:	68fa      	ldr	r2, [r7, #12]
 80047c4:	440a      	add	r2, r1
 80047c6:	f502 6230 	add.w	r2, r2, #2816	; 0xb00
 80047ca:	f423 1300 	bic.w	r3, r3, #2097152	; 0x200000
 80047ce:	6013      	str	r3, [r2, #0]
    if ((ep->type == EP_TYPE_INTR) || (ep->type == EP_TYPE_BULK))
 80047d0:	683b      	ldr	r3, [r7, #0]
 80047d2:	78db      	ldrb	r3, [r3, #3]
 80047d4:	2b03      	cmp	r3, #3
 80047d6:	d003      	beq.n	80047e0 <USB_EPClearStall+0x9e>
 80047d8:	683b      	ldr	r3, [r7, #0]
 80047da:	78db      	ldrb	r3, [r3, #3]
 80047dc:	2b02      	cmp	r3, #2
 80047de:	d10f      	bne.n	8004800 <USB_EPClearStall+0xbe>
    {
      USBx_OUTEP(epnum)->DOEPCTL |= USB_OTG_DOEPCTL_SD0PID_SEVNFRM; /* DATA0 */
 80047e0:	68bb      	ldr	r3, [r7, #8]
 80047e2:	015a      	lsls	r2, r3, #5
 80047e4:	68fb      	ldr	r3, [r7, #12]
 80047e6:	4413      	add	r3, r2
 80047e8:	f503 6330 	add.w	r3, r3, #2816	; 0xb00
 80047ec:	681b      	ldr	r3, [r3, #0]
 80047ee:	68ba      	ldr	r2, [r7, #8]
 80047f0:	0151      	lsls	r1, r2, #5
 80047f2:	68fa      	ldr	r2, [r7, #12]
 80047f4:	440a      	add	r2, r1
 80047f6:	f502 6230 	add.w	r2, r2, #2816	; 0xb00
 80047fa:	f043 5380 	orr.w	r3, r3, #268435456	; 0x10000000
 80047fe:	6013      	str	r3, [r2, #0]
    }
  }
  return HAL_OK;
 8004800:	2300      	movs	r3, #0
}
 8004802:	4618      	mov	r0, r3
 8004804:	3714      	adds	r7, #20
 8004806:	46bd      	mov	sp, r7
 8004808:	f85d 7b04 	ldr.w	r7, [sp], #4
 800480c:	4770      	bx	lr

0800480e <USB_SetDevAddress>:
  * @param  address  new device address to be assigned
  *          This parameter can be a value from 0 to 255
  * @retval HAL status
  */
HAL_StatusTypeDef  USB_SetDevAddress(USB_OTG_GlobalTypeDef *USBx, uint8_t address)
{
 800480e:	b480      	push	{r7}
 8004810:	b085      	sub	sp, #20
 8004812:	af00      	add	r7, sp, #0
 8004814:	6078      	str	r0, [r7, #4]
 8004816:	460b      	mov	r3, r1
 8004818:	70fb      	strb	r3, [r7, #3]
  uint32_t USBx_BASE = (uint32_t)USBx;
 800481a:	687b      	ldr	r3, [r7, #4]
 800481c:	60fb      	str	r3, [r7, #12]

  USBx_DEVICE->DCFG &= ~(USB_OTG_DCFG_DAD);
 800481e:	68fb      	ldr	r3, [r7, #12]
 8004820:	f503 6300 	add.w	r3, r3, #2048	; 0x800
 8004824:	681b      	ldr	r3, [r3, #0]
 8004826:	68fa      	ldr	r2, [r7, #12]
 8004828:	f502 6200 	add.w	r2, r2, #2048	; 0x800
 800482c:	f423 63fe 	bic.w	r3, r3, #2032	; 0x7f0
 8004830:	6013      	str	r3, [r2, #0]
  USBx_DEVICE->DCFG |= ((uint32_t)address << 4) & USB_OTG_DCFG_DAD;
 8004832:	68fb      	ldr	r3, [r7, #12]
 8004834:	f503 6300 	add.w	r3, r3, #2048	; 0x800
 8004838:	681a      	ldr	r2, [r3, #0]
 800483a:	78fb      	ldrb	r3, [r7, #3]
 800483c:	011b      	lsls	r3, r3, #4
 800483e:	f403 63fe 	and.w	r3, r3, #2032	; 0x7f0
 8004842:	68f9      	ldr	r1, [r7, #12]
 8004844:	f501 6100 	add.w	r1, r1, #2048	; 0x800
 8004848:	4313      	orrs	r3, r2
 800484a:	600b      	str	r3, [r1, #0]

  return HAL_OK;
 800484c:	2300      	movs	r3, #0
}
 800484e:	4618      	mov	r0, r3
 8004850:	3714      	adds	r7, #20
 8004852:	46bd      	mov	sp, r7
 8004854:	f85d 7b04 	ldr.w	r7, [sp], #4
 8004858:	4770      	bx	lr

0800485a <USB_DevConnect>:
  * @brief  USB_DevConnect : Connect the USB device by enabling Rpu
  * @param  USBx  Selected device
  * @retval HAL status
  */
HAL_StatusTypeDef  USB_DevConnect(USB_OTG_GlobalTypeDef *USBx)
{
 800485a:	b480      	push	{r7}
 800485c:	b085      	sub	sp, #20
 800485e:	af00      	add	r7, sp, #0
 8004860:	6078      	str	r0, [r7, #4]
  uint32_t USBx_BASE = (uint32_t)USBx;
 8004862:	687b      	ldr	r3, [r7, #4]
 8004864:	60fb      	str	r3, [r7, #12]

  /* In case phy is stopped, ensure to ungate and restore the phy CLK */
  USBx_PCGCCTL &= ~(USB_OTG_PCGCCTL_STOPCLK | USB_OTG_PCGCCTL_GATECLK);
 8004866:	68fb      	ldr	r3, [r7, #12]
 8004868:	f503 6360 	add.w	r3, r3, #3584	; 0xe00
 800486c:	681b      	ldr	r3, [r3, #0]
 800486e:	68fa      	ldr	r2, [r7, #12]
 8004870:	f502 6260 	add.w	r2, r2, #3584	; 0xe00
 8004874:	f023 0303 	bic.w	r3, r3, #3
 8004878:	6013      	str	r3, [r2, #0]

  USBx_DEVICE->DCTL &= ~USB_OTG_DCTL_SDIS;
 800487a:	68fb      	ldr	r3, [r7, #12]
 800487c:	f503 6300 	add.w	r3, r3, #2048	; 0x800
 8004880:	685b      	ldr	r3, [r3, #4]
 8004882:	68fa      	ldr	r2, [r7, #12]
 8004884:	f502 6200 	add.w	r2, r2, #2048	; 0x800
 8004888:	f023 0302 	bic.w	r3, r3, #2
 800488c:	6053      	str	r3, [r2, #4]

  return HAL_OK;
 800488e:	2300      	movs	r3, #0
}
 8004890:	4618      	mov	r0, r3
 8004892:	3714      	adds	r7, #20
 8004894:	46bd      	mov	sp, r7
 8004896:	f85d 7b04 	ldr.w	r7, [sp], #4
 800489a:	4770      	bx	lr

0800489c <USB_DevDisconnect>:
  * @brief  USB_DevDisconnect : Disconnect the USB device by disabling Rpu
  * @param  USBx  Selected device
  * @retval HAL status
  */
HAL_StatusTypeDef  USB_DevDisconnect(USB_OTG_GlobalTypeDef *USBx)
{
 800489c:	b480      	push	{r7}
 800489e:	b085      	sub	sp, #20
 80048a0:	af00      	add	r7, sp, #0
 80048a2:	6078      	str	r0, [r7, #4]
  uint32_t USBx_BASE = (uint32_t)USBx;
 80048a4:	687b      	ldr	r3, [r7, #4]
 80048a6:	60fb      	str	r3, [r7, #12]

  /* In case phy is stopped, ensure to ungate and restore the phy CLK */
  USBx_PCGCCTL &= ~(USB_OTG_PCGCCTL_STOPCLK | USB_OTG_PCGCCTL_GATECLK);
 80048a8:	68fb      	ldr	r3, [r7, #12]
 80048aa:	f503 6360 	add.w	r3, r3, #3584	; 0xe00
 80048ae:	681b      	ldr	r3, [r3, #0]
 80048b0:	68fa      	ldr	r2, [r7, #12]
 80048b2:	f502 6260 	add.w	r2, r2, #3584	; 0xe00
 80048b6:	f023 0303 	bic.w	r3, r3, #3
 80048ba:	6013      	str	r3, [r2, #0]

  USBx_DEVICE->DCTL |= USB_OTG_DCTL_SDIS;
 80048bc:	68fb      	ldr	r3, [r7, #12]
 80048be:	f503 6300 	add.w	r3, r3, #2048	; 0x800
 80048c2:	685b      	ldr	r3, [r3, #4]
 80048c4:	68fa      	ldr	r2, [r7, #12]
 80048c6:	f502 6200 	add.w	r2, r2, #2048	; 0x800
 80048ca:	f043 0302 	orr.w	r3, r3, #2
 80048ce:	6053      	str	r3, [r2, #4]

  return HAL_OK;
 80048d0:	2300      	movs	r3, #0
}
 80048d2:	4618      	mov	r0, r3
 80048d4:	3714      	adds	r7, #20
 80048d6:	46bd      	mov	sp, r7
 80048d8:	f85d 7b04 	ldr.w	r7, [sp], #4
 80048dc:	4770      	bx	lr

080048de <USB_ReadInterrupts>:
  * @brief  USB_ReadInterrupts: return the global USB interrupt status
  * @param  USBx  Selected device
  * @retval HAL status
  */
uint32_t  USB_ReadInterrupts(USB_OTG_GlobalTypeDef *USBx)
{
 80048de:	b480      	push	{r7}
 80048e0:	b085      	sub	sp, #20
 80048e2:	af00      	add	r7, sp, #0
 80048e4:	6078      	str	r0, [r7, #4]
  uint32_t tmpreg;

  tmpreg = USBx->GINTSTS;
 80048e6:	687b      	ldr	r3, [r7, #4]
 80048e8:	695b      	ldr	r3, [r3, #20]
 80048ea:	60fb      	str	r3, [r7, #12]
  tmpreg &= USBx->GINTMSK;
 80048ec:	687b      	ldr	r3, [r7, #4]
 80048ee:	699b      	ldr	r3, [r3, #24]
 80048f0:	68fa      	ldr	r2, [r7, #12]
 80048f2:	4013      	ands	r3, r2
 80048f4:	60fb      	str	r3, [r7, #12]

  return tmpreg;
 80048f6:	68fb      	ldr	r3, [r7, #12]
}
 80048f8:	4618      	mov	r0, r3
 80048fa:	3714      	adds	r7, #20
 80048fc:	46bd      	mov	sp, r7
 80048fe:	f85d 7b04 	ldr.w	r7, [sp], #4
 8004902:	4770      	bx	lr

08004904 <USB_ReadDevAllOutEpInterrupt>:
  * @brief  USB_ReadDevAllOutEpInterrupt: return the USB device OUT endpoints interrupt status
  * @param  USBx  Selected device
  * @retval HAL status
  */
uint32_t USB_ReadDevAllOutEpInterrupt(USB_OTG_GlobalTypeDef *USBx)
{
 8004904:	b480      	push	{r7}
 8004906:	b085      	sub	sp, #20
 8004908:	af00      	add	r7, sp, #0
 800490a:	6078      	str	r0, [r7, #4]
  uint32_t USBx_BASE = (uint32_t)USBx;
 800490c:	687b      	ldr	r3, [r7, #4]
 800490e:	60fb      	str	r3, [r7, #12]
  uint32_t tmpreg;

  tmpreg  = USBx_DEVICE->DAINT;
 8004910:	68fb      	ldr	r3, [r7, #12]
 8004912:	f503 6300 	add.w	r3, r3, #2048	; 0x800
 8004916:	699b      	ldr	r3, [r3, #24]
 8004918:	60bb      	str	r3, [r7, #8]
  tmpreg &= USBx_DEVICE->DAINTMSK;
 800491a:	68fb      	ldr	r3, [r7, #12]
 800491c:	f503 6300 	add.w	r3, r3, #2048	; 0x800
 8004920:	69db      	ldr	r3, [r3, #28]
 8004922:	68ba      	ldr	r2, [r7, #8]
 8004924:	4013      	ands	r3, r2
 8004926:	60bb      	str	r3, [r7, #8]

  return ((tmpreg & 0xffff0000U) >> 16);
 8004928:	68bb      	ldr	r3, [r7, #8]
 800492a:	0c1b      	lsrs	r3, r3, #16
}
 800492c:	4618      	mov	r0, r3
 800492e:	3714      	adds	r7, #20
 8004930:	46bd      	mov	sp, r7
 8004932:	f85d 7b04 	ldr.w	r7, [sp], #4
 8004936:	4770      	bx	lr

08004938 <USB_ReadDevAllInEpInterrupt>:
  * @brief  USB_ReadDevAllInEpInterrupt: return the USB device IN endpoints interrupt status
  * @param  USBx  Selected device
  * @retval HAL status
  */
uint32_t USB_ReadDevAllInEpInterrupt(USB_OTG_GlobalTypeDef *USBx)
{
 8004938:	b480      	push	{r7}
 800493a:	b085      	sub	sp, #20
 800493c:	af00      	add	r7, sp, #0
 800493e:	6078      	str	r0, [r7, #4]
  uint32_t USBx_BASE = (uint32_t)USBx;
 8004940:	687b      	ldr	r3, [r7, #4]
 8004942:	60fb      	str	r3, [r7, #12]
  uint32_t tmpreg;

  tmpreg  = USBx_DEVICE->DAINT;
 8004944:	68fb      	ldr	r3, [r7, #12]
 8004946:	f503 6300 	add.w	r3, r3, #2048	; 0x800
 800494a:	699b      	ldr	r3, [r3, #24]
 800494c:	60bb      	str	r3, [r7, #8]
  tmpreg &= USBx_DEVICE->DAINTMSK;
 800494e:	68fb      	ldr	r3, [r7, #12]
 8004950:	f503 6300 	add.w	r3, r3, #2048	; 0x800
 8004954:	69db      	ldr	r3, [r3, #28]
 8004956:	68ba      	ldr	r2, [r7, #8]
 8004958:	4013      	ands	r3, r2
 800495a:	60bb      	str	r3, [r7, #8]

  return ((tmpreg & 0xFFFFU));
 800495c:	68bb      	ldr	r3, [r7, #8]
 800495e:	b29b      	uxth	r3, r3
}
 8004960:	4618      	mov	r0, r3
 8004962:	3714      	adds	r7, #20
 8004964:	46bd      	mov	sp, r7
 8004966:	f85d 7b04 	ldr.w	r7, [sp], #4
 800496a:	4770      	bx	lr

0800496c <USB_ReadDevOutEPInterrupt>:
  * @param  epnum  endpoint number
  *          This parameter can be a value from 0 to 15
  * @retval Device OUT EP Interrupt register
  */
uint32_t USB_ReadDevOutEPInterrupt(USB_OTG_GlobalTypeDef *USBx, uint8_t epnum)
{
 800496c:	b480      	push	{r7}
 800496e:	b085      	sub	sp, #20
 8004970:	af00      	add	r7, sp, #0
 8004972:	6078      	str	r0, [r7, #4]
 8004974:	460b      	mov	r3, r1
 8004976:	70fb      	strb	r3, [r7, #3]
  uint32_t USBx_BASE = (uint32_t)USBx;
 8004978:	687b      	ldr	r3, [r7, #4]
 800497a:	60fb      	str	r3, [r7, #12]
  uint32_t tmpreg;

  tmpreg  = USBx_OUTEP((uint32_t)epnum)->DOEPINT;
 800497c:	78fb      	ldrb	r3, [r7, #3]
 800497e:	015a      	lsls	r2, r3, #5
 8004980:	68fb      	ldr	r3, [r7, #12]
 8004982:	4413      	add	r3, r2
 8004984:	f503 6330 	add.w	r3, r3, #2816	; 0xb00
 8004988:	689b      	ldr	r3, [r3, #8]
 800498a:	60bb      	str	r3, [r7, #8]
  tmpreg &= USBx_DEVICE->DOEPMSK;
 800498c:	68fb      	ldr	r3, [r7, #12]
 800498e:	f503 6300 	add.w	r3, r3, #2048	; 0x800
 8004992:	695b      	ldr	r3, [r3, #20]
 8004994:	68ba      	ldr	r2, [r7, #8]
 8004996:	4013      	ands	r3, r2
 8004998:	60bb      	str	r3, [r7, #8]

  return tmpreg;
 800499a:	68bb      	ldr	r3, [r7, #8]
}
 800499c:	4618      	mov	r0, r3
 800499e:	3714      	adds	r7, #20
 80049a0:	46bd      	mov	sp, r7
 80049a2:	f85d 7b04 	ldr.w	r7, [sp], #4
 80049a6:	4770      	bx	lr

080049a8 <USB_ReadDevInEPInterrupt>:
  * @param  epnum  endpoint number
  *          This parameter can be a value from 0 to 15
  * @retval Device IN EP Interrupt register
  */
uint32_t USB_ReadDevInEPInterrupt(USB_OTG_GlobalTypeDef *USBx, uint8_t epnum)
{
 80049a8:	b480      	push	{r7}
 80049aa:	b087      	sub	sp, #28
 80049ac:	af00      	add	r7, sp, #0
 80049ae:	6078      	str	r0, [r7, #4]
 80049b0:	460b      	mov	r3, r1
 80049b2:	70fb      	strb	r3, [r7, #3]
  uint32_t USBx_BASE = (uint32_t)USBx;
 80049b4:	687b      	ldr	r3, [r7, #4]
 80049b6:	617b      	str	r3, [r7, #20]
  uint32_t tmpreg, msk, emp;

  msk = USBx_DEVICE->DIEPMSK;
 80049b8:	697b      	ldr	r3, [r7, #20]
 80049ba:	f503 6300 	add.w	r3, r3, #2048	; 0x800
 80049be:	691b      	ldr	r3, [r3, #16]
 80049c0:	613b      	str	r3, [r7, #16]
  emp = USBx_DEVICE->DIEPEMPMSK;
 80049c2:	697b      	ldr	r3, [r7, #20]
 80049c4:	f503 6300 	add.w	r3, r3, #2048	; 0x800
 80049c8:	6b5b      	ldr	r3, [r3, #52]	; 0x34
 80049ca:	60fb      	str	r3, [r7, #12]
  msk |= ((emp >> (epnum & EP_ADDR_MSK)) & 0x1U) << 7;
 80049cc:	78fb      	ldrb	r3, [r7, #3]
 80049ce:	f003 030f 	and.w	r3, r3, #15
 80049d2:	68fa      	ldr	r2, [r7, #12]
 80049d4:	fa22 f303 	lsr.w	r3, r2, r3
 80049d8:	01db      	lsls	r3, r3, #7
 80049da:	b2db      	uxtb	r3, r3
 80049dc:	693a      	ldr	r2, [r7, #16]
 80049de:	4313      	orrs	r3, r2
 80049e0:	613b      	str	r3, [r7, #16]
  tmpreg = USBx_INEP((uint32_t)epnum)->DIEPINT & msk;
 80049e2:	78fb      	ldrb	r3, [r7, #3]
 80049e4:	015a      	lsls	r2, r3, #5
 80049e6:	697b      	ldr	r3, [r7, #20]
 80049e8:	4413      	add	r3, r2
 80049ea:	f503 6310 	add.w	r3, r3, #2304	; 0x900
 80049ee:	689b      	ldr	r3, [r3, #8]
 80049f0:	693a      	ldr	r2, [r7, #16]
 80049f2:	4013      	ands	r3, r2
 80049f4:	60bb      	str	r3, [r7, #8]

  return tmpreg;
 80049f6:	68bb      	ldr	r3, [r7, #8]
}
 80049f8:	4618      	mov	r0, r3
 80049fa:	371c      	adds	r7, #28
 80049fc:	46bd      	mov	sp, r7
 80049fe:	f85d 7b04 	ldr.w	r7, [sp], #4
 8004a02:	4770      	bx	lr

08004a04 <USB_GetMode>:
  *          This parameter can be one of these values:
  *           0 : Host
  *           1 : Device
  */
uint32_t USB_GetMode(USB_OTG_GlobalTypeDef *USBx)
{
 8004a04:	b480      	push	{r7}
 8004a06:	b083      	sub	sp, #12
 8004a08:	af00      	add	r7, sp, #0
 8004a0a:	6078      	str	r0, [r7, #4]
  return ((USBx->GINTSTS) & 0x1U);
 8004a0c:	687b      	ldr	r3, [r7, #4]
 8004a0e:	695b      	ldr	r3, [r3, #20]
 8004a10:	f003 0301 	and.w	r3, r3, #1
}
 8004a14:	4618      	mov	r0, r3
 8004a16:	370c      	adds	r7, #12
 8004a18:	46bd      	mov	sp, r7
 8004a1a:	f85d 7b04 	ldr.w	r7, [sp], #4
 8004a1e:	4770      	bx	lr

08004a20 <USB_ActivateSetup>:
  * @brief  Activate EP0 for Setup transactions
  * @param  USBx  Selected device
  * @retval HAL status
  */
HAL_StatusTypeDef  USB_ActivateSetup(USB_OTG_GlobalTypeDef *USBx)
{
 8004a20:	b480      	push	{r7}
 8004a22:	b085      	sub	sp, #20
 8004a24:	af00      	add	r7, sp, #0
 8004a26:	6078      	str	r0, [r7, #4]
  uint32_t USBx_BASE = (uint32_t)USBx;
 8004a28:	687b      	ldr	r3, [r7, #4]
 8004a2a:	60fb      	str	r3, [r7, #12]

  /* Set the MPS of the IN EP0 to 64 bytes */
  USBx_INEP(0U)->DIEPCTL &= ~USB_OTG_DIEPCTL_MPSIZ;
 8004a2c:	68fb      	ldr	r3, [r7, #12]
 8004a2e:	f503 6310 	add.w	r3, r3, #2304	; 0x900
 8004a32:	681b      	ldr	r3, [r3, #0]
 8004a34:	68fa      	ldr	r2, [r7, #12]
 8004a36:	f502 6210 	add.w	r2, r2, #2304	; 0x900
 8004a3a:	f423 63ff 	bic.w	r3, r3, #2040	; 0x7f8
 8004a3e:	f023 0307 	bic.w	r3, r3, #7
 8004a42:	6013      	str	r3, [r2, #0]

  USBx_DEVICE->DCTL |= USB_OTG_DCTL_CGINAK;
 8004a44:	68fb      	ldr	r3, [r7, #12]
 8004a46:	f503 6300 	add.w	r3, r3, #2048	; 0x800
 8004a4a:	685b      	ldr	r3, [r3, #4]
 8004a4c:	68fa      	ldr	r2, [r7, #12]
 8004a4e:	f502 6200 	add.w	r2, r2, #2048	; 0x800
 8004a52:	f443 7380 	orr.w	r3, r3, #256	; 0x100
 8004a56:	6053      	str	r3, [r2, #4]

  return HAL_OK;
 8004a58:	2300      	movs	r3, #0
}
 8004a5a:	4618      	mov	r0, r3
 8004a5c:	3714      	adds	r7, #20
 8004a5e:	46bd      	mov	sp, r7
 8004a60:	f85d 7b04 	ldr.w	r7, [sp], #4
 8004a64:	4770      	bx	lr
	...

08004a68 <USB_EP0_OutStart>:
  *           1 : DMA feature used
  * @param  psetup  pointer to setup packet
  * @retval HAL status
  */
HAL_StatusTypeDef USB_EP0_OutStart(USB_OTG_GlobalTypeDef *USBx, uint8_t dma, uint8_t *psetup)
{
 8004a68:	b480      	push	{r7}
 8004a6a:	b087      	sub	sp, #28
 8004a6c:	af00      	add	r7, sp, #0
 8004a6e:	60f8      	str	r0, [r7, #12]
 8004a70:	460b      	mov	r3, r1
 8004a72:	607a      	str	r2, [r7, #4]
 8004a74:	72fb      	strb	r3, [r7, #11]
  uint32_t USBx_BASE = (uint32_t)USBx;
 8004a76:	68fb      	ldr	r3, [r7, #12]
 8004a78:	617b      	str	r3, [r7, #20]
  uint32_t gSNPSiD = *(__IO uint32_t *)(&USBx->CID + 0x1U);
 8004a7a:	68fb      	ldr	r3, [r7, #12]
 8004a7c:	333c      	adds	r3, #60	; 0x3c
 8004a7e:	3304      	adds	r3, #4
 8004a80:	681b      	ldr	r3, [r3, #0]
 8004a82:	613b      	str	r3, [r7, #16]

  if (gSNPSiD > USB_OTG_CORE_ID_300A)
 8004a84:	693b      	ldr	r3, [r7, #16]
 8004a86:	4a26      	ldr	r2, [pc, #152]	; (8004b20 <USB_EP0_OutStart+0xb8>)
 8004a88:	4293      	cmp	r3, r2
 8004a8a:	d90a      	bls.n	8004aa2 <USB_EP0_OutStart+0x3a>
  {
    if ((USBx_OUTEP(0U)->DOEPCTL & USB_OTG_DOEPCTL_EPENA) == USB_OTG_DOEPCTL_EPENA)
 8004a8c:	697b      	ldr	r3, [r7, #20]
 8004a8e:	f503 6330 	add.w	r3, r3, #2816	; 0xb00
 8004a92:	681b      	ldr	r3, [r3, #0]
 8004a94:	f003 4300 	and.w	r3, r3, #2147483648	; 0x80000000
 8004a98:	f1b3 4f00 	cmp.w	r3, #2147483648	; 0x80000000
 8004a9c:	d101      	bne.n	8004aa2 <USB_EP0_OutStart+0x3a>
    {
      return HAL_OK;
 8004a9e:	2300      	movs	r3, #0
 8004aa0:	e037      	b.n	8004b12 <USB_EP0_OutStart+0xaa>
    }
  }

  USBx_OUTEP(0U)->DOEPTSIZ = 0U;
 8004aa2:	697b      	ldr	r3, [r7, #20]
 8004aa4:	f503 6330 	add.w	r3, r3, #2816	; 0xb00
 8004aa8:	461a      	mov	r2, r3
 8004aaa:	2300      	movs	r3, #0
 8004aac:	6113      	str	r3, [r2, #16]
  USBx_OUTEP(0U)->DOEPTSIZ |= (USB_OTG_DOEPTSIZ_PKTCNT & (1U << 19));
 8004aae:	697b      	ldr	r3, [r7, #20]
 8004ab0:	f503 6330 	add.w	r3, r3, #2816	; 0xb00
 8004ab4:	691b      	ldr	r3, [r3, #16]
 8004ab6:	697a      	ldr	r2, [r7, #20]
 8004ab8:	f502 6230 	add.w	r2, r2, #2816	; 0xb00
 8004abc:	f443 2300 	orr.w	r3, r3, #524288	; 0x80000
 8004ac0:	6113      	str	r3, [r2, #16]
  USBx_OUTEP(0U)->DOEPTSIZ |= (3U * 8U);
 8004ac2:	697b      	ldr	r3, [r7, #20]
 8004ac4:	f503 6330 	add.w	r3, r3, #2816	; 0xb00
 8004ac8:	691b      	ldr	r3, [r3, #16]
 8004aca:	697a      	ldr	r2, [r7, #20]
 8004acc:	f502 6230 	add.w	r2, r2, #2816	; 0xb00
 8004ad0:	f043 0318 	orr.w	r3, r3, #24
 8004ad4:	6113      	str	r3, [r2, #16]
  USBx_OUTEP(0U)->DOEPTSIZ |=  USB_OTG_DOEPTSIZ_STUPCNT;
 8004ad6:	697b      	ldr	r3, [r7, #20]
 8004ad8:	f503 6330 	add.w	r3, r3, #2816	; 0xb00
 8004adc:	691b      	ldr	r3, [r3, #16]
 8004ade:	697a      	ldr	r2, [r7, #20]
 8004ae0:	f502 6230 	add.w	r2, r2, #2816	; 0xb00
 8004ae4:	f043 43c0 	orr.w	r3, r3, #1610612736	; 0x60000000
 8004ae8:	6113      	str	r3, [r2, #16]

  if (dma == 1U)
 8004aea:	7afb      	ldrb	r3, [r7, #11]
 8004aec:	2b01      	cmp	r3, #1
 8004aee:	d10f      	bne.n	8004b10 <USB_EP0_OutStart+0xa8>
  {
    USBx_OUTEP(0U)->DOEPDMA = (uint32_t)psetup;
 8004af0:	697b      	ldr	r3, [r7, #20]
 8004af2:	f503 6330 	add.w	r3, r3, #2816	; 0xb00
 8004af6:	461a      	mov	r2, r3
 8004af8:	687b      	ldr	r3, [r7, #4]
 8004afa:	6153      	str	r3, [r2, #20]
    /* EP enable */
    USBx_OUTEP(0U)->DOEPCTL |= USB_OTG_DOEPCTL_EPENA | USB_OTG_DOEPCTL_USBAEP;
 8004afc:	697b      	ldr	r3, [r7, #20]
 8004afe:	f503 6330 	add.w	r3, r3, #2816	; 0xb00
 8004b02:	681b      	ldr	r3, [r3, #0]
 8004b04:	697a      	ldr	r2, [r7, #20]
 8004b06:	f502 6230 	add.w	r2, r2, #2816	; 0xb00
 8004b0a:	f043 2380 	orr.w	r3, r3, #2147516416	; 0x80008000
 8004b0e:	6013      	str	r3, [r2, #0]
  }

  return HAL_OK;
 8004b10:	2300      	movs	r3, #0
}
 8004b12:	4618      	mov	r0, r3
 8004b14:	371c      	adds	r7, #28
 8004b16:	46bd      	mov	sp, r7
 8004b18:	f85d 7b04 	ldr.w	r7, [sp], #4
 8004b1c:	4770      	bx	lr
 8004b1e:	bf00      	nop
 8004b20:	4f54300a 	.word	0x4f54300a

08004b24 <USB_CoreReset>:
  * @brief  Reset the USB Core (needed after USB clock settings change)
  * @param  USBx  Selected device
  * @retval HAL status
  */
static HAL_StatusTypeDef USB_CoreReset(USB_OTG_GlobalTypeDef *USBx)
{
 8004b24:	b480      	push	{r7}
 8004b26:	b085      	sub	sp, #20
 8004b28:	af00      	add	r7, sp, #0
 8004b2a:	6078      	str	r0, [r7, #4]
  uint32_t count = 0U;
 8004b2c:	2300      	movs	r3, #0
 8004b2e:	60fb      	str	r3, [r7, #12]

  /* Wait for AHB master IDLE state. */
  do
  {
    if (++count > 200000U)
 8004b30:	68fb      	ldr	r3, [r7, #12]
 8004b32:	3301      	adds	r3, #1
 8004b34:	60fb      	str	r3, [r7, #12]
 8004b36:	68fb      	ldr	r3, [r7, #12]
 8004b38:	4a13      	ldr	r2, [pc, #76]	; (8004b88 <USB_CoreReset+0x64>)
 8004b3a:	4293      	cmp	r3, r2
 8004b3c:	d901      	bls.n	8004b42 <USB_CoreReset+0x1e>
    {
      return HAL_TIMEOUT;
 8004b3e:	2303      	movs	r3, #3
 8004b40:	e01b      	b.n	8004b7a <USB_CoreReset+0x56>
    }
  } while ((USBx->GRSTCTL & USB_OTG_GRSTCTL_AHBIDL) == 0U);
 8004b42:	687b      	ldr	r3, [r7, #4]
 8004b44:	691b      	ldr	r3, [r3, #16]
 8004b46:	2b00      	cmp	r3, #0
 8004b48:	daf2      	bge.n	8004b30 <USB_CoreReset+0xc>

  /* Core Soft Reset */
  count = 0U;
 8004b4a:	2300      	movs	r3, #0
 8004b4c:	60fb      	str	r3, [r7, #12]
  USBx->GRSTCTL |= USB_OTG_GRSTCTL_CSRST;
 8004b4e:	687b      	ldr	r3, [r7, #4]
 8004b50:	691b      	ldr	r3, [r3, #16]
 8004b52:	f043 0201 	orr.w	r2, r3, #1
 8004b56:	687b      	ldr	r3, [r7, #4]
 8004b58:	611a      	str	r2, [r3, #16]

  do
  {
    if (++count > 200000U)
 8004b5a:	68fb      	ldr	r3, [r7, #12]
 8004b5c:	3301      	adds	r3, #1
 8004b5e:	60fb      	str	r3, [r7, #12]
 8004b60:	68fb      	ldr	r3, [r7, #12]
 8004b62:	4a09      	ldr	r2, [pc, #36]	; (8004b88 <USB_CoreReset+0x64>)
 8004b64:	4293      	cmp	r3, r2
 8004b66:	d901      	bls.n	8004b6c <USB_CoreReset+0x48>
    {
      return HAL_TIMEOUT;
 8004b68:	2303      	movs	r3, #3
 8004b6a:	e006      	b.n	8004b7a <USB_CoreReset+0x56>
    }
  } while ((USBx->GRSTCTL & USB_OTG_GRSTCTL_CSRST) == USB_OTG_GRSTCTL_CSRST);
 8004b6c:	687b      	ldr	r3, [r7, #4]
 8004b6e:	691b      	ldr	r3, [r3, #16]
 8004b70:	f003 0301 	and.w	r3, r3, #1
 8004b74:	2b01      	cmp	r3, #1
 8004b76:	d0f0      	beq.n	8004b5a <USB_CoreReset+0x36>

  return HAL_OK;
 8004b78:	2300      	movs	r3, #0
}
 8004b7a:	4618      	mov	r0, r3
 8004b7c:	3714      	adds	r7, #20
 8004b7e:	46bd      	mov	sp, r7
 8004b80:	f85d 7b04 	ldr.w	r7, [sp], #4
 8004b84:	4770      	bx	lr
 8004b86:	bf00      	nop
 8004b88:	00030d40 	.word	0x00030d40

08004b8c <USBD_CDC_Init>:
  * @param  pdev: device instance
  * @param  cfgidx: Configuration index
  * @retval status
  */
static uint8_t USBD_CDC_Init(USBD_HandleTypeDef *pdev, uint8_t cfgidx)
{
 8004b8c:	b580      	push	{r7, lr}
 8004b8e:	b084      	sub	sp, #16
 8004b90:	af00      	add	r7, sp, #0
 8004b92:	6078      	str	r0, [r7, #4]
 8004b94:	460b      	mov	r3, r1
 8004b96:	70fb      	strb	r3, [r7, #3]
  UNUSED(cfgidx);
  USBD_CDC_HandleTypeDef *hcdc;

  hcdc = USBD_malloc(sizeof(USBD_CDC_HandleTypeDef));
 8004b98:	f44f 7007 	mov.w	r0, #540	; 0x21c
 8004b9c:	f002 f982 	bl	8006ea4 <malloc>
 8004ba0:	4603      	mov	r3, r0
 8004ba2:	60fb      	str	r3, [r7, #12]

  if (hcdc == NULL)
 8004ba4:	68fb      	ldr	r3, [r7, #12]
 8004ba6:	2b00      	cmp	r3, #0
 8004ba8:	d105      	bne.n	8004bb6 <USBD_CDC_Init+0x2a>
  {
    pdev->pClassData = NULL;
 8004baa:	687b      	ldr	r3, [r7, #4]
 8004bac:	2200      	movs	r2, #0
 8004bae:	f8c3 22bc 	str.w	r2, [r3, #700]	; 0x2bc
    return (uint8_t)USBD_EMEM;
 8004bb2:	2302      	movs	r3, #2
 8004bb4:	e066      	b.n	8004c84 <USBD_CDC_Init+0xf8>
  }

  pdev->pClassData = (void *)hcdc;
 8004bb6:	687b      	ldr	r3, [r7, #4]
 8004bb8:	68fa      	ldr	r2, [r7, #12]
 8004bba:	f8c3 22bc 	str.w	r2, [r3, #700]	; 0x2bc

  if (pdev->dev_speed == USBD_SPEED_HIGH)
 8004bbe:	687b      	ldr	r3, [r7, #4]
 8004bc0:	7c1b      	ldrb	r3, [r3, #16]
 8004bc2:	2b00      	cmp	r3, #0
 8004bc4:	d119      	bne.n	8004bfa <USBD_CDC_Init+0x6e>
  {
    /* Open EP IN */
    (void)USBD_LL_OpenEP(pdev, CDC_IN_EP, USBD_EP_TYPE_BULK,
 8004bc6:	f44f 7300 	mov.w	r3, #512	; 0x200
 8004bca:	2202      	movs	r2, #2
 8004bcc:	2181      	movs	r1, #129	; 0x81
 8004bce:	6878      	ldr	r0, [r7, #4]
 8004bd0:	f001 ffef 	bl	8006bb2 <USBD_LL_OpenEP>
                         CDC_DATA_HS_IN_PACKET_SIZE);

     pdev->ep_in[CDC_IN_EP & 0xFU].is_used = 1U;
 8004bd4:	687b      	ldr	r3, [r7, #4]
 8004bd6:	2201      	movs	r2, #1
 8004bd8:	871a      	strh	r2, [r3, #56]	; 0x38

     /* Open EP OUT */
     (void)USBD_LL_OpenEP(pdev, CDC_OUT_EP, USBD_EP_TYPE_BULK,
 8004bda:	f44f 7300 	mov.w	r3, #512	; 0x200
 8004bde:	2202      	movs	r2, #2
 8004be0:	2101      	movs	r1, #1
 8004be2:	6878      	ldr	r0, [r7, #4]
 8004be4:	f001 ffe5 	bl	8006bb2 <USBD_LL_OpenEP>
                          CDC_DATA_HS_OUT_PACKET_SIZE);

      pdev->ep_out[CDC_OUT_EP & 0xFU].is_used = 1U;
 8004be8:	687b      	ldr	r3, [r7, #4]
 8004bea:	2201      	movs	r2, #1
 8004bec:	f8a3 2178 	strh.w	r2, [r3, #376]	; 0x178

      /* Set bInterval for CDC CMD Endpoint */
      pdev->ep_in[CDC_CMD_EP & 0xFU].bInterval = CDC_HS_BINTERVAL;
 8004bf0:	687b      	ldr	r3, [r7, #4]
 8004bf2:	2210      	movs	r2, #16
 8004bf4:	f8a3 204e 	strh.w	r2, [r3, #78]	; 0x4e
 8004bf8:	e016      	b.n	8004c28 <USBD_CDC_Init+0x9c>
  }
  else
  {
    /* Open EP IN */
    (void)USBD_LL_OpenEP(pdev, CDC_IN_EP, USBD_EP_TYPE_BULK,
 8004bfa:	2340      	movs	r3, #64	; 0x40
 8004bfc:	2202      	movs	r2, #2
 8004bfe:	2181      	movs	r1, #129	; 0x81
 8004c00:	6878      	ldr	r0, [r7, #4]
 8004c02:	f001 ffd6 	bl	8006bb2 <USBD_LL_OpenEP>
                         CDC_DATA_FS_IN_PACKET_SIZE);

     pdev->ep_in[CDC_IN_EP & 0xFU].is_used = 1U;
 8004c06:	687b      	ldr	r3, [r7, #4]
 8004c08:	2201      	movs	r2, #1
 8004c0a:	871a      	strh	r2, [r3, #56]	; 0x38

     /* Open EP OUT */
     (void)USBD_LL_OpenEP(pdev, CDC_OUT_EP, USBD_EP_TYPE_BULK,
 8004c0c:	2340      	movs	r3, #64	; 0x40
 8004c0e:	2202      	movs	r2, #2
 8004c10:	2101      	movs	r1, #1
 8004c12:	6878      	ldr	r0, [r7, #4]
 8004c14:	f001 ffcd 	bl	8006bb2 <USBD_LL_OpenEP>
                          CDC_DATA_FS_OUT_PACKET_SIZE);

      pdev->ep_out[CDC_OUT_EP & 0xFU].is_used = 1U;
 8004c18:	687b      	ldr	r3, [r7, #4]
 8004c1a:	2201      	movs	r2, #1
 8004c1c:	f8a3 2178 	strh.w	r2, [r3, #376]	; 0x178

      /* Set bInterval for CMD Endpoint */
      pdev->ep_in[CDC_CMD_EP & 0xFU].bInterval = CDC_FS_BINTERVAL;
 8004c20:	687b      	ldr	r3, [r7, #4]
 8004c22:	2210      	movs	r2, #16
 8004c24:	f8a3 204e 	strh.w	r2, [r3, #78]	; 0x4e
  }

  /* Open Command IN EP */
  (void)USBD_LL_OpenEP(pdev, CDC_CMD_EP, USBD_EP_TYPE_INTR, CDC_CMD_PACKET_SIZE);
 8004c28:	2308      	movs	r3, #8
 8004c2a:	2203      	movs	r2, #3
 8004c2c:	2182      	movs	r1, #130	; 0x82
 8004c2e:	6878      	ldr	r0, [r7, #4]
 8004c30:	f001 ffbf 	bl	8006bb2 <USBD_LL_OpenEP>
  pdev->ep_in[CDC_CMD_EP & 0xFU].is_used = 1U;
 8004c34:	687b      	ldr	r3, [r7, #4]
 8004c36:	2201      	movs	r2, #1
 8004c38:	f8a3 204c 	strh.w	r2, [r3, #76]	; 0x4c

  /* Init  physical Interface components */
  ((USBD_CDC_ItfTypeDef *)pdev->pUserData)->Init();
 8004c3c:	687b      	ldr	r3, [r7, #4]
 8004c3e:	f8d3 32c0 	ldr.w	r3, [r3, #704]	; 0x2c0
 8004c42:	681b      	ldr	r3, [r3, #0]
 8004c44:	4798      	blx	r3

  /* Init Xfer states */
  hcdc->TxState = 0U;
 8004c46:	68fb      	ldr	r3, [r7, #12]
 8004c48:	2200      	movs	r2, #0
 8004c4a:	f8c3 2214 	str.w	r2, [r3, #532]	; 0x214
  hcdc->RxState = 0U;
 8004c4e:	68fb      	ldr	r3, [r7, #12]
 8004c50:	2200      	movs	r2, #0
 8004c52:	f8c3 2218 	str.w	r2, [r3, #536]	; 0x218

  if (pdev->dev_speed == USBD_SPEED_HIGH)
 8004c56:	687b      	ldr	r3, [r7, #4]
 8004c58:	7c1b      	ldrb	r3, [r3, #16]
 8004c5a:	2b00      	cmp	r3, #0
 8004c5c:	d109      	bne.n	8004c72 <USBD_CDC_Init+0xe6>
  {
    /* Prepare Out endpoint to receive next packet */
    (void)USBD_LL_PrepareReceive(pdev, CDC_OUT_EP, hcdc->RxBuffer,
 8004c5e:	68fb      	ldr	r3, [r7, #12]
 8004c60:	f8d3 2204 	ldr.w	r2, [r3, #516]	; 0x204
 8004c64:	f44f 7300 	mov.w	r3, #512	; 0x200
 8004c68:	2101      	movs	r1, #1
 8004c6a:	6878      	ldr	r0, [r7, #4]
 8004c6c:	f002 f890 	bl	8006d90 <USBD_LL_PrepareReceive>
 8004c70:	e007      	b.n	8004c82 <USBD_CDC_Init+0xf6>
                                 CDC_DATA_HS_OUT_PACKET_SIZE);
  }
  else
  {
    /* Prepare Out endpoint to receive next packet */
    (void)USBD_LL_PrepareReceive(pdev, CDC_OUT_EP, hcdc->RxBuffer,
 8004c72:	68fb      	ldr	r3, [r7, #12]
 8004c74:	f8d3 2204 	ldr.w	r2, [r3, #516]	; 0x204
 8004c78:	2340      	movs	r3, #64	; 0x40
 8004c7a:	2101      	movs	r1, #1
 8004c7c:	6878      	ldr	r0, [r7, #4]
 8004c7e:	f002 f887 	bl	8006d90 <USBD_LL_PrepareReceive>
                                 CDC_DATA_FS_OUT_PACKET_SIZE);
  }

  return (uint8_t)USBD_OK;
 8004c82:	2300      	movs	r3, #0
}
 8004c84:	4618      	mov	r0, r3
 8004c86:	3710      	adds	r7, #16
 8004c88:	46bd      	mov	sp, r7
 8004c8a:	bd80      	pop	{r7, pc}

08004c8c <USBD_CDC_DeInit>:
  * @param  pdev: device instance
  * @param  cfgidx: Configuration index
  * @retval status
  */
static uint8_t USBD_CDC_DeInit(USBD_HandleTypeDef *pdev, uint8_t cfgidx)
{
 8004c8c:	b580      	push	{r7, lr}
 8004c8e:	b084      	sub	sp, #16
 8004c90:	af00      	add	r7, sp, #0
 8004c92:	6078      	str	r0, [r7, #4]
 8004c94:	460b      	mov	r3, r1
 8004c96:	70fb      	strb	r3, [r7, #3]
  UNUSED(cfgidx);
  uint8_t ret = 0U;
 8004c98:	2300      	movs	r3, #0
 8004c9a:	73fb      	strb	r3, [r7, #15]

  /* Close EP IN */
  (void)USBD_LL_CloseEP(pdev, CDC_IN_EP);
 8004c9c:	2181      	movs	r1, #129	; 0x81
 8004c9e:	6878      	ldr	r0, [r7, #4]
 8004ca0:	f001 ffad 	bl	8006bfe <USBD_LL_CloseEP>
  pdev->ep_in[CDC_IN_EP & 0xFU].is_used = 0U;
 8004ca4:	687b      	ldr	r3, [r7, #4]
 8004ca6:	2200      	movs	r2, #0
 8004ca8:	871a      	strh	r2, [r3, #56]	; 0x38

  /* Close EP OUT */
  (void)USBD_LL_CloseEP(pdev, CDC_OUT_EP);
 8004caa:	2101      	movs	r1, #1
 8004cac:	6878      	ldr	r0, [r7, #4]
 8004cae:	f001 ffa6 	bl	8006bfe <USBD_LL_CloseEP>
  pdev->ep_out[CDC_OUT_EP & 0xFU].is_used = 0U;
 8004cb2:	687b      	ldr	r3, [r7, #4]
 8004cb4:	2200      	movs	r2, #0
 8004cb6:	f8a3 2178 	strh.w	r2, [r3, #376]	; 0x178

  /* Close Command IN EP */
  (void)USBD_LL_CloseEP(pdev, CDC_CMD_EP);
 8004cba:	2182      	movs	r1, #130	; 0x82
 8004cbc:	6878      	ldr	r0, [r7, #4]
 8004cbe:	f001 ff9e 	bl	8006bfe <USBD_LL_CloseEP>
  pdev->ep_in[CDC_CMD_EP & 0xFU].is_used = 0U;
 8004cc2:	687b      	ldr	r3, [r7, #4]
 8004cc4:	2200      	movs	r2, #0
 8004cc6:	f8a3 204c 	strh.w	r2, [r3, #76]	; 0x4c
  pdev->ep_in[CDC_CMD_EP & 0xFU].bInterval = 0U;
 8004cca:	687b      	ldr	r3, [r7, #4]
 8004ccc:	2200      	movs	r2, #0
 8004cce:	f8a3 204e 	strh.w	r2, [r3, #78]	; 0x4e

  /* DeInit  physical Interface components */
  if (pdev->pClassData != NULL)
 8004cd2:	687b      	ldr	r3, [r7, #4]
 8004cd4:	f8d3 32bc 	ldr.w	r3, [r3, #700]	; 0x2bc
 8004cd8:	2b00      	cmp	r3, #0
 8004cda:	d00e      	beq.n	8004cfa <USBD_CDC_DeInit+0x6e>
  {
    ((USBD_CDC_ItfTypeDef *)pdev->pUserData)->DeInit();
 8004cdc:	687b      	ldr	r3, [r7, #4]
 8004cde:	f8d3 32c0 	ldr.w	r3, [r3, #704]	; 0x2c0
 8004ce2:	685b      	ldr	r3, [r3, #4]
 8004ce4:	4798      	blx	r3
    (void)USBD_free(pdev->pClassData);
 8004ce6:	687b      	ldr	r3, [r7, #4]
 8004ce8:	f8d3 32bc 	ldr.w	r3, [r3, #700]	; 0x2bc
 8004cec:	4618      	mov	r0, r3
 8004cee:	f002 f8e1 	bl	8006eb4 <free>
    pdev->pClassData = NULL;
 8004cf2:	687b      	ldr	r3, [r7, #4]
 8004cf4:	2200      	movs	r2, #0
 8004cf6:	f8c3 22bc 	str.w	r2, [r3, #700]	; 0x2bc
  }

  return ret;
 8004cfa:	7bfb      	ldrb	r3, [r7, #15]
}
 8004cfc:	4618      	mov	r0, r3
 8004cfe:	3710      	adds	r7, #16
 8004d00:	46bd      	mov	sp, r7
 8004d02:	bd80      	pop	{r7, pc}

08004d04 <USBD_CDC_Setup>:
  * @param  req: usb requests
  * @retval status
  */
static uint8_t USBD_CDC_Setup(USBD_HandleTypeDef *pdev,
                              USBD_SetupReqTypedef *req)
{
 8004d04:	b580      	push	{r7, lr}
 8004d06:	b086      	sub	sp, #24
 8004d08:	af00      	add	r7, sp, #0
 8004d0a:	6078      	str	r0, [r7, #4]
 8004d0c:	6039      	str	r1, [r7, #0]
  USBD_CDC_HandleTypeDef *hcdc = (USBD_CDC_HandleTypeDef *)pdev->pClassData;
 8004d0e:	687b      	ldr	r3, [r7, #4]
 8004d10:	f8d3 32bc 	ldr.w	r3, [r3, #700]	; 0x2bc
 8004d14:	613b      	str	r3, [r7, #16]
  uint8_t ifalt = 0U;
 8004d16:	2300      	movs	r3, #0
 8004d18:	73fb      	strb	r3, [r7, #15]
  uint16_t status_info = 0U;
 8004d1a:	2300      	movs	r3, #0
 8004d1c:	81bb      	strh	r3, [r7, #12]
  USBD_StatusTypeDef ret = USBD_OK;
 8004d1e:	2300      	movs	r3, #0
 8004d20:	75fb      	strb	r3, [r7, #23]

  switch (req->bmRequest & USB_REQ_TYPE_MASK)
 8004d22:	683b      	ldr	r3, [r7, #0]
 8004d24:	781b      	ldrb	r3, [r3, #0]
 8004d26:	f003 0360 	and.w	r3, r3, #96	; 0x60
 8004d2a:	2b00      	cmp	r3, #0
 8004d2c:	d03a      	beq.n	8004da4 <USBD_CDC_Setup+0xa0>
 8004d2e:	2b20      	cmp	r3, #32
 8004d30:	f040 8097 	bne.w	8004e62 <USBD_CDC_Setup+0x15e>
  {
  case USB_REQ_TYPE_CLASS:
    if (req->wLength != 0U)
 8004d34:	683b      	ldr	r3, [r7, #0]
 8004d36:	88db      	ldrh	r3, [r3, #6]
 8004d38:	2b00      	cmp	r3, #0
 8004d3a:	d029      	beq.n	8004d90 <USBD_CDC_Setup+0x8c>
    {
      if ((req->bmRequest & 0x80U) != 0U)
 8004d3c:	683b      	ldr	r3, [r7, #0]
 8004d3e:	781b      	ldrb	r3, [r3, #0]
 8004d40:	b25b      	sxtb	r3, r3
 8004d42:	2b00      	cmp	r3, #0
 8004d44:	da11      	bge.n	8004d6a <USBD_CDC_Setup+0x66>
      {
        ((USBD_CDC_ItfTypeDef *)pdev->pUserData)->Control(req->bRequest,
 8004d46:	687b      	ldr	r3, [r7, #4]
 8004d48:	f8d3 32c0 	ldr.w	r3, [r3, #704]	; 0x2c0
 8004d4c:	689b      	ldr	r3, [r3, #8]
 8004d4e:	683a      	ldr	r2, [r7, #0]
 8004d50:	7850      	ldrb	r0, [r2, #1]
                                                          (uint8_t *)hcdc->data,
 8004d52:	6939      	ldr	r1, [r7, #16]
        ((USBD_CDC_ItfTypeDef *)pdev->pUserData)->Control(req->bRequest,
 8004d54:	683a      	ldr	r2, [r7, #0]
 8004d56:	88d2      	ldrh	r2, [r2, #6]
 8004d58:	4798      	blx	r3
                                                          req->wLength);

          (void)USBD_CtlSendData(pdev, (uint8_t *)hcdc->data, req->wLength);
 8004d5a:	6939      	ldr	r1, [r7, #16]
 8004d5c:	683b      	ldr	r3, [r7, #0]
 8004d5e:	88db      	ldrh	r3, [r3, #6]
 8004d60:	461a      	mov	r2, r3
 8004d62:	6878      	ldr	r0, [r7, #4]
 8004d64:	f001 fa9d 	bl	80062a2 <USBD_CtlSendData>
    else
    {
      ((USBD_CDC_ItfTypeDef *)pdev->pUserData)->Control(req->bRequest,
                                                        (uint8_t *)req, 0U);
    }
    break;
 8004d68:	e082      	b.n	8004e70 <USBD_CDC_Setup+0x16c>
        hcdc->CmdOpCode = req->bRequest;
 8004d6a:	683b      	ldr	r3, [r7, #0]
 8004d6c:	785a      	ldrb	r2, [r3, #1]
 8004d6e:	693b      	ldr	r3, [r7, #16]
 8004d70:	f883 2200 	strb.w	r2, [r3, #512]	; 0x200
        hcdc->CmdLength = (uint8_t)req->wLength;
 8004d74:	683b      	ldr	r3, [r7, #0]
 8004d76:	88db      	ldrh	r3, [r3, #6]
 8004d78:	b2da      	uxtb	r2, r3
 8004d7a:	693b      	ldr	r3, [r7, #16]
 8004d7c:	f883 2201 	strb.w	r2, [r3, #513]	; 0x201
        (void)USBD_CtlPrepareRx(pdev, (uint8_t *)hcdc->data, req->wLength);
 8004d80:	6939      	ldr	r1, [r7, #16]
 8004d82:	683b      	ldr	r3, [r7, #0]
 8004d84:	88db      	ldrh	r3, [r3, #6]
 8004d86:	461a      	mov	r2, r3
 8004d88:	6878      	ldr	r0, [r7, #4]
 8004d8a:	f001 fab6 	bl	80062fa <USBD_CtlPrepareRx>
    break;
 8004d8e:	e06f      	b.n	8004e70 <USBD_CDC_Setup+0x16c>
      ((USBD_CDC_ItfTypeDef *)pdev->pUserData)->Control(req->bRequest,
 8004d90:	687b      	ldr	r3, [r7, #4]
 8004d92:	f8d3 32c0 	ldr.w	r3, [r3, #704]	; 0x2c0
 8004d96:	689b      	ldr	r3, [r3, #8]
 8004d98:	683a      	ldr	r2, [r7, #0]
 8004d9a:	7850      	ldrb	r0, [r2, #1]
 8004d9c:	2200      	movs	r2, #0
 8004d9e:	6839      	ldr	r1, [r7, #0]
 8004da0:	4798      	blx	r3
    break;
 8004da2:	e065      	b.n	8004e70 <USBD_CDC_Setup+0x16c>

  case USB_REQ_TYPE_STANDARD:
    switch (req->bRequest)
 8004da4:	683b      	ldr	r3, [r7, #0]
 8004da6:	785b      	ldrb	r3, [r3, #1]
 8004da8:	2b0b      	cmp	r3, #11
 8004daa:	d84f      	bhi.n	8004e4c <USBD_CDC_Setup+0x148>
 8004dac:	a201      	add	r2, pc, #4	; (adr r2, 8004db4 <USBD_CDC_Setup+0xb0>)
 8004dae:	f852 f023 	ldr.w	pc, [r2, r3, lsl #2]
 8004db2:	bf00      	nop
 8004db4:	08004de5 	.word	0x08004de5
 8004db8:	08004e5b 	.word	0x08004e5b
 8004dbc:	08004e4d 	.word	0x08004e4d
 8004dc0:	08004e4d 	.word	0x08004e4d
 8004dc4:	08004e4d 	.word	0x08004e4d
 8004dc8:	08004e4d 	.word	0x08004e4d
 8004dcc:	08004e4d 	.word	0x08004e4d
 8004dd0:	08004e4d 	.word	0x08004e4d
 8004dd4:	08004e4d 	.word	0x08004e4d
 8004dd8:	08004e4d 	.word	0x08004e4d
 8004ddc:	08004e0d 	.word	0x08004e0d
 8004de0:	08004e35 	.word	0x08004e35
    {
    case USB_REQ_GET_STATUS:
      if (pdev->dev_state == USBD_STATE_CONFIGURED)
 8004de4:	687b      	ldr	r3, [r7, #4]
 8004de6:	f893 329c 	ldrb.w	r3, [r3, #668]	; 0x29c
 8004dea:	2b03      	cmp	r3, #3
 8004dec:	d107      	bne.n	8004dfe <USBD_CDC_Setup+0xfa>
      {
        (void)USBD_CtlSendData(pdev, (uint8_t *)&status_info, 2U);
 8004dee:	f107 030c 	add.w	r3, r7, #12
 8004df2:	2202      	movs	r2, #2
 8004df4:	4619      	mov	r1, r3
 8004df6:	6878      	ldr	r0, [r7, #4]
 8004df8:	f001 fa53 	bl	80062a2 <USBD_CtlSendData>
      else
      {
        USBD_CtlError(pdev, req);
        ret = USBD_FAIL;
      }
      break;
 8004dfc:	e030      	b.n	8004e60 <USBD_CDC_Setup+0x15c>
        USBD_CtlError(pdev, req);
 8004dfe:	6839      	ldr	r1, [r7, #0]
 8004e00:	6878      	ldr	r0, [r7, #4]
 8004e02:	f001 f9dd 	bl	80061c0 <USBD_CtlError>
        ret = USBD_FAIL;
 8004e06:	2303      	movs	r3, #3
 8004e08:	75fb      	strb	r3, [r7, #23]
      break;
 8004e0a:	e029      	b.n	8004e60 <USBD_CDC_Setup+0x15c>

    case USB_REQ_GET_INTERFACE:
      if (pdev->dev_state == USBD_STATE_CONFIGURED)
 8004e0c:	687b      	ldr	r3, [r7, #4]
 8004e0e:	f893 329c 	ldrb.w	r3, [r3, #668]	; 0x29c
 8004e12:	2b03      	cmp	r3, #3
 8004e14:	d107      	bne.n	8004e26 <USBD_CDC_Setup+0x122>
      {
        (void)USBD_CtlSendData(pdev, &ifalt, 1U);
 8004e16:	f107 030f 	add.w	r3, r7, #15
 8004e1a:	2201      	movs	r2, #1
 8004e1c:	4619      	mov	r1, r3
 8004e1e:	6878      	ldr	r0, [r7, #4]
 8004e20:	f001 fa3f 	bl	80062a2 <USBD_CtlSendData>
      else
      {
        USBD_CtlError(pdev, req);
        ret = USBD_FAIL;
      }
      break;
 8004e24:	e01c      	b.n	8004e60 <USBD_CDC_Setup+0x15c>
        USBD_CtlError(pdev, req);
 8004e26:	6839      	ldr	r1, [r7, #0]
 8004e28:	6878      	ldr	r0, [r7, #4]
 8004e2a:	f001 f9c9 	bl	80061c0 <USBD_CtlError>
        ret = USBD_FAIL;
 8004e2e:	2303      	movs	r3, #3
 8004e30:	75fb      	strb	r3, [r7, #23]
      break;
 8004e32:	e015      	b.n	8004e60 <USBD_CDC_Setup+0x15c>

    case USB_REQ_SET_INTERFACE:
      if (pdev->dev_state != USBD_STATE_CONFIGURED)
 8004e34:	687b      	ldr	r3, [r7, #4]
 8004e36:	f893 329c 	ldrb.w	r3, [r3, #668]	; 0x29c
 8004e3a:	2b03      	cmp	r3, #3
 8004e3c:	d00f      	beq.n	8004e5e <USBD_CDC_Setup+0x15a>
      {
        USBD_CtlError(pdev, req);
 8004e3e:	6839      	ldr	r1, [r7, #0]
 8004e40:	6878      	ldr	r0, [r7, #4]
 8004e42:	f001 f9bd 	bl	80061c0 <USBD_CtlError>
        ret = USBD_FAIL;
 8004e46:	2303      	movs	r3, #3
 8004e48:	75fb      	strb	r3, [r7, #23]
      }
      break;
 8004e4a:	e008      	b.n	8004e5e <USBD_CDC_Setup+0x15a>

    case USB_REQ_CLEAR_FEATURE:
      break;

    default:
      USBD_CtlError(pdev, req);
 8004e4c:	6839      	ldr	r1, [r7, #0]
 8004e4e:	6878      	ldr	r0, [r7, #4]
 8004e50:	f001 f9b6 	bl	80061c0 <USBD_CtlError>
      ret = USBD_FAIL;
 8004e54:	2303      	movs	r3, #3
 8004e56:	75fb      	strb	r3, [r7, #23]
      break;
 8004e58:	e002      	b.n	8004e60 <USBD_CDC_Setup+0x15c>
      break;
 8004e5a:	bf00      	nop
 8004e5c:	e008      	b.n	8004e70 <USBD_CDC_Setup+0x16c>
      break;
 8004e5e:	bf00      	nop
    }
    break;
 8004e60:	e006      	b.n	8004e70 <USBD_CDC_Setup+0x16c>

  default:
    USBD_CtlError(pdev, req);
 8004e62:	6839      	ldr	r1, [r7, #0]
 8004e64:	6878      	ldr	r0, [r7, #4]
 8004e66:	f001 f9ab 	bl	80061c0 <USBD_CtlError>
    ret = USBD_FAIL;
 8004e6a:	2303      	movs	r3, #3
 8004e6c:	75fb      	strb	r3, [r7, #23]
    break;
 8004e6e:	bf00      	nop
  }

  return (uint8_t)ret;
 8004e70:	7dfb      	ldrb	r3, [r7, #23]
}
 8004e72:	4618      	mov	r0, r3
 8004e74:	3718      	adds	r7, #24
 8004e76:	46bd      	mov	sp, r7
 8004e78:	bd80      	pop	{r7, pc}
 8004e7a:	bf00      	nop

08004e7c <USBD_CDC_DataIn>:
  * @param  pdev: device instance
  * @param  epnum: endpoint number
  * @retval status
  */
static uint8_t USBD_CDC_DataIn(USBD_HandleTypeDef *pdev, uint8_t epnum)
{
 8004e7c:	b580      	push	{r7, lr}
 8004e7e:	b084      	sub	sp, #16
 8004e80:	af00      	add	r7, sp, #0
 8004e82:	6078      	str	r0, [r7, #4]
 8004e84:	460b      	mov	r3, r1
 8004e86:	70fb      	strb	r3, [r7, #3]
  USBD_CDC_HandleTypeDef *hcdc;
  PCD_HandleTypeDef *hpcd = pdev->pData;
 8004e88:	687b      	ldr	r3, [r7, #4]
 8004e8a:	f8d3 32c4 	ldr.w	r3, [r3, #708]	; 0x2c4
 8004e8e:	60fb      	str	r3, [r7, #12]

  if (pdev->pClassData == NULL)
 8004e90:	687b      	ldr	r3, [r7, #4]
 8004e92:	f8d3 32bc 	ldr.w	r3, [r3, #700]	; 0x2bc
 8004e96:	2b00      	cmp	r3, #0
 8004e98:	d101      	bne.n	8004e9e <USBD_CDC_DataIn+0x22>
  {
    return (uint8_t)USBD_FAIL;
 8004e9a:	2303      	movs	r3, #3
 8004e9c:	e049      	b.n	8004f32 <USBD_CDC_DataIn+0xb6>
  }

  hcdc = (USBD_CDC_HandleTypeDef *)pdev->pClassData;
 8004e9e:	687b      	ldr	r3, [r7, #4]
 8004ea0:	f8d3 32bc 	ldr.w	r3, [r3, #700]	; 0x2bc
 8004ea4:	60bb      	str	r3, [r7, #8]

  if ((pdev->ep_in[epnum].total_length > 0U) &&
 8004ea6:	78fa      	ldrb	r2, [r7, #3]
 8004ea8:	6879      	ldr	r1, [r7, #4]
 8004eaa:	4613      	mov	r3, r2
 8004eac:	009b      	lsls	r3, r3, #2
 8004eae:	4413      	add	r3, r2
 8004eb0:	009b      	lsls	r3, r3, #2
 8004eb2:	440b      	add	r3, r1
 8004eb4:	3318      	adds	r3, #24
 8004eb6:	681b      	ldr	r3, [r3, #0]
 8004eb8:	2b00      	cmp	r3, #0
 8004eba:	d029      	beq.n	8004f10 <USBD_CDC_DataIn+0x94>
      ((pdev->ep_in[epnum].total_length % hpcd->IN_ep[epnum].maxpacket) == 0U))
 8004ebc:	78fa      	ldrb	r2, [r7, #3]
 8004ebe:	6879      	ldr	r1, [r7, #4]
 8004ec0:	4613      	mov	r3, r2
 8004ec2:	009b      	lsls	r3, r3, #2
 8004ec4:	4413      	add	r3, r2
 8004ec6:	009b      	lsls	r3, r3, #2
 8004ec8:	440b      	add	r3, r1
 8004eca:	3318      	adds	r3, #24
 8004ecc:	681a      	ldr	r2, [r3, #0]
 8004ece:	78f9      	ldrb	r1, [r7, #3]
 8004ed0:	68f8      	ldr	r0, [r7, #12]
 8004ed2:	460b      	mov	r3, r1
 8004ed4:	00db      	lsls	r3, r3, #3
 8004ed6:	1a5b      	subs	r3, r3, r1
 8004ed8:	009b      	lsls	r3, r3, #2
 8004eda:	4403      	add	r3, r0
 8004edc:	3344      	adds	r3, #68	; 0x44
 8004ede:	681b      	ldr	r3, [r3, #0]
 8004ee0:	fbb2 f1f3 	udiv	r1, r2, r3
 8004ee4:	fb03 f301 	mul.w	r3, r3, r1
 8004ee8:	1ad3      	subs	r3, r2, r3
  if ((pdev->ep_in[epnum].total_length > 0U) &&
 8004eea:	2b00      	cmp	r3, #0
 8004eec:	d110      	bne.n	8004f10 <USBD_CDC_DataIn+0x94>
  {
    /* Update the packet total length */
    pdev->ep_in[epnum].total_length = 0U;
 8004eee:	78fa      	ldrb	r2, [r7, #3]
 8004ef0:	6879      	ldr	r1, [r7, #4]
 8004ef2:	4613      	mov	r3, r2
 8004ef4:	009b      	lsls	r3, r3, #2
 8004ef6:	4413      	add	r3, r2
 8004ef8:	009b      	lsls	r3, r3, #2
 8004efa:	440b      	add	r3, r1
 8004efc:	3318      	adds	r3, #24
 8004efe:	2200      	movs	r2, #0
 8004f00:	601a      	str	r2, [r3, #0]

    /* Send ZLP */
    (void)USBD_LL_Transmit(pdev, epnum, NULL, 0U);
 8004f02:	78f9      	ldrb	r1, [r7, #3]
 8004f04:	2300      	movs	r3, #0
 8004f06:	2200      	movs	r2, #0
 8004f08:	6878      	ldr	r0, [r7, #4]
 8004f0a:	f001 ff20 	bl	8006d4e <USBD_LL_Transmit>
 8004f0e:	e00f      	b.n	8004f30 <USBD_CDC_DataIn+0xb4>
  }
  else
  {
    hcdc->TxState = 0U;
 8004f10:	68bb      	ldr	r3, [r7, #8]
 8004f12:	2200      	movs	r2, #0
 8004f14:	f8c3 2214 	str.w	r2, [r3, #532]	; 0x214
    ((USBD_CDC_ItfTypeDef *)pdev->pUserData)->TransmitCplt(hcdc->TxBuffer, &hcdc->TxLength, epnum);
 8004f18:	687b      	ldr	r3, [r7, #4]
 8004f1a:	f8d3 32c0 	ldr.w	r3, [r3, #704]	; 0x2c0
 8004f1e:	691b      	ldr	r3, [r3, #16]
 8004f20:	68ba      	ldr	r2, [r7, #8]
 8004f22:	f8d2 0208 	ldr.w	r0, [r2, #520]	; 0x208
 8004f26:	68ba      	ldr	r2, [r7, #8]
 8004f28:	f502 7104 	add.w	r1, r2, #528	; 0x210
 8004f2c:	78fa      	ldrb	r2, [r7, #3]
 8004f2e:	4798      	blx	r3
  }

  return (uint8_t)USBD_OK;
 8004f30:	2300      	movs	r3, #0
}
 8004f32:	4618      	mov	r0, r3
 8004f34:	3710      	adds	r7, #16
 8004f36:	46bd      	mov	sp, r7
 8004f38:	bd80      	pop	{r7, pc}

08004f3a <USBD_CDC_DataOut>:
  * @param  pdev: device instance
  * @param  epnum: endpoint number
  * @retval status
  */
static uint8_t USBD_CDC_DataOut(USBD_HandleTypeDef *pdev, uint8_t epnum)
{
 8004f3a:	b580      	push	{r7, lr}
 8004f3c:	b084      	sub	sp, #16
 8004f3e:	af00      	add	r7, sp, #0
 8004f40:	6078      	str	r0, [r7, #4]
 8004f42:	460b      	mov	r3, r1
 8004f44:	70fb      	strb	r3, [r7, #3]
  USBD_CDC_HandleTypeDef *hcdc = (USBD_CDC_HandleTypeDef *)pdev->pClassData;
 8004f46:	687b      	ldr	r3, [r7, #4]
 8004f48:	f8d3 32bc 	ldr.w	r3, [r3, #700]	; 0x2bc
 8004f4c:	60fb      	str	r3, [r7, #12]

  if (pdev->pClassData == NULL)
 8004f4e:	687b      	ldr	r3, [r7, #4]
 8004f50:	f8d3 32bc 	ldr.w	r3, [r3, #700]	; 0x2bc
 8004f54:	2b00      	cmp	r3, #0
 8004f56:	d101      	bne.n	8004f5c <USBD_CDC_DataOut+0x22>
  {
    return (uint8_t)USBD_FAIL;
 8004f58:	2303      	movs	r3, #3
 8004f5a:	e015      	b.n	8004f88 <USBD_CDC_DataOut+0x4e>
  }

  /* Get the received data length */
  hcdc->RxLength = USBD_LL_GetRxDataSize(pdev, epnum);
 8004f5c:	78fb      	ldrb	r3, [r7, #3]
 8004f5e:	4619      	mov	r1, r3
 8004f60:	6878      	ldr	r0, [r7, #4]
 8004f62:	f001 ff36 	bl	8006dd2 <USBD_LL_GetRxDataSize>
 8004f66:	4602      	mov	r2, r0
 8004f68:	68fb      	ldr	r3, [r7, #12]
 8004f6a:	f8c3 220c 	str.w	r2, [r3, #524]	; 0x20c

  /* USB data will be immediately processed, this allow next USB traffic being
  NAKed till the end of the application Xfer */

  ((USBD_CDC_ItfTypeDef *)pdev->pUserData)->Receive(hcdc->RxBuffer, &hcdc->RxLength);
 8004f6e:	687b      	ldr	r3, [r7, #4]
 8004f70:	f8d3 32c0 	ldr.w	r3, [r3, #704]	; 0x2c0
 8004f74:	68db      	ldr	r3, [r3, #12]
 8004f76:	68fa      	ldr	r2, [r7, #12]
 8004f78:	f8d2 0204 	ldr.w	r0, [r2, #516]	; 0x204
 8004f7c:	68fa      	ldr	r2, [r7, #12]
 8004f7e:	f502 7203 	add.w	r2, r2, #524	; 0x20c
 8004f82:	4611      	mov	r1, r2
 8004f84:	4798      	blx	r3

  return (uint8_t)USBD_OK;
 8004f86:	2300      	movs	r3, #0
}
 8004f88:	4618      	mov	r0, r3
 8004f8a:	3710      	adds	r7, #16
 8004f8c:	46bd      	mov	sp, r7
 8004f8e:	bd80      	pop	{r7, pc}

08004f90 <USBD_CDC_EP0_RxReady>:
  *         Handle EP0 Rx Ready event
  * @param  pdev: device instance
  * @retval status
  */
static uint8_t USBD_CDC_EP0_RxReady(USBD_HandleTypeDef *pdev)
{
 8004f90:	b580      	push	{r7, lr}
 8004f92:	b084      	sub	sp, #16
 8004f94:	af00      	add	r7, sp, #0
 8004f96:	6078      	str	r0, [r7, #4]
  USBD_CDC_HandleTypeDef *hcdc = (USBD_CDC_HandleTypeDef *)pdev->pClassData;
 8004f98:	687b      	ldr	r3, [r7, #4]
 8004f9a:	f8d3 32bc 	ldr.w	r3, [r3, #700]	; 0x2bc
 8004f9e:	60fb      	str	r3, [r7, #12]

  if ((pdev->pUserData != NULL) && (hcdc->CmdOpCode != 0xFFU))
 8004fa0:	687b      	ldr	r3, [r7, #4]
 8004fa2:	f8d3 32c0 	ldr.w	r3, [r3, #704]	; 0x2c0
 8004fa6:	2b00      	cmp	r3, #0
 8004fa8:	d015      	beq.n	8004fd6 <USBD_CDC_EP0_RxReady+0x46>
 8004faa:	68fb      	ldr	r3, [r7, #12]
 8004fac:	f893 3200 	ldrb.w	r3, [r3, #512]	; 0x200
 8004fb0:	2bff      	cmp	r3, #255	; 0xff
 8004fb2:	d010      	beq.n	8004fd6 <USBD_CDC_EP0_RxReady+0x46>
  {
    ((USBD_CDC_ItfTypeDef *)pdev->pUserData)->Control(hcdc->CmdOpCode,
 8004fb4:	687b      	ldr	r3, [r7, #4]
 8004fb6:	f8d3 32c0 	ldr.w	r3, [r3, #704]	; 0x2c0
 8004fba:	689b      	ldr	r3, [r3, #8]
 8004fbc:	68fa      	ldr	r2, [r7, #12]
 8004fbe:	f892 0200 	ldrb.w	r0, [r2, #512]	; 0x200
                                                      (uint8_t *)hcdc->data,
 8004fc2:	68f9      	ldr	r1, [r7, #12]
                                                      (uint16_t)hcdc->CmdLength);
 8004fc4:	68fa      	ldr	r2, [r7, #12]
 8004fc6:	f892 2201 	ldrb.w	r2, [r2, #513]	; 0x201
    ((USBD_CDC_ItfTypeDef *)pdev->pUserData)->Control(hcdc->CmdOpCode,
 8004fca:	b292      	uxth	r2, r2
 8004fcc:	4798      	blx	r3
    hcdc->CmdOpCode = 0xFFU;
 8004fce:	68fb      	ldr	r3, [r7, #12]
 8004fd0:	22ff      	movs	r2, #255	; 0xff
 8004fd2:	f883 2200 	strb.w	r2, [r3, #512]	; 0x200

  }

  return (uint8_t)USBD_OK;
 8004fd6:	2300      	movs	r3, #0
}
 8004fd8:	4618      	mov	r0, r3
 8004fda:	3710      	adds	r7, #16
 8004fdc:	46bd      	mov	sp, r7
 8004fde:	bd80      	pop	{r7, pc}

08004fe0 <USBD_CDC_GetFSCfgDesc>:
  * @param  speed : current device speed
  * @param  length : pointer data length
  * @retval pointer to descriptor buffer
  */
static uint8_t *USBD_CDC_GetFSCfgDesc(uint16_t *length)
{
 8004fe0:	b480      	push	{r7}
 8004fe2:	b083      	sub	sp, #12
 8004fe4:	af00      	add	r7, sp, #0
 8004fe6:	6078      	str	r0, [r7, #4]
  *length = (uint16_t)sizeof(USBD_CDC_CfgFSDesc);
 8004fe8:	687b      	ldr	r3, [r7, #4]
 8004fea:	2243      	movs	r2, #67	; 0x43
 8004fec:	801a      	strh	r2, [r3, #0]

  return USBD_CDC_CfgFSDesc;
 8004fee:	4b03      	ldr	r3, [pc, #12]	; (8004ffc <USBD_CDC_GetFSCfgDesc+0x1c>)
}
 8004ff0:	4618      	mov	r0, r3
 8004ff2:	370c      	adds	r7, #12
 8004ff4:	46bd      	mov	sp, r7
 8004ff6:	f85d 7b04 	ldr.w	r7, [sp], #4
 8004ffa:	4770      	bx	lr
 8004ffc:	20000094 	.word	0x20000094

08005000 <USBD_CDC_GetHSCfgDesc>:
  * @param  speed : current device speed
  * @param  length : pointer data length
  * @retval pointer to descriptor buffer
  */
static uint8_t *USBD_CDC_GetHSCfgDesc(uint16_t *length)
{
 8005000:	b480      	push	{r7}
 8005002:	b083      	sub	sp, #12
 8005004:	af00      	add	r7, sp, #0
 8005006:	6078      	str	r0, [r7, #4]
  *length = (uint16_t)sizeof(USBD_CDC_CfgHSDesc);
 8005008:	687b      	ldr	r3, [r7, #4]
 800500a:	2243      	movs	r2, #67	; 0x43
 800500c:	801a      	strh	r2, [r3, #0]

  return USBD_CDC_CfgHSDesc;
 800500e:	4b03      	ldr	r3, [pc, #12]	; (800501c <USBD_CDC_GetHSCfgDesc+0x1c>)
}
 8005010:	4618      	mov	r0, r3
 8005012:	370c      	adds	r7, #12
 8005014:	46bd      	mov	sp, r7
 8005016:	f85d 7b04 	ldr.w	r7, [sp], #4
 800501a:	4770      	bx	lr
 800501c:	20000050 	.word	0x20000050

08005020 <USBD_CDC_GetOtherSpeedCfgDesc>:
  * @param  speed : current device speed
  * @param  length : pointer data length
  * @retval pointer to descriptor buffer
  */
static uint8_t *USBD_CDC_GetOtherSpeedCfgDesc(uint16_t *length)
{
 8005020:	b480      	push	{r7}
 8005022:	b083      	sub	sp, #12
 8005024:	af00      	add	r7, sp, #0
 8005026:	6078      	str	r0, [r7, #4]
  *length = (uint16_t)sizeof(USBD_CDC_OtherSpeedCfgDesc);
 8005028:	687b      	ldr	r3, [r7, #4]
 800502a:	2243      	movs	r2, #67	; 0x43
 800502c:	801a      	strh	r2, [r3, #0]

  return USBD_CDC_OtherSpeedCfgDesc;
 800502e:	4b03      	ldr	r3, [pc, #12]	; (800503c <USBD_CDC_GetOtherSpeedCfgDesc+0x1c>)
}
 8005030:	4618      	mov	r0, r3
 8005032:	370c      	adds	r7, #12
 8005034:	46bd      	mov	sp, r7
 8005036:	f85d 7b04 	ldr.w	r7, [sp], #4
 800503a:	4770      	bx	lr
 800503c:	200000d8 	.word	0x200000d8

08005040 <USBD_CDC_GetDeviceQualifierDescriptor>:
*         return Device Qualifier descriptor
* @param  length : pointer data length
* @retval pointer to descriptor buffer
*/
uint8_t *USBD_CDC_GetDeviceQualifierDescriptor(uint16_t *length)
{
 8005040:	b480      	push	{r7}
 8005042:	b083      	sub	sp, #12
 8005044:	af00      	add	r7, sp, #0
 8005046:	6078      	str	r0, [r7, #4]
  *length = (uint16_t)sizeof(USBD_CDC_DeviceQualifierDesc);
 8005048:	687b      	ldr	r3, [r7, #4]
 800504a:	220a      	movs	r2, #10
 800504c:	801a      	strh	r2, [r3, #0]

  return USBD_CDC_DeviceQualifierDesc;
 800504e:	4b03      	ldr	r3, [pc, #12]	; (800505c <USBD_CDC_GetDeviceQualifierDescriptor+0x1c>)
}
 8005050:	4618      	mov	r0, r3
 8005052:	370c      	adds	r7, #12
 8005054:	46bd      	mov	sp, r7
 8005056:	f85d 7b04 	ldr.w	r7, [sp], #4
 800505a:	4770      	bx	lr
 800505c:	2000000c 	.word	0x2000000c

08005060 <USBD_CDC_RegisterInterface>:
  * @param  fops: CD  Interface callback
  * @retval status
  */
uint8_t USBD_CDC_RegisterInterface(USBD_HandleTypeDef *pdev,
                                   USBD_CDC_ItfTypeDef *fops)
{
 8005060:	b480      	push	{r7}
 8005062:	b083      	sub	sp, #12
 8005064:	af00      	add	r7, sp, #0
 8005066:	6078      	str	r0, [r7, #4]
 8005068:	6039      	str	r1, [r7, #0]
  if (fops == NULL)
 800506a:	683b      	ldr	r3, [r7, #0]
 800506c:	2b00      	cmp	r3, #0
 800506e:	d101      	bne.n	8005074 <USBD_CDC_RegisterInterface+0x14>
  {
    return (uint8_t)USBD_FAIL;
 8005070:	2303      	movs	r3, #3
 8005072:	e004      	b.n	800507e <USBD_CDC_RegisterInterface+0x1e>
  }

  pdev->pUserData = fops;
 8005074:	687b      	ldr	r3, [r7, #4]
 8005076:	683a      	ldr	r2, [r7, #0]
 8005078:	f8c3 22c0 	str.w	r2, [r3, #704]	; 0x2c0

  return (uint8_t)USBD_OK;
 800507c:	2300      	movs	r3, #0
}
 800507e:	4618      	mov	r0, r3
 8005080:	370c      	adds	r7, #12
 8005082:	46bd      	mov	sp, r7
 8005084:	f85d 7b04 	ldr.w	r7, [sp], #4
 8005088:	4770      	bx	lr

0800508a <USBD_CDC_SetTxBuffer>:
  * @param  pbuff: Tx Buffer
  * @retval status
  */
uint8_t USBD_CDC_SetTxBuffer(USBD_HandleTypeDef *pdev,
                             uint8_t *pbuff, uint32_t length)
{
 800508a:	b480      	push	{r7}
 800508c:	b087      	sub	sp, #28
 800508e:	af00      	add	r7, sp, #0
 8005090:	60f8      	str	r0, [r7, #12]
 8005092:	60b9      	str	r1, [r7, #8]
 8005094:	607a      	str	r2, [r7, #4]
  USBD_CDC_HandleTypeDef *hcdc = (USBD_CDC_HandleTypeDef *)pdev->pClassData;
 8005096:	68fb      	ldr	r3, [r7, #12]
 8005098:	f8d3 32bc 	ldr.w	r3, [r3, #700]	; 0x2bc
 800509c:	617b      	str	r3, [r7, #20]

  hcdc->TxBuffer = pbuff;
 800509e:	697b      	ldr	r3, [r7, #20]
 80050a0:	68ba      	ldr	r2, [r7, #8]
 80050a2:	f8c3 2208 	str.w	r2, [r3, #520]	; 0x208
  hcdc->TxLength = length;
 80050a6:	697b      	ldr	r3, [r7, #20]
 80050a8:	687a      	ldr	r2, [r7, #4]
 80050aa:	f8c3 2210 	str.w	r2, [r3, #528]	; 0x210

  return (uint8_t)USBD_OK;
 80050ae:	2300      	movs	r3, #0
}
 80050b0:	4618      	mov	r0, r3
 80050b2:	371c      	adds	r7, #28
 80050b4:	46bd      	mov	sp, r7
 80050b6:	f85d 7b04 	ldr.w	r7, [sp], #4
 80050ba:	4770      	bx	lr

080050bc <USBD_CDC_SetRxBuffer>:
  * @param  pdev: device instance
  * @param  pbuff: Rx Buffer
  * @retval status
  */
uint8_t USBD_CDC_SetRxBuffer(USBD_HandleTypeDef *pdev, uint8_t *pbuff)
{
 80050bc:	b480      	push	{r7}
 80050be:	b085      	sub	sp, #20
 80050c0:	af00      	add	r7, sp, #0
 80050c2:	6078      	str	r0, [r7, #4]
 80050c4:	6039      	str	r1, [r7, #0]
  USBD_CDC_HandleTypeDef *hcdc = (USBD_CDC_HandleTypeDef *)pdev->pClassData;
 80050c6:	687b      	ldr	r3, [r7, #4]
 80050c8:	f8d3 32bc 	ldr.w	r3, [r3, #700]	; 0x2bc
 80050cc:	60fb      	str	r3, [r7, #12]

  hcdc->RxBuffer = pbuff;
 80050ce:	68fb      	ldr	r3, [r7, #12]
 80050d0:	683a      	ldr	r2, [r7, #0]
 80050d2:	f8c3 2204 	str.w	r2, [r3, #516]	; 0x204

  return (uint8_t)USBD_OK;
 80050d6:	2300      	movs	r3, #0
}
 80050d8:	4618      	mov	r0, r3
 80050da:	3714      	adds	r7, #20
 80050dc:	46bd      	mov	sp, r7
 80050de:	f85d 7b04 	ldr.w	r7, [sp], #4
 80050e2:	4770      	bx	lr

080050e4 <USBD_CDC_TransmitPacket>:
  *         Transmit packet on IN endpoint
  * @param  pdev: device instance
  * @retval status
  */
uint8_t USBD_CDC_TransmitPacket(USBD_HandleTypeDef *pdev)
{
 80050e4:	b580      	push	{r7, lr}
 80050e6:	b084      	sub	sp, #16
 80050e8:	af00      	add	r7, sp, #0
 80050ea:	6078      	str	r0, [r7, #4]
  USBD_CDC_HandleTypeDef *hcdc = (USBD_CDC_HandleTypeDef *)pdev->pClassData;
 80050ec:	687b      	ldr	r3, [r7, #4]
 80050ee:	f8d3 32bc 	ldr.w	r3, [r3, #700]	; 0x2bc
 80050f2:	60bb      	str	r3, [r7, #8]
  USBD_StatusTypeDef ret = USBD_BUSY;
 80050f4:	2301      	movs	r3, #1
 80050f6:	73fb      	strb	r3, [r7, #15]

  if (pdev->pClassData == NULL)
 80050f8:	687b      	ldr	r3, [r7, #4]
 80050fa:	f8d3 32bc 	ldr.w	r3, [r3, #700]	; 0x2bc
 80050fe:	2b00      	cmp	r3, #0
 8005100:	d101      	bne.n	8005106 <USBD_CDC_TransmitPacket+0x22>
  {
    return (uint8_t)USBD_FAIL;
 8005102:	2303      	movs	r3, #3
 8005104:	e01a      	b.n	800513c <USBD_CDC_TransmitPacket+0x58>
  }

  if (hcdc->TxState == 0U)
 8005106:	68bb      	ldr	r3, [r7, #8]
 8005108:	f8d3 3214 	ldr.w	r3, [r3, #532]	; 0x214
 800510c:	2b00      	cmp	r3, #0
 800510e:	d114      	bne.n	800513a <USBD_CDC_TransmitPacket+0x56>
  {
    /* Tx Transfer in progress */
    hcdc->TxState = 1U;
 8005110:	68bb      	ldr	r3, [r7, #8]
 8005112:	2201      	movs	r2, #1
 8005114:	f8c3 2214 	str.w	r2, [r3, #532]	; 0x214

    /* Update the packet total length */
    pdev->ep_in[CDC_IN_EP & 0xFU].total_length = hcdc->TxLength;
 8005118:	68bb      	ldr	r3, [r7, #8]
 800511a:	f8d3 2210 	ldr.w	r2, [r3, #528]	; 0x210
 800511e:	687b      	ldr	r3, [r7, #4]
 8005120:	62da      	str	r2, [r3, #44]	; 0x2c

    /* Transmit next packet */
    (void)USBD_LL_Transmit(pdev, CDC_IN_EP, hcdc->TxBuffer, hcdc->TxLength);
 8005122:	68bb      	ldr	r3, [r7, #8]
 8005124:	f8d3 2208 	ldr.w	r2, [r3, #520]	; 0x208
 8005128:	68bb      	ldr	r3, [r7, #8]
 800512a:	f8d3 3210 	ldr.w	r3, [r3, #528]	; 0x210
 800512e:	2181      	movs	r1, #129	; 0x81
 8005130:	6878      	ldr	r0, [r7, #4]
 8005132:	f001 fe0c 	bl	8006d4e <USBD_LL_Transmit>

    ret = USBD_OK;
 8005136:	2300      	movs	r3, #0
 8005138:	73fb      	strb	r3, [r7, #15]
  }

  return (uint8_t)ret;
 800513a:	7bfb      	ldrb	r3, [r7, #15]
}
 800513c:	4618      	mov	r0, r3
 800513e:	3710      	adds	r7, #16
 8005140:	46bd      	mov	sp, r7
 8005142:	bd80      	pop	{r7, pc}

08005144 <USBD_CDC_ReceivePacket>:
  *         prepare OUT Endpoint for reception
  * @param  pdev: device instance
  * @retval status
  */
uint8_t USBD_CDC_ReceivePacket(USBD_HandleTypeDef *pdev)
{
 8005144:	b580      	push	{r7, lr}
 8005146:	b084      	sub	sp, #16
 8005148:	af00      	add	r7, sp, #0
 800514a:	6078      	str	r0, [r7, #4]
  USBD_CDC_HandleTypeDef *hcdc = (USBD_CDC_HandleTypeDef *)pdev->pClassData;
 800514c:	687b      	ldr	r3, [r7, #4]
 800514e:	f8d3 32bc 	ldr.w	r3, [r3, #700]	; 0x2bc
 8005152:	60fb      	str	r3, [r7, #12]

  if (pdev->pClassData == NULL)
 8005154:	687b      	ldr	r3, [r7, #4]
 8005156:	f8d3 32bc 	ldr.w	r3, [r3, #700]	; 0x2bc
 800515a:	2b00      	cmp	r3, #0
 800515c:	d101      	bne.n	8005162 <USBD_CDC_ReceivePacket+0x1e>
  {
    return (uint8_t)USBD_FAIL;
 800515e:	2303      	movs	r3, #3
 8005160:	e016      	b.n	8005190 <USBD_CDC_ReceivePacket+0x4c>
  }

  if (pdev->dev_speed == USBD_SPEED_HIGH)
 8005162:	687b      	ldr	r3, [r7, #4]
 8005164:	7c1b      	ldrb	r3, [r3, #16]
 8005166:	2b00      	cmp	r3, #0
 8005168:	d109      	bne.n	800517e <USBD_CDC_ReceivePacket+0x3a>
  {
    /* Prepare Out endpoint to receive next packet */
    (void)USBD_LL_PrepareReceive(pdev, CDC_OUT_EP, hcdc->RxBuffer,
 800516a:	68fb      	ldr	r3, [r7, #12]
 800516c:	f8d3 2204 	ldr.w	r2, [r3, #516]	; 0x204
 8005170:	f44f 7300 	mov.w	r3, #512	; 0x200
 8005174:	2101      	movs	r1, #1
 8005176:	6878      	ldr	r0, [r7, #4]
 8005178:	f001 fe0a 	bl	8006d90 <USBD_LL_PrepareReceive>
 800517c:	e007      	b.n	800518e <USBD_CDC_ReceivePacket+0x4a>
                                 CDC_DATA_HS_OUT_PACKET_SIZE);
  }
  else
  {
    /* Prepare Out endpoint to receive next packet */
    (void)USBD_LL_PrepareReceive(pdev, CDC_OUT_EP, hcdc->RxBuffer,
 800517e:	68fb      	ldr	r3, [r7, #12]
 8005180:	f8d3 2204 	ldr.w	r2, [r3, #516]	; 0x204
 8005184:	2340      	movs	r3, #64	; 0x40
 8005186:	2101      	movs	r1, #1
 8005188:	6878      	ldr	r0, [r7, #4]
 800518a:	f001 fe01 	bl	8006d90 <USBD_LL_PrepareReceive>
                                 CDC_DATA_FS_OUT_PACKET_SIZE);
  }

  return (uint8_t)USBD_OK;
 800518e:	2300      	movs	r3, #0
}
 8005190:	4618      	mov	r0, r3
 8005192:	3710      	adds	r7, #16
 8005194:	46bd      	mov	sp, r7
 8005196:	bd80      	pop	{r7, pc}

08005198 <USBD_Init>:
* @param  id: Low level core index
* @retval None
*/
USBD_StatusTypeDef USBD_Init(USBD_HandleTypeDef *pdev,
                             USBD_DescriptorsTypeDef *pdesc, uint8_t id)
{
 8005198:	b580      	push	{r7, lr}
 800519a:	b086      	sub	sp, #24
 800519c:	af00      	add	r7, sp, #0
 800519e:	60f8      	str	r0, [r7, #12]
 80051a0:	60b9      	str	r1, [r7, #8]
 80051a2:	4613      	mov	r3, r2
 80051a4:	71fb      	strb	r3, [r7, #7]
  USBD_StatusTypeDef ret;

  /* Check whether the USB Host handle is valid */
  if (pdev == NULL)
 80051a6:	68fb      	ldr	r3, [r7, #12]
 80051a8:	2b00      	cmp	r3, #0
 80051aa:	d101      	bne.n	80051b0 <USBD_Init+0x18>
  {
#if (USBD_DEBUG_LEVEL > 1U)
    USBD_ErrLog("Invalid Device handle");
#endif
    return USBD_FAIL;
 80051ac:	2303      	movs	r3, #3
 80051ae:	e025      	b.n	80051fc <USBD_Init+0x64>
  }

  /* Unlink previous class */
  if (pdev->pClass != NULL)
 80051b0:	68fb      	ldr	r3, [r7, #12]
 80051b2:	f8d3 32b8 	ldr.w	r3, [r3, #696]	; 0x2b8
 80051b6:	2b00      	cmp	r3, #0
 80051b8:	d003      	beq.n	80051c2 <USBD_Init+0x2a>
  {
    pdev->pClass = NULL;
 80051ba:	68fb      	ldr	r3, [r7, #12]
 80051bc:	2200      	movs	r2, #0
 80051be:	f8c3 22b8 	str.w	r2, [r3, #696]	; 0x2b8
  }

  if (pdev->pConfDesc != NULL)
 80051c2:	68fb      	ldr	r3, [r7, #12]
 80051c4:	f8d3 32cc 	ldr.w	r3, [r3, #716]	; 0x2cc
 80051c8:	2b00      	cmp	r3, #0
 80051ca:	d003      	beq.n	80051d4 <USBD_Init+0x3c>
  {
    pdev->pConfDesc = NULL;
 80051cc:	68fb      	ldr	r3, [r7, #12]
 80051ce:	2200      	movs	r2, #0
 80051d0:	f8c3 22cc 	str.w	r2, [r3, #716]	; 0x2cc
  }

  /* Assign USBD Descriptors */
  if (pdesc != NULL)
 80051d4:	68bb      	ldr	r3, [r7, #8]
 80051d6:	2b00      	cmp	r3, #0
 80051d8:	d003      	beq.n	80051e2 <USBD_Init+0x4a>
  {
    pdev->pDesc = pdesc;
 80051da:	68fb      	ldr	r3, [r7, #12]
 80051dc:	68ba      	ldr	r2, [r7, #8]
 80051de:	f8c3 22b4 	str.w	r2, [r3, #692]	; 0x2b4
  }

  /* Set Device initial State */
  pdev->dev_state = USBD_STATE_DEFAULT;
 80051e2:	68fb      	ldr	r3, [r7, #12]
 80051e4:	2201      	movs	r2, #1
 80051e6:	f883 229c 	strb.w	r2, [r3, #668]	; 0x29c
  pdev->id = id;
 80051ea:	68fb      	ldr	r3, [r7, #12]
 80051ec:	79fa      	ldrb	r2, [r7, #7]
 80051ee:	701a      	strb	r2, [r3, #0]

  /* Initialize low level driver */
  ret = USBD_LL_Init(pdev);
 80051f0:	68f8      	ldr	r0, [r7, #12]
 80051f2:	f001 fc77 	bl	8006ae4 <USBD_LL_Init>
 80051f6:	4603      	mov	r3, r0
 80051f8:	75fb      	strb	r3, [r7, #23]

  return ret;
 80051fa:	7dfb      	ldrb	r3, [r7, #23]
}
 80051fc:	4618      	mov	r0, r3
 80051fe:	3718      	adds	r7, #24
 8005200:	46bd      	mov	sp, r7
 8005202:	bd80      	pop	{r7, pc}

08005204 <USBD_RegisterClass>:
  * @param  pDevice : Device Handle
  * @param  pclass: Class handle
  * @retval USBD Status
  */
USBD_StatusTypeDef USBD_RegisterClass(USBD_HandleTypeDef *pdev, USBD_ClassTypeDef *pclass)
{
 8005204:	b580      	push	{r7, lr}
 8005206:	b084      	sub	sp, #16
 8005208:	af00      	add	r7, sp, #0
 800520a:	6078      	str	r0, [r7, #4]
 800520c:	6039      	str	r1, [r7, #0]
  uint16_t len = 0U;
 800520e:	2300      	movs	r3, #0
 8005210:	81fb      	strh	r3, [r7, #14]

  if (pclass == NULL)
 8005212:	683b      	ldr	r3, [r7, #0]
 8005214:	2b00      	cmp	r3, #0
 8005216:	d101      	bne.n	800521c <USBD_RegisterClass+0x18>
  {
#if (USBD_DEBUG_LEVEL > 1U)
    USBD_ErrLog("Invalid Class handle");
#endif
    return USBD_FAIL;
 8005218:	2303      	movs	r3, #3
 800521a:	e010      	b.n	800523e <USBD_RegisterClass+0x3a>
  }

  /* link the class to the USB Device handle */
  pdev->pClass = pclass;
 800521c:	687b      	ldr	r3, [r7, #4]
 800521e:	683a      	ldr	r2, [r7, #0]
 8005220:	f8c3 22b8 	str.w	r2, [r3, #696]	; 0x2b8

  /* Get Device Configuration Descriptor */
#ifdef USE_USB_FS
  pdev->pConfDesc = (void *)pdev->pClass->GetFSConfigDescriptor(&len);
#else /* USE_USB_HS */
  pdev->pConfDesc = (void *)pdev->pClass->GetHSConfigDescriptor(&len);
 8005224:	687b      	ldr	r3, [r7, #4]
 8005226:	f8d3 32b8 	ldr.w	r3, [r3, #696]	; 0x2b8
 800522a:	6a9b      	ldr	r3, [r3, #40]	; 0x28
 800522c:	f107 020e 	add.w	r2, r7, #14
 8005230:	4610      	mov	r0, r2
 8005232:	4798      	blx	r3
 8005234:	4602      	mov	r2, r0
 8005236:	687b      	ldr	r3, [r7, #4]
 8005238:	f8c3 22cc 	str.w	r2, [r3, #716]	; 0x2cc
#endif /* USE_USB_FS */


  return USBD_OK;
 800523c:	2300      	movs	r3, #0
}
 800523e:	4618      	mov	r0, r3
 8005240:	3710      	adds	r7, #16
 8005242:	46bd      	mov	sp, r7
 8005244:	bd80      	pop	{r7, pc}

08005246 <USBD_Start>:
  *         Start the USB Device Core.
  * @param  pdev: Device Handle
  * @retval USBD Status
  */
USBD_StatusTypeDef USBD_Start(USBD_HandleTypeDef *pdev)
{
 8005246:	b580      	push	{r7, lr}
 8005248:	b082      	sub	sp, #8
 800524a:	af00      	add	r7, sp, #0
 800524c:	6078      	str	r0, [r7, #4]
  /* Start the low level driver  */
  return USBD_LL_Start(pdev);
 800524e:	6878      	ldr	r0, [r7, #4]
 8005250:	f001 fc94 	bl	8006b7c <USBD_LL_Start>
 8005254:	4603      	mov	r3, r0
}
 8005256:	4618      	mov	r0, r3
 8005258:	3708      	adds	r7, #8
 800525a:	46bd      	mov	sp, r7
 800525c:	bd80      	pop	{r7, pc}

0800525e <USBD_RunTestMode>:
*         Launch test mode process
* @param  pdev: device instance
* @retval status
*/
USBD_StatusTypeDef USBD_RunTestMode(USBD_HandleTypeDef  *pdev)
{
 800525e:	b480      	push	{r7}
 8005260:	b083      	sub	sp, #12
 8005262:	af00      	add	r7, sp, #0
 8005264:	6078      	str	r0, [r7, #4]
  /* Prevent unused argument compilation warning */
  UNUSED(pdev);

  return USBD_OK;
 8005266:	2300      	movs	r3, #0
}
 8005268:	4618      	mov	r0, r3
 800526a:	370c      	adds	r7, #12
 800526c:	46bd      	mov	sp, r7
 800526e:	f85d 7b04 	ldr.w	r7, [sp], #4
 8005272:	4770      	bx	lr

08005274 <USBD_SetClassConfig>:
* @param  cfgidx: configuration index
* @retval status
*/

USBD_StatusTypeDef USBD_SetClassConfig(USBD_HandleTypeDef *pdev, uint8_t cfgidx)
{
 8005274:	b580      	push	{r7, lr}
 8005276:	b084      	sub	sp, #16
 8005278:	af00      	add	r7, sp, #0
 800527a:	6078      	str	r0, [r7, #4]
 800527c:	460b      	mov	r3, r1
 800527e:	70fb      	strb	r3, [r7, #3]
  USBD_StatusTypeDef ret = USBD_FAIL;
 8005280:	2303      	movs	r3, #3
 8005282:	73fb      	strb	r3, [r7, #15]

  if (pdev->pClass != NULL)
 8005284:	687b      	ldr	r3, [r7, #4]
 8005286:	f8d3 32b8 	ldr.w	r3, [r3, #696]	; 0x2b8
 800528a:	2b00      	cmp	r3, #0
 800528c:	d009      	beq.n	80052a2 <USBD_SetClassConfig+0x2e>
  {
    /* Set configuration and Start the Class */
    ret = (USBD_StatusTypeDef)pdev->pClass->Init(pdev, cfgidx);
 800528e:	687b      	ldr	r3, [r7, #4]
 8005290:	f8d3 32b8 	ldr.w	r3, [r3, #696]	; 0x2b8
 8005294:	681b      	ldr	r3, [r3, #0]
 8005296:	78fa      	ldrb	r2, [r7, #3]
 8005298:	4611      	mov	r1, r2
 800529a:	6878      	ldr	r0, [r7, #4]
 800529c:	4798      	blx	r3
 800529e:	4603      	mov	r3, r0
 80052a0:	73fb      	strb	r3, [r7, #15]
  }

  return ret;
 80052a2:	7bfb      	ldrb	r3, [r7, #15]
}
 80052a4:	4618      	mov	r0, r3
 80052a6:	3710      	adds	r7, #16
 80052a8:	46bd      	mov	sp, r7
 80052aa:	bd80      	pop	{r7, pc}

080052ac <USBD_ClrClassConfig>:
* @param  pdev: device instance
* @param  cfgidx: configuration index
* @retval status: USBD_StatusTypeDef
*/
USBD_StatusTypeDef USBD_ClrClassConfig(USBD_HandleTypeDef *pdev, uint8_t cfgidx)
{
 80052ac:	b580      	push	{r7, lr}
 80052ae:	b082      	sub	sp, #8
 80052b0:	af00      	add	r7, sp, #0
 80052b2:	6078      	str	r0, [r7, #4]
 80052b4:	460b      	mov	r3, r1
 80052b6:	70fb      	strb	r3, [r7, #3]
  /* Clear configuration and De-initialize the Class process */
  if (pdev->pClass != NULL)
 80052b8:	687b      	ldr	r3, [r7, #4]
 80052ba:	f8d3 32b8 	ldr.w	r3, [r3, #696]	; 0x2b8
 80052be:	2b00      	cmp	r3, #0
 80052c0:	d007      	beq.n	80052d2 <USBD_ClrClassConfig+0x26>
  {
    pdev->pClass->DeInit(pdev, cfgidx);
 80052c2:	687b      	ldr	r3, [r7, #4]
 80052c4:	f8d3 32b8 	ldr.w	r3, [r3, #696]	; 0x2b8
 80052c8:	685b      	ldr	r3, [r3, #4]
 80052ca:	78fa      	ldrb	r2, [r7, #3]
 80052cc:	4611      	mov	r1, r2
 80052ce:	6878      	ldr	r0, [r7, #4]
 80052d0:	4798      	blx	r3
  }

  return USBD_OK;
 80052d2:	2300      	movs	r3, #0
}
 80052d4:	4618      	mov	r0, r3
 80052d6:	3708      	adds	r7, #8
 80052d8:	46bd      	mov	sp, r7
 80052da:	bd80      	pop	{r7, pc}

080052dc <USBD_LL_SetupStage>:
*         Handle the setup stage
* @param  pdev: device instance
* @retval status
*/
USBD_StatusTypeDef USBD_LL_SetupStage(USBD_HandleTypeDef *pdev, uint8_t *psetup)
{
 80052dc:	b580      	push	{r7, lr}
 80052de:	b084      	sub	sp, #16
 80052e0:	af00      	add	r7, sp, #0
 80052e2:	6078      	str	r0, [r7, #4]
 80052e4:	6039      	str	r1, [r7, #0]
  USBD_StatusTypeDef ret;

  USBD_ParseSetupRequest(&pdev->request, psetup);
 80052e6:	687b      	ldr	r3, [r7, #4]
 80052e8:	f203 23aa 	addw	r3, r3, #682	; 0x2aa
 80052ec:	6839      	ldr	r1, [r7, #0]
 80052ee:	4618      	mov	r0, r3
 80052f0:	f000 ff2c 	bl	800614c <USBD_ParseSetupRequest>

  pdev->ep0_state = USBD_EP0_SETUP;
 80052f4:	687b      	ldr	r3, [r7, #4]
 80052f6:	2201      	movs	r2, #1
 80052f8:	f8c3 2294 	str.w	r2, [r3, #660]	; 0x294

  pdev->ep0_data_len = pdev->request.wLength;
 80052fc:	687b      	ldr	r3, [r7, #4]
 80052fe:	f8b3 32b0 	ldrh.w	r3, [r3, #688]	; 0x2b0
 8005302:	461a      	mov	r2, r3
 8005304:	687b      	ldr	r3, [r7, #4]
 8005306:	f8c3 2298 	str.w	r2, [r3, #664]	; 0x298

  switch (pdev->request.bmRequest & 0x1FU)
 800530a:	687b      	ldr	r3, [r7, #4]
 800530c:	f893 32aa 	ldrb.w	r3, [r3, #682]	; 0x2aa
 8005310:	f003 031f 	and.w	r3, r3, #31
 8005314:	2b01      	cmp	r3, #1
 8005316:	d00e      	beq.n	8005336 <USBD_LL_SetupStage+0x5a>
 8005318:	2b01      	cmp	r3, #1
 800531a:	d302      	bcc.n	8005322 <USBD_LL_SetupStage+0x46>
 800531c:	2b02      	cmp	r3, #2
 800531e:	d014      	beq.n	800534a <USBD_LL_SetupStage+0x6e>
 8005320:	e01d      	b.n	800535e <USBD_LL_SetupStage+0x82>
  {
    case USB_REQ_RECIPIENT_DEVICE:
      ret = USBD_StdDevReq(pdev, &pdev->request);
 8005322:	687b      	ldr	r3, [r7, #4]
 8005324:	f203 23aa 	addw	r3, r3, #682	; 0x2aa
 8005328:	4619      	mov	r1, r3
 800532a:	6878      	ldr	r0, [r7, #4]
 800532c:	f000 fa18 	bl	8005760 <USBD_StdDevReq>
 8005330:	4603      	mov	r3, r0
 8005332:	73fb      	strb	r3, [r7, #15]
      break;
 8005334:	e020      	b.n	8005378 <USBD_LL_SetupStage+0x9c>

    case USB_REQ_RECIPIENT_INTERFACE:
      ret = USBD_StdItfReq(pdev, &pdev->request);
 8005336:	687b      	ldr	r3, [r7, #4]
 8005338:	f203 23aa 	addw	r3, r3, #682	; 0x2aa
 800533c:	4619      	mov	r1, r3
 800533e:	6878      	ldr	r0, [r7, #4]
 8005340:	f000 fa7c 	bl	800583c <USBD_StdItfReq>
 8005344:	4603      	mov	r3, r0
 8005346:	73fb      	strb	r3, [r7, #15]
      break;
 8005348:	e016      	b.n	8005378 <USBD_LL_SetupStage+0x9c>

    case USB_REQ_RECIPIENT_ENDPOINT:
      ret = USBD_StdEPReq(pdev, &pdev->request);
 800534a:	687b      	ldr	r3, [r7, #4]
 800534c:	f203 23aa 	addw	r3, r3, #682	; 0x2aa
 8005350:	4619      	mov	r1, r3
 8005352:	6878      	ldr	r0, [r7, #4]
 8005354:	f000 fab8 	bl	80058c8 <USBD_StdEPReq>
 8005358:	4603      	mov	r3, r0
 800535a:	73fb      	strb	r3, [r7, #15]
      break;
 800535c:	e00c      	b.n	8005378 <USBD_LL_SetupStage+0x9c>

    default:
      ret = USBD_LL_StallEP(pdev, (pdev->request.bmRequest & 0x80U));
 800535e:	687b      	ldr	r3, [r7, #4]
 8005360:	f893 32aa 	ldrb.w	r3, [r3, #682]	; 0x2aa
 8005364:	f023 037f 	bic.w	r3, r3, #127	; 0x7f
 8005368:	b2db      	uxtb	r3, r3
 800536a:	4619      	mov	r1, r3
 800536c:	6878      	ldr	r0, [r7, #4]
 800536e:	f001 fc65 	bl	8006c3c <USBD_LL_StallEP>
 8005372:	4603      	mov	r3, r0
 8005374:	73fb      	strb	r3, [r7, #15]
      break;
 8005376:	bf00      	nop
  }

  return ret;
 8005378:	7bfb      	ldrb	r3, [r7, #15]
}
 800537a:	4618      	mov	r0, r3
 800537c:	3710      	adds	r7, #16
 800537e:	46bd      	mov	sp, r7
 8005380:	bd80      	pop	{r7, pc}

08005382 <USBD_LL_DataOutStage>:
* @param  epnum: endpoint index
* @retval status
*/
USBD_StatusTypeDef USBD_LL_DataOutStage(USBD_HandleTypeDef *pdev,
                                        uint8_t epnum, uint8_t *pdata)
{
 8005382:	b580      	push	{r7, lr}
 8005384:	b086      	sub	sp, #24
 8005386:	af00      	add	r7, sp, #0
 8005388:	60f8      	str	r0, [r7, #12]
 800538a:	460b      	mov	r3, r1
 800538c:	607a      	str	r2, [r7, #4]
 800538e:	72fb      	strb	r3, [r7, #11]
  USBD_EndpointTypeDef *pep;
  USBD_StatusTypeDef ret;

  if (epnum == 0U)
 8005390:	7afb      	ldrb	r3, [r7, #11]
 8005392:	2b00      	cmp	r3, #0
 8005394:	d137      	bne.n	8005406 <USBD_LL_DataOutStage+0x84>
  {
    pep = &pdev->ep_out[0];
 8005396:	68fb      	ldr	r3, [r7, #12]
 8005398:	f503 73aa 	add.w	r3, r3, #340	; 0x154
 800539c:	613b      	str	r3, [r7, #16]

    if (pdev->ep0_state == USBD_EP0_DATA_OUT)
 800539e:	68fb      	ldr	r3, [r7, #12]
 80053a0:	f8d3 3294 	ldr.w	r3, [r3, #660]	; 0x294
 80053a4:	2b03      	cmp	r3, #3
 80053a6:	d14a      	bne.n	800543e <USBD_LL_DataOutStage+0xbc>
    {
      if (pep->rem_length > pep->maxpacket)
 80053a8:	693b      	ldr	r3, [r7, #16]
 80053aa:	689a      	ldr	r2, [r3, #8]
 80053ac:	693b      	ldr	r3, [r7, #16]
 80053ae:	68db      	ldr	r3, [r3, #12]
 80053b0:	429a      	cmp	r2, r3
 80053b2:	d913      	bls.n	80053dc <USBD_LL_DataOutStage+0x5a>
      {
        pep->rem_length -= pep->maxpacket;
 80053b4:	693b      	ldr	r3, [r7, #16]
 80053b6:	689a      	ldr	r2, [r3, #8]
 80053b8:	693b      	ldr	r3, [r7, #16]
 80053ba:	68db      	ldr	r3, [r3, #12]
 80053bc:	1ad2      	subs	r2, r2, r3
 80053be:	693b      	ldr	r3, [r7, #16]
 80053c0:	609a      	str	r2, [r3, #8]

        (void)USBD_CtlContinueRx(pdev, pdata, MIN(pep->rem_length, pep->maxpacket));
 80053c2:	693b      	ldr	r3, [r7, #16]
 80053c4:	68da      	ldr	r2, [r3, #12]
 80053c6:	693b      	ldr	r3, [r7, #16]
 80053c8:	689b      	ldr	r3, [r3, #8]
 80053ca:	4293      	cmp	r3, r2
 80053cc:	bf28      	it	cs
 80053ce:	4613      	movcs	r3, r2
 80053d0:	461a      	mov	r2, r3
 80053d2:	6879      	ldr	r1, [r7, #4]
 80053d4:	68f8      	ldr	r0, [r7, #12]
 80053d6:	f000 ffad 	bl	8006334 <USBD_CtlContinueRx>
 80053da:	e030      	b.n	800543e <USBD_LL_DataOutStage+0xbc>
      }
      else
      {
        if ((pdev->pClass->EP0_RxReady != NULL) &&
 80053dc:	68fb      	ldr	r3, [r7, #12]
 80053de:	f8d3 32b8 	ldr.w	r3, [r3, #696]	; 0x2b8
 80053e2:	691b      	ldr	r3, [r3, #16]
 80053e4:	2b00      	cmp	r3, #0
 80053e6:	d00a      	beq.n	80053fe <USBD_LL_DataOutStage+0x7c>
            (pdev->dev_state == USBD_STATE_CONFIGURED))
 80053e8:	68fb      	ldr	r3, [r7, #12]
 80053ea:	f893 329c 	ldrb.w	r3, [r3, #668]	; 0x29c
        if ((pdev->pClass->EP0_RxReady != NULL) &&
 80053ee:	2b03      	cmp	r3, #3
 80053f0:	d105      	bne.n	80053fe <USBD_LL_DataOutStage+0x7c>
        {
          pdev->pClass->EP0_RxReady(pdev);
 80053f2:	68fb      	ldr	r3, [r7, #12]
 80053f4:	f8d3 32b8 	ldr.w	r3, [r3, #696]	; 0x2b8
 80053f8:	691b      	ldr	r3, [r3, #16]
 80053fa:	68f8      	ldr	r0, [r7, #12]
 80053fc:	4798      	blx	r3
        }
        (void)USBD_CtlSendStatus(pdev);
 80053fe:	68f8      	ldr	r0, [r7, #12]
 8005400:	f000 ffa9 	bl	8006356 <USBD_CtlSendStatus>
 8005404:	e01b      	b.n	800543e <USBD_LL_DataOutStage+0xbc>
        (void)USBD_LL_StallEP(pdev, 0U);
      }
#endif
    }
  }
  else if ((pdev->pClass->DataOut != NULL) &&
 8005406:	68fb      	ldr	r3, [r7, #12]
 8005408:	f8d3 32b8 	ldr.w	r3, [r3, #696]	; 0x2b8
 800540c:	699b      	ldr	r3, [r3, #24]
 800540e:	2b00      	cmp	r3, #0
 8005410:	d013      	beq.n	800543a <USBD_LL_DataOutStage+0xb8>
           (pdev->dev_state == USBD_STATE_CONFIGURED))
 8005412:	68fb      	ldr	r3, [r7, #12]
 8005414:	f893 329c 	ldrb.w	r3, [r3, #668]	; 0x29c
  else if ((pdev->pClass->DataOut != NULL) &&
 8005418:	2b03      	cmp	r3, #3
 800541a:	d10e      	bne.n	800543a <USBD_LL_DataOutStage+0xb8>
  {
    ret = (USBD_StatusTypeDef)pdev->pClass->DataOut(pdev, epnum);
 800541c:	68fb      	ldr	r3, [r7, #12]
 800541e:	f8d3 32b8 	ldr.w	r3, [r3, #696]	; 0x2b8
 8005422:	699b      	ldr	r3, [r3, #24]
 8005424:	7afa      	ldrb	r2, [r7, #11]
 8005426:	4611      	mov	r1, r2
 8005428:	68f8      	ldr	r0, [r7, #12]
 800542a:	4798      	blx	r3
 800542c:	4603      	mov	r3, r0
 800542e:	75fb      	strb	r3, [r7, #23]

    if (ret != USBD_OK)
 8005430:	7dfb      	ldrb	r3, [r7, #23]
 8005432:	2b00      	cmp	r3, #0
 8005434:	d003      	beq.n	800543e <USBD_LL_DataOutStage+0xbc>
    {
      return ret;
 8005436:	7dfb      	ldrb	r3, [r7, #23]
 8005438:	e002      	b.n	8005440 <USBD_LL_DataOutStage+0xbe>
    }
  }
  else
  {
    /* should never be in this condition */
    return USBD_FAIL;
 800543a:	2303      	movs	r3, #3
 800543c:	e000      	b.n	8005440 <USBD_LL_DataOutStage+0xbe>
  }

  return USBD_OK;
 800543e:	2300      	movs	r3, #0
}
 8005440:	4618      	mov	r0, r3
 8005442:	3718      	adds	r7, #24
 8005444:	46bd      	mov	sp, r7
 8005446:	bd80      	pop	{r7, pc}

08005448 <USBD_LL_DataInStage>:
* @param  epnum: endpoint index
* @retval status
*/
USBD_StatusTypeDef USBD_LL_DataInStage(USBD_HandleTypeDef *pdev,
                                       uint8_t epnum, uint8_t *pdata)
{
 8005448:	b580      	push	{r7, lr}
 800544a:	b086      	sub	sp, #24
 800544c:	af00      	add	r7, sp, #0
 800544e:	60f8      	str	r0, [r7, #12]
 8005450:	460b      	mov	r3, r1
 8005452:	607a      	str	r2, [r7, #4]
 8005454:	72fb      	strb	r3, [r7, #11]
  USBD_EndpointTypeDef *pep;
  USBD_StatusTypeDef ret;

  if (epnum == 0U)
 8005456:	7afb      	ldrb	r3, [r7, #11]
 8005458:	2b00      	cmp	r3, #0
 800545a:	d16a      	bne.n	8005532 <USBD_LL_DataInStage+0xea>
  {
    pep = &pdev->ep_in[0];
 800545c:	68fb      	ldr	r3, [r7, #12]
 800545e:	3314      	adds	r3, #20
 8005460:	613b      	str	r3, [r7, #16]

    if (pdev->ep0_state == USBD_EP0_DATA_IN)
 8005462:	68fb      	ldr	r3, [r7, #12]
 8005464:	f8d3 3294 	ldr.w	r3, [r3, #660]	; 0x294
 8005468:	2b02      	cmp	r3, #2
 800546a:	d155      	bne.n	8005518 <USBD_LL_DataInStage+0xd0>
    {
      if (pep->rem_length > pep->maxpacket)
 800546c:	693b      	ldr	r3, [r7, #16]
 800546e:	689a      	ldr	r2, [r3, #8]
 8005470:	693b      	ldr	r3, [r7, #16]
 8005472:	68db      	ldr	r3, [r3, #12]
 8005474:	429a      	cmp	r2, r3
 8005476:	d914      	bls.n	80054a2 <USBD_LL_DataInStage+0x5a>
      {
        pep->rem_length -= pep->maxpacket;
 8005478:	693b      	ldr	r3, [r7, #16]
 800547a:	689a      	ldr	r2, [r3, #8]
 800547c:	693b      	ldr	r3, [r7, #16]
 800547e:	68db      	ldr	r3, [r3, #12]
 8005480:	1ad2      	subs	r2, r2, r3
 8005482:	693b      	ldr	r3, [r7, #16]
 8005484:	609a      	str	r2, [r3, #8]

        (void)USBD_CtlContinueSendData(pdev, pdata, pep->rem_length);
 8005486:	693b      	ldr	r3, [r7, #16]
 8005488:	689b      	ldr	r3, [r3, #8]
 800548a:	461a      	mov	r2, r3
 800548c:	6879      	ldr	r1, [r7, #4]
 800548e:	68f8      	ldr	r0, [r7, #12]
 8005490:	f000 ff22 	bl	80062d8 <USBD_CtlContinueSendData>

        /* Prepare endpoint for premature end of transfer */
       (void)USBD_LL_PrepareReceive(pdev, 0U, NULL, 0U);
 8005494:	2300      	movs	r3, #0
 8005496:	2200      	movs	r2, #0
 8005498:	2100      	movs	r1, #0
 800549a:	68f8      	ldr	r0, [r7, #12]
 800549c:	f001 fc78 	bl	8006d90 <USBD_LL_PrepareReceive>
 80054a0:	e03a      	b.n	8005518 <USBD_LL_DataInStage+0xd0>
      }
      else
      {
        /* last packet is MPS multiple, so send ZLP packet */
        if ((pep->maxpacket == pep->rem_length) &&
 80054a2:	693b      	ldr	r3, [r7, #16]
 80054a4:	68da      	ldr	r2, [r3, #12]
 80054a6:	693b      	ldr	r3, [r7, #16]
 80054a8:	689b      	ldr	r3, [r3, #8]
 80054aa:	429a      	cmp	r2, r3
 80054ac:	d11c      	bne.n	80054e8 <USBD_LL_DataInStage+0xa0>
            (pep->total_length >= pep->maxpacket) &&
 80054ae:	693b      	ldr	r3, [r7, #16]
 80054b0:	685a      	ldr	r2, [r3, #4]
 80054b2:	693b      	ldr	r3, [r7, #16]
 80054b4:	68db      	ldr	r3, [r3, #12]
        if ((pep->maxpacket == pep->rem_length) &&
 80054b6:	429a      	cmp	r2, r3
 80054b8:	d316      	bcc.n	80054e8 <USBD_LL_DataInStage+0xa0>
            (pep->total_length < pdev->ep0_data_len))
 80054ba:	693b      	ldr	r3, [r7, #16]
 80054bc:	685a      	ldr	r2, [r3, #4]
 80054be:	68fb      	ldr	r3, [r7, #12]
 80054c0:	f8d3 3298 	ldr.w	r3, [r3, #664]	; 0x298
            (pep->total_length >= pep->maxpacket) &&
 80054c4:	429a      	cmp	r2, r3
 80054c6:	d20f      	bcs.n	80054e8 <USBD_LL_DataInStage+0xa0>
        {
          (void)USBD_CtlContinueSendData(pdev, NULL, 0U);
 80054c8:	2200      	movs	r2, #0
 80054ca:	2100      	movs	r1, #0
 80054cc:	68f8      	ldr	r0, [r7, #12]
 80054ce:	f000 ff03 	bl	80062d8 <USBD_CtlContinueSendData>
          pdev->ep0_data_len = 0U;
 80054d2:	68fb      	ldr	r3, [r7, #12]
 80054d4:	2200      	movs	r2, #0
 80054d6:	f8c3 2298 	str.w	r2, [r3, #664]	; 0x298

          /* Prepare endpoint for premature end of transfer */
          (void)USBD_LL_PrepareReceive(pdev, 0U, NULL, 0U);
 80054da:	2300      	movs	r3, #0
 80054dc:	2200      	movs	r2, #0
 80054de:	2100      	movs	r1, #0
 80054e0:	68f8      	ldr	r0, [r7, #12]
 80054e2:	f001 fc55 	bl	8006d90 <USBD_LL_PrepareReceive>
 80054e6:	e017      	b.n	8005518 <USBD_LL_DataInStage+0xd0>
        }
        else
        {
          if ((pdev->pClass->EP0_TxSent != NULL) &&
 80054e8:	68fb      	ldr	r3, [r7, #12]
 80054ea:	f8d3 32b8 	ldr.w	r3, [r3, #696]	; 0x2b8
 80054ee:	68db      	ldr	r3, [r3, #12]
 80054f0:	2b00      	cmp	r3, #0
 80054f2:	d00a      	beq.n	800550a <USBD_LL_DataInStage+0xc2>
              (pdev->dev_state == USBD_STATE_CONFIGURED))
 80054f4:	68fb      	ldr	r3, [r7, #12]
 80054f6:	f893 329c 	ldrb.w	r3, [r3, #668]	; 0x29c
          if ((pdev->pClass->EP0_TxSent != NULL) &&
 80054fa:	2b03      	cmp	r3, #3
 80054fc:	d105      	bne.n	800550a <USBD_LL_DataInStage+0xc2>
          {
            pdev->pClass->EP0_TxSent(pdev);
 80054fe:	68fb      	ldr	r3, [r7, #12]
 8005500:	f8d3 32b8 	ldr.w	r3, [r3, #696]	; 0x2b8
 8005504:	68db      	ldr	r3, [r3, #12]
 8005506:	68f8      	ldr	r0, [r7, #12]
 8005508:	4798      	blx	r3
          }
          (void)USBD_LL_StallEP(pdev, 0x80U);
 800550a:	2180      	movs	r1, #128	; 0x80
 800550c:	68f8      	ldr	r0, [r7, #12]
 800550e:	f001 fb95 	bl	8006c3c <USBD_LL_StallEP>
          (void)USBD_CtlReceiveStatus(pdev);
 8005512:	68f8      	ldr	r0, [r7, #12]
 8005514:	f000 ff32 	bl	800637c <USBD_CtlReceiveStatus>
        (void)USBD_LL_StallEP(pdev, 0x80U);
      }
#endif
    }

    if (pdev->dev_test_mode == 1U)
 8005518:	68fb      	ldr	r3, [r7, #12]
 800551a:	f893 32a0 	ldrb.w	r3, [r3, #672]	; 0x2a0
 800551e:	2b01      	cmp	r3, #1
 8005520:	d123      	bne.n	800556a <USBD_LL_DataInStage+0x122>
    {
      (void)USBD_RunTestMode(pdev);
 8005522:	68f8      	ldr	r0, [r7, #12]
 8005524:	f7ff fe9b 	bl	800525e <USBD_RunTestMode>
      pdev->dev_test_mode = 0U;
 8005528:	68fb      	ldr	r3, [r7, #12]
 800552a:	2200      	movs	r2, #0
 800552c:	f883 22a0 	strb.w	r2, [r3, #672]	; 0x2a0
 8005530:	e01b      	b.n	800556a <USBD_LL_DataInStage+0x122>
    }
  }
  else if ((pdev->pClass->DataIn != NULL) &&
 8005532:	68fb      	ldr	r3, [r7, #12]
 8005534:	f8d3 32b8 	ldr.w	r3, [r3, #696]	; 0x2b8
 8005538:	695b      	ldr	r3, [r3, #20]
 800553a:	2b00      	cmp	r3, #0
 800553c:	d013      	beq.n	8005566 <USBD_LL_DataInStage+0x11e>
           (pdev->dev_state == USBD_STATE_CONFIGURED))
 800553e:	68fb      	ldr	r3, [r7, #12]
 8005540:	f893 329c 	ldrb.w	r3, [r3, #668]	; 0x29c
  else if ((pdev->pClass->DataIn != NULL) &&
 8005544:	2b03      	cmp	r3, #3
 8005546:	d10e      	bne.n	8005566 <USBD_LL_DataInStage+0x11e>
  {
    ret = (USBD_StatusTypeDef)pdev->pClass->DataIn(pdev, epnum);
 8005548:	68fb      	ldr	r3, [r7, #12]
 800554a:	f8d3 32b8 	ldr.w	r3, [r3, #696]	; 0x2b8
 800554e:	695b      	ldr	r3, [r3, #20]
 8005550:	7afa      	ldrb	r2, [r7, #11]
 8005552:	4611      	mov	r1, r2
 8005554:	68f8      	ldr	r0, [r7, #12]
 8005556:	4798      	blx	r3
 8005558:	4603      	mov	r3, r0
 800555a:	75fb      	strb	r3, [r7, #23]

    if (ret != USBD_OK)
 800555c:	7dfb      	ldrb	r3, [r7, #23]
 800555e:	2b00      	cmp	r3, #0
 8005560:	d003      	beq.n	800556a <USBD_LL_DataInStage+0x122>
    {
      return ret;
 8005562:	7dfb      	ldrb	r3, [r7, #23]
 8005564:	e002      	b.n	800556c <USBD_LL_DataInStage+0x124>
    }
  }
  else
  {
    /* should never be in this condition */
    return USBD_FAIL;
 8005566:	2303      	movs	r3, #3
 8005568:	e000      	b.n	800556c <USBD_LL_DataInStage+0x124>
  }

  return USBD_OK;
 800556a:	2300      	movs	r3, #0
}
 800556c:	4618      	mov	r0, r3
 800556e:	3718      	adds	r7, #24
 8005570:	46bd      	mov	sp, r7
 8005572:	bd80      	pop	{r7, pc}

08005574 <USBD_LL_Reset>:
* @param  pdev: device instance
* @retval status
*/

USBD_StatusTypeDef USBD_LL_Reset(USBD_HandleTypeDef *pdev)
{
 8005574:	b580      	push	{r7, lr}
 8005576:	b082      	sub	sp, #8
 8005578:	af00      	add	r7, sp, #0
 800557a:	6078      	str	r0, [r7, #4]
  /* Upon Reset call user call back */
  pdev->dev_state = USBD_STATE_DEFAULT;
 800557c:	687b      	ldr	r3, [r7, #4]
 800557e:	2201      	movs	r2, #1
 8005580:	f883 229c 	strb.w	r2, [r3, #668]	; 0x29c
  pdev->ep0_state = USBD_EP0_IDLE;
 8005584:	687b      	ldr	r3, [r7, #4]
 8005586:	2200      	movs	r2, #0
 8005588:	f8c3 2294 	str.w	r2, [r3, #660]	; 0x294
  pdev->dev_config = 0U;
 800558c:	687b      	ldr	r3, [r7, #4]
 800558e:	2200      	movs	r2, #0
 8005590:	605a      	str	r2, [r3, #4]
  pdev->dev_remote_wakeup = 0U;
 8005592:	687b      	ldr	r3, [r7, #4]
 8005594:	2200      	movs	r2, #0
 8005596:	f8c3 22a4 	str.w	r2, [r3, #676]	; 0x2a4

  if (pdev->pClassData != NULL)
 800559a:	687b      	ldr	r3, [r7, #4]
 800559c:	f8d3 32bc 	ldr.w	r3, [r3, #700]	; 0x2bc
 80055a0:	2b00      	cmp	r3, #0
 80055a2:	d009      	beq.n	80055b8 <USBD_LL_Reset+0x44>
  {
    pdev->pClass->DeInit(pdev, (uint8_t)pdev->dev_config);
 80055a4:	687b      	ldr	r3, [r7, #4]
 80055a6:	f8d3 32b8 	ldr.w	r3, [r3, #696]	; 0x2b8
 80055aa:	685b      	ldr	r3, [r3, #4]
 80055ac:	687a      	ldr	r2, [r7, #4]
 80055ae:	6852      	ldr	r2, [r2, #4]
 80055b0:	b2d2      	uxtb	r2, r2
 80055b2:	4611      	mov	r1, r2
 80055b4:	6878      	ldr	r0, [r7, #4]
 80055b6:	4798      	blx	r3
  }

    /* Open EP0 OUT */
  (void)USBD_LL_OpenEP(pdev, 0x00U, USBD_EP_TYPE_CTRL, USB_MAX_EP0_SIZE);
 80055b8:	2340      	movs	r3, #64	; 0x40
 80055ba:	2200      	movs	r2, #0
 80055bc:	2100      	movs	r1, #0
 80055be:	6878      	ldr	r0, [r7, #4]
 80055c0:	f001 faf7 	bl	8006bb2 <USBD_LL_OpenEP>
  pdev->ep_out[0x00U & 0xFU].is_used = 1U;
 80055c4:	687b      	ldr	r3, [r7, #4]
 80055c6:	2201      	movs	r2, #1
 80055c8:	f8a3 2164 	strh.w	r2, [r3, #356]	; 0x164

  pdev->ep_out[0].maxpacket = USB_MAX_EP0_SIZE;
 80055cc:	687b      	ldr	r3, [r7, #4]
 80055ce:	2240      	movs	r2, #64	; 0x40
 80055d0:	f8c3 2160 	str.w	r2, [r3, #352]	; 0x160

  /* Open EP0 IN */
  (void)USBD_LL_OpenEP(pdev, 0x80U, USBD_EP_TYPE_CTRL, USB_MAX_EP0_SIZE);
 80055d4:	2340      	movs	r3, #64	; 0x40
 80055d6:	2200      	movs	r2, #0
 80055d8:	2180      	movs	r1, #128	; 0x80
 80055da:	6878      	ldr	r0, [r7, #4]
 80055dc:	f001 fae9 	bl	8006bb2 <USBD_LL_OpenEP>
  pdev->ep_in[0x80U & 0xFU].is_used = 1U;
 80055e0:	687b      	ldr	r3, [r7, #4]
 80055e2:	2201      	movs	r2, #1
 80055e4:	849a      	strh	r2, [r3, #36]	; 0x24

  pdev->ep_in[0].maxpacket = USB_MAX_EP0_SIZE;
 80055e6:	687b      	ldr	r3, [r7, #4]
 80055e8:	2240      	movs	r2, #64	; 0x40
 80055ea:	621a      	str	r2, [r3, #32]

  return USBD_OK;
 80055ec:	2300      	movs	r3, #0
}
 80055ee:	4618      	mov	r0, r3
 80055f0:	3708      	adds	r7, #8
 80055f2:	46bd      	mov	sp, r7
 80055f4:	bd80      	pop	{r7, pc}

080055f6 <USBD_LL_SetSpeed>:
* @param  pdev: device instance
* @retval status
*/
USBD_StatusTypeDef USBD_LL_SetSpeed(USBD_HandleTypeDef *pdev,
                                    USBD_SpeedTypeDef speed)
{
 80055f6:	b480      	push	{r7}
 80055f8:	b083      	sub	sp, #12
 80055fa:	af00      	add	r7, sp, #0
 80055fc:	6078      	str	r0, [r7, #4]
 80055fe:	460b      	mov	r3, r1
 8005600:	70fb      	strb	r3, [r7, #3]
  pdev->dev_speed = speed;
 8005602:	687b      	ldr	r3, [r7, #4]
 8005604:	78fa      	ldrb	r2, [r7, #3]
 8005606:	741a      	strb	r2, [r3, #16]

  return USBD_OK;
 8005608:	2300      	movs	r3, #0
}
 800560a:	4618      	mov	r0, r3
 800560c:	370c      	adds	r7, #12
 800560e:	46bd      	mov	sp, r7
 8005610:	f85d 7b04 	ldr.w	r7, [sp], #4
 8005614:	4770      	bx	lr

08005616 <USBD_LL_Suspend>:
* @param  pdev: device instance
* @retval status
*/

USBD_StatusTypeDef USBD_LL_Suspend(USBD_HandleTypeDef *pdev)
{
 8005616:	b480      	push	{r7}
 8005618:	b083      	sub	sp, #12
 800561a:	af00      	add	r7, sp, #0
 800561c:	6078      	str	r0, [r7, #4]
  pdev->dev_old_state = pdev->dev_state;
 800561e:	687b      	ldr	r3, [r7, #4]
 8005620:	f893 229c 	ldrb.w	r2, [r3, #668]	; 0x29c
 8005624:	687b      	ldr	r3, [r7, #4]
 8005626:	f883 229d 	strb.w	r2, [r3, #669]	; 0x29d
  pdev->dev_state = USBD_STATE_SUSPENDED;
 800562a:	687b      	ldr	r3, [r7, #4]
 800562c:	2204      	movs	r2, #4
 800562e:	f883 229c 	strb.w	r2, [r3, #668]	; 0x29c

  return USBD_OK;
 8005632:	2300      	movs	r3, #0
}
 8005634:	4618      	mov	r0, r3
 8005636:	370c      	adds	r7, #12
 8005638:	46bd      	mov	sp, r7
 800563a:	f85d 7b04 	ldr.w	r7, [sp], #4
 800563e:	4770      	bx	lr

08005640 <USBD_LL_Resume>:
* @param  pdev: device instance
* @retval status
*/

USBD_StatusTypeDef USBD_LL_Resume(USBD_HandleTypeDef *pdev)
{
 8005640:	b480      	push	{r7}
 8005642:	b083      	sub	sp, #12
 8005644:	af00      	add	r7, sp, #0
 8005646:	6078      	str	r0, [r7, #4]
  if (pdev->dev_state == USBD_STATE_SUSPENDED)
 8005648:	687b      	ldr	r3, [r7, #4]
 800564a:	f893 329c 	ldrb.w	r3, [r3, #668]	; 0x29c
 800564e:	2b04      	cmp	r3, #4
 8005650:	d105      	bne.n	800565e <USBD_LL_Resume+0x1e>
  {
    pdev->dev_state = pdev->dev_old_state;
 8005652:	687b      	ldr	r3, [r7, #4]
 8005654:	f893 229d 	ldrb.w	r2, [r3, #669]	; 0x29d
 8005658:	687b      	ldr	r3, [r7, #4]
 800565a:	f883 229c 	strb.w	r2, [r3, #668]	; 0x29c
  }

  return USBD_OK;
 800565e:	2300      	movs	r3, #0
}
 8005660:	4618      	mov	r0, r3
 8005662:	370c      	adds	r7, #12
 8005664:	46bd      	mov	sp, r7
 8005666:	f85d 7b04 	ldr.w	r7, [sp], #4
 800566a:	4770      	bx	lr

0800566c <USBD_LL_SOF>:
* @param  pdev: device instance
* @retval status
*/

USBD_StatusTypeDef USBD_LL_SOF(USBD_HandleTypeDef *pdev)
{
 800566c:	b580      	push	{r7, lr}
 800566e:	b082      	sub	sp, #8
 8005670:	af00      	add	r7, sp, #0
 8005672:	6078      	str	r0, [r7, #4]
  if (pdev->dev_state == USBD_STATE_CONFIGURED)
 8005674:	687b      	ldr	r3, [r7, #4]
 8005676:	f893 329c 	ldrb.w	r3, [r3, #668]	; 0x29c
 800567a:	2b03      	cmp	r3, #3
 800567c:	d10b      	bne.n	8005696 <USBD_LL_SOF+0x2a>
  {
    if (pdev->pClass->SOF != NULL)
 800567e:	687b      	ldr	r3, [r7, #4]
 8005680:	f8d3 32b8 	ldr.w	r3, [r3, #696]	; 0x2b8
 8005684:	69db      	ldr	r3, [r3, #28]
 8005686:	2b00      	cmp	r3, #0
 8005688:	d005      	beq.n	8005696 <USBD_LL_SOF+0x2a>
    {
      pdev->pClass->SOF(pdev);
 800568a:	687b      	ldr	r3, [r7, #4]
 800568c:	f8d3 32b8 	ldr.w	r3, [r3, #696]	; 0x2b8
 8005690:	69db      	ldr	r3, [r3, #28]
 8005692:	6878      	ldr	r0, [r7, #4]
 8005694:	4798      	blx	r3
    }
  }

  return USBD_OK;
 8005696:	2300      	movs	r3, #0
}
 8005698:	4618      	mov	r0, r3
 800569a:	3708      	adds	r7, #8
 800569c:	46bd      	mov	sp, r7
 800569e:	bd80      	pop	{r7, pc}

080056a0 <USBD_LL_IsoINIncomplete>:
* @param  pdev: device instance
* @retval status
*/
USBD_StatusTypeDef USBD_LL_IsoINIncomplete(USBD_HandleTypeDef *pdev,
                                           uint8_t epnum)
{
 80056a0:	b480      	push	{r7}
 80056a2:	b083      	sub	sp, #12
 80056a4:	af00      	add	r7, sp, #0
 80056a6:	6078      	str	r0, [r7, #4]
 80056a8:	460b      	mov	r3, r1
 80056aa:	70fb      	strb	r3, [r7, #3]
  /* Prevent unused arguments compilation warning */
  UNUSED(pdev);
  UNUSED(epnum);

  return USBD_OK;
 80056ac:	2300      	movs	r3, #0
}
 80056ae:	4618      	mov	r0, r3
 80056b0:	370c      	adds	r7, #12
 80056b2:	46bd      	mov	sp, r7
 80056b4:	f85d 7b04 	ldr.w	r7, [sp], #4
 80056b8:	4770      	bx	lr

080056ba <USBD_LL_IsoOUTIncomplete>:
* @param  pdev: device instance
* @retval status
*/
USBD_StatusTypeDef USBD_LL_IsoOUTIncomplete(USBD_HandleTypeDef *pdev,
                                            uint8_t epnum)
{
 80056ba:	b480      	push	{r7}
 80056bc:	b083      	sub	sp, #12
 80056be:	af00      	add	r7, sp, #0
 80056c0:	6078      	str	r0, [r7, #4]
 80056c2:	460b      	mov	r3, r1
 80056c4:	70fb      	strb	r3, [r7, #3]
  /* Prevent unused arguments compilation warning */
  UNUSED(pdev);
  UNUSED(epnum);

  return USBD_OK;
 80056c6:	2300      	movs	r3, #0
}
 80056c8:	4618      	mov	r0, r3
 80056ca:	370c      	adds	r7, #12
 80056cc:	46bd      	mov	sp, r7
 80056ce:	f85d 7b04 	ldr.w	r7, [sp], #4
 80056d2:	4770      	bx	lr

080056d4 <USBD_LL_DevConnected>:
*         Handle device connection event
* @param  pdev: device instance
* @retval status
*/
USBD_StatusTypeDef USBD_LL_DevConnected(USBD_HandleTypeDef *pdev)
{
 80056d4:	b480      	push	{r7}
 80056d6:	b083      	sub	sp, #12
 80056d8:	af00      	add	r7, sp, #0
 80056da:	6078      	str	r0, [r7, #4]
  /* Prevent unused argument compilation warning */
  UNUSED(pdev);

  return USBD_OK;
 80056dc:	2300      	movs	r3, #0
}
 80056de:	4618      	mov	r0, r3
 80056e0:	370c      	adds	r7, #12
 80056e2:	46bd      	mov	sp, r7
 80056e4:	f85d 7b04 	ldr.w	r7, [sp], #4
 80056e8:	4770      	bx	lr

080056ea <USBD_LL_DevDisconnected>:
*         Handle device disconnection event
* @param  pdev: device instance
* @retval status
*/
USBD_StatusTypeDef USBD_LL_DevDisconnected(USBD_HandleTypeDef *pdev)
{
 80056ea:	b580      	push	{r7, lr}
 80056ec:	b082      	sub	sp, #8
 80056ee:	af00      	add	r7, sp, #0
 80056f0:	6078      	str	r0, [r7, #4]
  /* Free Class Resources */
  pdev->dev_state = USBD_STATE_DEFAULT;
 80056f2:	687b      	ldr	r3, [r7, #4]
 80056f4:	2201      	movs	r2, #1
 80056f6:	f883 229c 	strb.w	r2, [r3, #668]	; 0x29c

  if (pdev->pClass != NULL)
 80056fa:	687b      	ldr	r3, [r7, #4]
 80056fc:	f8d3 32b8 	ldr.w	r3, [r3, #696]	; 0x2b8
 8005700:	2b00      	cmp	r3, #0
 8005702:	d009      	beq.n	8005718 <USBD_LL_DevDisconnected+0x2e>
  {
    pdev->pClass->DeInit(pdev, (uint8_t)pdev->dev_config);
 8005704:	687b      	ldr	r3, [r7, #4]
 8005706:	f8d3 32b8 	ldr.w	r3, [r3, #696]	; 0x2b8
 800570a:	685b      	ldr	r3, [r3, #4]
 800570c:	687a      	ldr	r2, [r7, #4]
 800570e:	6852      	ldr	r2, [r2, #4]
 8005710:	b2d2      	uxtb	r2, r2
 8005712:	4611      	mov	r1, r2
 8005714:	6878      	ldr	r0, [r7, #4]
 8005716:	4798      	blx	r3
  }

  return USBD_OK;
 8005718:	2300      	movs	r3, #0
}
 800571a:	4618      	mov	r0, r3
 800571c:	3708      	adds	r7, #8
 800571e:	46bd      	mov	sp, r7
 8005720:	bd80      	pop	{r7, pc}

08005722 <SWAPBYTE>:

/** @defgroup USBD_DEF_Exported_Macros
  * @{
  */
__STATIC_INLINE uint16_t SWAPBYTE(uint8_t *addr)
{
 8005722:	b480      	push	{r7}
 8005724:	b087      	sub	sp, #28
 8005726:	af00      	add	r7, sp, #0
 8005728:	6078      	str	r0, [r7, #4]
  uint16_t _SwapVal, _Byte1, _Byte2;
  uint8_t *_pbuff = addr;
 800572a:	687b      	ldr	r3, [r7, #4]
 800572c:	617b      	str	r3, [r7, #20]

  _Byte1 = *(uint8_t *)_pbuff;
 800572e:	697b      	ldr	r3, [r7, #20]
 8005730:	781b      	ldrb	r3, [r3, #0]
 8005732:	827b      	strh	r3, [r7, #18]
  _pbuff++;
 8005734:	697b      	ldr	r3, [r7, #20]
 8005736:	3301      	adds	r3, #1
 8005738:	617b      	str	r3, [r7, #20]
  _Byte2 = *(uint8_t *)_pbuff;
 800573a:	697b      	ldr	r3, [r7, #20]
 800573c:	781b      	ldrb	r3, [r3, #0]
 800573e:	823b      	strh	r3, [r7, #16]

  _SwapVal = (_Byte2 << 8) | _Byte1;
 8005740:	8a3b      	ldrh	r3, [r7, #16]
 8005742:	021b      	lsls	r3, r3, #8
 8005744:	b21a      	sxth	r2, r3
 8005746:	f9b7 3012 	ldrsh.w	r3, [r7, #18]
 800574a:	4313      	orrs	r3, r2
 800574c:	b21b      	sxth	r3, r3
 800574e:	81fb      	strh	r3, [r7, #14]

  return _SwapVal;
 8005750:	89fb      	ldrh	r3, [r7, #14]
}
 8005752:	4618      	mov	r0, r3
 8005754:	371c      	adds	r7, #28
 8005756:	46bd      	mov	sp, r7
 8005758:	f85d 7b04 	ldr.w	r7, [sp], #4
 800575c:	4770      	bx	lr
	...

08005760 <USBD_StdDevReq>:
* @param  pdev: device instance
* @param  req: usb request
* @retval status
*/
USBD_StatusTypeDef USBD_StdDevReq(USBD_HandleTypeDef *pdev, USBD_SetupReqTypedef *req)
{
 8005760:	b580      	push	{r7, lr}
 8005762:	b084      	sub	sp, #16
 8005764:	af00      	add	r7, sp, #0
 8005766:	6078      	str	r0, [r7, #4]
 8005768:	6039      	str	r1, [r7, #0]
  USBD_StatusTypeDef ret = USBD_OK;
 800576a:	2300      	movs	r3, #0
 800576c:	73fb      	strb	r3, [r7, #15]

  switch (req->bmRequest & USB_REQ_TYPE_MASK)
 800576e:	683b      	ldr	r3, [r7, #0]
 8005770:	781b      	ldrb	r3, [r3, #0]
 8005772:	f003 0360 	and.w	r3, r3, #96	; 0x60
 8005776:	2b20      	cmp	r3, #32
 8005778:	d004      	beq.n	8005784 <USBD_StdDevReq+0x24>
 800577a:	2b40      	cmp	r3, #64	; 0x40
 800577c:	d002      	beq.n	8005784 <USBD_StdDevReq+0x24>
 800577e:	2b00      	cmp	r3, #0
 8005780:	d00a      	beq.n	8005798 <USBD_StdDevReq+0x38>
 8005782:	e050      	b.n	8005826 <USBD_StdDevReq+0xc6>
  {
  case USB_REQ_TYPE_CLASS:
  case USB_REQ_TYPE_VENDOR:
    ret = (USBD_StatusTypeDef)pdev->pClass->Setup(pdev, req);
 8005784:	687b      	ldr	r3, [r7, #4]
 8005786:	f8d3 32b8 	ldr.w	r3, [r3, #696]	; 0x2b8
 800578a:	689b      	ldr	r3, [r3, #8]
 800578c:	6839      	ldr	r1, [r7, #0]
 800578e:	6878      	ldr	r0, [r7, #4]
 8005790:	4798      	blx	r3
 8005792:	4603      	mov	r3, r0
 8005794:	73fb      	strb	r3, [r7, #15]
    break;
 8005796:	e04b      	b.n	8005830 <USBD_StdDevReq+0xd0>

  case USB_REQ_TYPE_STANDARD:
    switch (req->bRequest)
 8005798:	683b      	ldr	r3, [r7, #0]
 800579a:	785b      	ldrb	r3, [r3, #1]
 800579c:	2b09      	cmp	r3, #9
 800579e:	d83c      	bhi.n	800581a <USBD_StdDevReq+0xba>
 80057a0:	a201      	add	r2, pc, #4	; (adr r2, 80057a8 <USBD_StdDevReq+0x48>)
 80057a2:	f852 f023 	ldr.w	pc, [r2, r3, lsl #2]
 80057a6:	bf00      	nop
 80057a8:	080057fd 	.word	0x080057fd
 80057ac:	08005811 	.word	0x08005811
 80057b0:	0800581b 	.word	0x0800581b
 80057b4:	08005807 	.word	0x08005807
 80057b8:	0800581b 	.word	0x0800581b
 80057bc:	080057db 	.word	0x080057db
 80057c0:	080057d1 	.word	0x080057d1
 80057c4:	0800581b 	.word	0x0800581b
 80057c8:	080057f3 	.word	0x080057f3
 80057cc:	080057e5 	.word	0x080057e5
    {
    case USB_REQ_GET_DESCRIPTOR:
      USBD_GetDescriptor(pdev, req);
 80057d0:	6839      	ldr	r1, [r7, #0]
 80057d2:	6878      	ldr	r0, [r7, #4]
 80057d4:	f000 f9ce 	bl	8005b74 <USBD_GetDescriptor>
      break;
 80057d8:	e024      	b.n	8005824 <USBD_StdDevReq+0xc4>

    case USB_REQ_SET_ADDRESS:
      USBD_SetAddress(pdev, req);
 80057da:	6839      	ldr	r1, [r7, #0]
 80057dc:	6878      	ldr	r0, [r7, #4]
 80057de:	f000 fb33 	bl	8005e48 <USBD_SetAddress>
      break;
 80057e2:	e01f      	b.n	8005824 <USBD_StdDevReq+0xc4>

    case USB_REQ_SET_CONFIGURATION:
      ret = USBD_SetConfig(pdev, req);
 80057e4:	6839      	ldr	r1, [r7, #0]
 80057e6:	6878      	ldr	r0, [r7, #4]
 80057e8:	f000 fb70 	bl	8005ecc <USBD_SetConfig>
 80057ec:	4603      	mov	r3, r0
 80057ee:	73fb      	strb	r3, [r7, #15]
      break;
 80057f0:	e018      	b.n	8005824 <USBD_StdDevReq+0xc4>

    case USB_REQ_GET_CONFIGURATION:
      USBD_GetConfig(pdev, req);
 80057f2:	6839      	ldr	r1, [r7, #0]
 80057f4:	6878      	ldr	r0, [r7, #4]
 80057f6:	f000 fc0d 	bl	8006014 <USBD_GetConfig>
      break;
 80057fa:	e013      	b.n	8005824 <USBD_StdDevReq+0xc4>

    case USB_REQ_GET_STATUS:
      USBD_GetStatus(pdev, req);
 80057fc:	6839      	ldr	r1, [r7, #0]
 80057fe:	6878      	ldr	r0, [r7, #4]
 8005800:	f000 fc3c 	bl	800607c <USBD_GetStatus>
      break;
 8005804:	e00e      	b.n	8005824 <USBD_StdDevReq+0xc4>

    case USB_REQ_SET_FEATURE:
      USBD_SetFeature(pdev, req);
 8005806:	6839      	ldr	r1, [r7, #0]
 8005808:	6878      	ldr	r0, [r7, #4]
 800580a:	f000 fc6a 	bl	80060e2 <USBD_SetFeature>
      break;
 800580e:	e009      	b.n	8005824 <USBD_StdDevReq+0xc4>

    case USB_REQ_CLEAR_FEATURE:
      USBD_ClrFeature(pdev, req);
 8005810:	6839      	ldr	r1, [r7, #0]
 8005812:	6878      	ldr	r0, [r7, #4]
 8005814:	f000 fc79 	bl	800610a <USBD_ClrFeature>
      break;
 8005818:	e004      	b.n	8005824 <USBD_StdDevReq+0xc4>

    default:
      USBD_CtlError(pdev, req);
 800581a:	6839      	ldr	r1, [r7, #0]
 800581c:	6878      	ldr	r0, [r7, #4]
 800581e:	f000 fccf 	bl	80061c0 <USBD_CtlError>
      break;
 8005822:	bf00      	nop
    }
    break;
 8005824:	e004      	b.n	8005830 <USBD_StdDevReq+0xd0>

  default:
    USBD_CtlError(pdev, req);
 8005826:	6839      	ldr	r1, [r7, #0]
 8005828:	6878      	ldr	r0, [r7, #4]
 800582a:	f000 fcc9 	bl	80061c0 <USBD_CtlError>
    break;
 800582e:	bf00      	nop
  }

  return ret;
 8005830:	7bfb      	ldrb	r3, [r7, #15]
}
 8005832:	4618      	mov	r0, r3
 8005834:	3710      	adds	r7, #16
 8005836:	46bd      	mov	sp, r7
 8005838:	bd80      	pop	{r7, pc}
 800583a:	bf00      	nop

0800583c <USBD_StdItfReq>:
* @param  pdev: device instance
* @param  req: usb request
* @retval status
*/
USBD_StatusTypeDef USBD_StdItfReq(USBD_HandleTypeDef *pdev, USBD_SetupReqTypedef *req)
{
 800583c:	b580      	push	{r7, lr}
 800583e:	b084      	sub	sp, #16
 8005840:	af00      	add	r7, sp, #0
 8005842:	6078      	str	r0, [r7, #4]
 8005844:	6039      	str	r1, [r7, #0]
  USBD_StatusTypeDef ret = USBD_OK;
 8005846:	2300      	movs	r3, #0
 8005848:	73fb      	strb	r3, [r7, #15]

  switch (req->bmRequest & USB_REQ_TYPE_MASK)
 800584a:	683b      	ldr	r3, [r7, #0]
 800584c:	781b      	ldrb	r3, [r3, #0]
 800584e:	f003 0360 	and.w	r3, r3, #96	; 0x60
 8005852:	2b20      	cmp	r3, #32
 8005854:	d003      	beq.n	800585e <USBD_StdItfReq+0x22>
 8005856:	2b40      	cmp	r3, #64	; 0x40
 8005858:	d001      	beq.n	800585e <USBD_StdItfReq+0x22>
 800585a:	2b00      	cmp	r3, #0
 800585c:	d12a      	bne.n	80058b4 <USBD_StdItfReq+0x78>
  {
  case USB_REQ_TYPE_CLASS:
  case USB_REQ_TYPE_VENDOR:
  case USB_REQ_TYPE_STANDARD:
    switch (pdev->dev_state)
 800585e:	687b      	ldr	r3, [r7, #4]
 8005860:	f893 329c 	ldrb.w	r3, [r3, #668]	; 0x29c
 8005864:	3b01      	subs	r3, #1
 8005866:	2b02      	cmp	r3, #2
 8005868:	d81d      	bhi.n	80058a6 <USBD_StdItfReq+0x6a>
    {
    case USBD_STATE_DEFAULT:
    case USBD_STATE_ADDRESSED:
    case USBD_STATE_CONFIGURED:

      if (LOBYTE(req->wIndex) <= USBD_MAX_NUM_INTERFACES)
 800586a:	683b      	ldr	r3, [r7, #0]
 800586c:	889b      	ldrh	r3, [r3, #4]
 800586e:	b2db      	uxtb	r3, r3
 8005870:	2b01      	cmp	r3, #1
 8005872:	d813      	bhi.n	800589c <USBD_StdItfReq+0x60>
      {
        ret = (USBD_StatusTypeDef)pdev->pClass->Setup(pdev, req);
 8005874:	687b      	ldr	r3, [r7, #4]
 8005876:	f8d3 32b8 	ldr.w	r3, [r3, #696]	; 0x2b8
 800587a:	689b      	ldr	r3, [r3, #8]
 800587c:	6839      	ldr	r1, [r7, #0]
 800587e:	6878      	ldr	r0, [r7, #4]
 8005880:	4798      	blx	r3
 8005882:	4603      	mov	r3, r0
 8005884:	73fb      	strb	r3, [r7, #15]

        if ((req->wLength == 0U) && (ret == USBD_OK))
 8005886:	683b      	ldr	r3, [r7, #0]
 8005888:	88db      	ldrh	r3, [r3, #6]
 800588a:	2b00      	cmp	r3, #0
 800588c:	d110      	bne.n	80058b0 <USBD_StdItfReq+0x74>
 800588e:	7bfb      	ldrb	r3, [r7, #15]
 8005890:	2b00      	cmp	r3, #0
 8005892:	d10d      	bne.n	80058b0 <USBD_StdItfReq+0x74>
        {
          (void)USBD_CtlSendStatus(pdev);
 8005894:	6878      	ldr	r0, [r7, #4]
 8005896:	f000 fd5e 	bl	8006356 <USBD_CtlSendStatus>
      }
      else
      {
        USBD_CtlError(pdev, req);
      }
      break;
 800589a:	e009      	b.n	80058b0 <USBD_StdItfReq+0x74>
        USBD_CtlError(pdev, req);
 800589c:	6839      	ldr	r1, [r7, #0]
 800589e:	6878      	ldr	r0, [r7, #4]
 80058a0:	f000 fc8e 	bl	80061c0 <USBD_CtlError>
      break;
 80058a4:	e004      	b.n	80058b0 <USBD_StdItfReq+0x74>

    default:
      USBD_CtlError(pdev, req);
 80058a6:	6839      	ldr	r1, [r7, #0]
 80058a8:	6878      	ldr	r0, [r7, #4]
 80058aa:	f000 fc89 	bl	80061c0 <USBD_CtlError>
      break;
 80058ae:	e000      	b.n	80058b2 <USBD_StdItfReq+0x76>
      break;
 80058b0:	bf00      	nop
    }
    break;
 80058b2:	e004      	b.n	80058be <USBD_StdItfReq+0x82>

  default:
    USBD_CtlError(pdev, req);
 80058b4:	6839      	ldr	r1, [r7, #0]
 80058b6:	6878      	ldr	r0, [r7, #4]
 80058b8:	f000 fc82 	bl	80061c0 <USBD_CtlError>
    break;
 80058bc:	bf00      	nop
  }

  return ret;
 80058be:	7bfb      	ldrb	r3, [r7, #15]
}
 80058c0:	4618      	mov	r0, r3
 80058c2:	3710      	adds	r7, #16
 80058c4:	46bd      	mov	sp, r7
 80058c6:	bd80      	pop	{r7, pc}

080058c8 <USBD_StdEPReq>:
* @param  pdev: device instance
* @param  req: usb request
* @retval status
*/
USBD_StatusTypeDef USBD_StdEPReq(USBD_HandleTypeDef *pdev, USBD_SetupReqTypedef *req)
{
 80058c8:	b580      	push	{r7, lr}
 80058ca:	b084      	sub	sp, #16
 80058cc:	af00      	add	r7, sp, #0
 80058ce:	6078      	str	r0, [r7, #4]
 80058d0:	6039      	str	r1, [r7, #0]
  USBD_EndpointTypeDef *pep;
  uint8_t ep_addr;
  USBD_StatusTypeDef ret = USBD_OK;
 80058d2:	2300      	movs	r3, #0
 80058d4:	73fb      	strb	r3, [r7, #15]
  ep_addr = LOBYTE(req->wIndex);
 80058d6:	683b      	ldr	r3, [r7, #0]
 80058d8:	889b      	ldrh	r3, [r3, #4]
 80058da:	73bb      	strb	r3, [r7, #14]

  switch (req->bmRequest & USB_REQ_TYPE_MASK)
 80058dc:	683b      	ldr	r3, [r7, #0]
 80058de:	781b      	ldrb	r3, [r3, #0]
 80058e0:	f003 0360 	and.w	r3, r3, #96	; 0x60
 80058e4:	2b20      	cmp	r3, #32
 80058e6:	d004      	beq.n	80058f2 <USBD_StdEPReq+0x2a>
 80058e8:	2b40      	cmp	r3, #64	; 0x40
 80058ea:	d002      	beq.n	80058f2 <USBD_StdEPReq+0x2a>
 80058ec:	2b00      	cmp	r3, #0
 80058ee:	d00a      	beq.n	8005906 <USBD_StdEPReq+0x3e>
 80058f0:	e135      	b.n	8005b5e <USBD_StdEPReq+0x296>
  {
  case USB_REQ_TYPE_CLASS:
  case USB_REQ_TYPE_VENDOR:
    ret = (USBD_StatusTypeDef)pdev->pClass->Setup(pdev, req);
 80058f2:	687b      	ldr	r3, [r7, #4]
 80058f4:	f8d3 32b8 	ldr.w	r3, [r3, #696]	; 0x2b8
 80058f8:	689b      	ldr	r3, [r3, #8]
 80058fa:	6839      	ldr	r1, [r7, #0]
 80058fc:	6878      	ldr	r0, [r7, #4]
 80058fe:	4798      	blx	r3
 8005900:	4603      	mov	r3, r0
 8005902:	73fb      	strb	r3, [r7, #15]
    break;
 8005904:	e130      	b.n	8005b68 <USBD_StdEPReq+0x2a0>

  case USB_REQ_TYPE_STANDARD:
    switch (req->bRequest)
 8005906:	683b      	ldr	r3, [r7, #0]
 8005908:	785b      	ldrb	r3, [r3, #1]
 800590a:	2b01      	cmp	r3, #1
 800590c:	d03e      	beq.n	800598c <USBD_StdEPReq+0xc4>
 800590e:	2b03      	cmp	r3, #3
 8005910:	d002      	beq.n	8005918 <USBD_StdEPReq+0x50>
 8005912:	2b00      	cmp	r3, #0
 8005914:	d077      	beq.n	8005a06 <USBD_StdEPReq+0x13e>
 8005916:	e11c      	b.n	8005b52 <USBD_StdEPReq+0x28a>
    {
    case USB_REQ_SET_FEATURE:
      switch (pdev->dev_state)
 8005918:	687b      	ldr	r3, [r7, #4]
 800591a:	f893 329c 	ldrb.w	r3, [r3, #668]	; 0x29c
 800591e:	2b02      	cmp	r3, #2
 8005920:	d002      	beq.n	8005928 <USBD_StdEPReq+0x60>
 8005922:	2b03      	cmp	r3, #3
 8005924:	d015      	beq.n	8005952 <USBD_StdEPReq+0x8a>
 8005926:	e02b      	b.n	8005980 <USBD_StdEPReq+0xb8>
      {
      case USBD_STATE_ADDRESSED:
        if ((ep_addr != 0x00U) && (ep_addr != 0x80U))
 8005928:	7bbb      	ldrb	r3, [r7, #14]
 800592a:	2b00      	cmp	r3, #0
 800592c:	d00c      	beq.n	8005948 <USBD_StdEPReq+0x80>
 800592e:	7bbb      	ldrb	r3, [r7, #14]
 8005930:	2b80      	cmp	r3, #128	; 0x80
 8005932:	d009      	beq.n	8005948 <USBD_StdEPReq+0x80>
        {
          (void)USBD_LL_StallEP(pdev, ep_addr);
 8005934:	7bbb      	ldrb	r3, [r7, #14]
 8005936:	4619      	mov	r1, r3
 8005938:	6878      	ldr	r0, [r7, #4]
 800593a:	f001 f97f 	bl	8006c3c <USBD_LL_StallEP>
          (void)USBD_LL_StallEP(pdev, 0x80U);
 800593e:	2180      	movs	r1, #128	; 0x80
 8005940:	6878      	ldr	r0, [r7, #4]
 8005942:	f001 f97b 	bl	8006c3c <USBD_LL_StallEP>
        }
        else
        {
          USBD_CtlError(pdev, req);
        }
        break;
 8005946:	e020      	b.n	800598a <USBD_StdEPReq+0xc2>
          USBD_CtlError(pdev, req);
 8005948:	6839      	ldr	r1, [r7, #0]
 800594a:	6878      	ldr	r0, [r7, #4]
 800594c:	f000 fc38 	bl	80061c0 <USBD_CtlError>
        break;
 8005950:	e01b      	b.n	800598a <USBD_StdEPReq+0xc2>

      case USBD_STATE_CONFIGURED:
        if (req->wValue == USB_FEATURE_EP_HALT)
 8005952:	683b      	ldr	r3, [r7, #0]
 8005954:	885b      	ldrh	r3, [r3, #2]
 8005956:	2b00      	cmp	r3, #0
 8005958:	d10e      	bne.n	8005978 <USBD_StdEPReq+0xb0>
        {
          if ((ep_addr != 0x00U) && (ep_addr != 0x80U) && (req->wLength == 0x00U))
 800595a:	7bbb      	ldrb	r3, [r7, #14]
 800595c:	2b00      	cmp	r3, #0
 800595e:	d00b      	beq.n	8005978 <USBD_StdEPReq+0xb0>
 8005960:	7bbb      	ldrb	r3, [r7, #14]
 8005962:	2b80      	cmp	r3, #128	; 0x80
 8005964:	d008      	beq.n	8005978 <USBD_StdEPReq+0xb0>
 8005966:	683b      	ldr	r3, [r7, #0]
 8005968:	88db      	ldrh	r3, [r3, #6]
 800596a:	2b00      	cmp	r3, #0
 800596c:	d104      	bne.n	8005978 <USBD_StdEPReq+0xb0>
          {
            (void)USBD_LL_StallEP(pdev, ep_addr);
 800596e:	7bbb      	ldrb	r3, [r7, #14]
 8005970:	4619      	mov	r1, r3
 8005972:	6878      	ldr	r0, [r7, #4]
 8005974:	f001 f962 	bl	8006c3c <USBD_LL_StallEP>
          }
        }
        (void)USBD_CtlSendStatus(pdev);
 8005978:	6878      	ldr	r0, [r7, #4]
 800597a:	f000 fcec 	bl	8006356 <USBD_CtlSendStatus>

        break;
 800597e:	e004      	b.n	800598a <USBD_StdEPReq+0xc2>

      default:
        USBD_CtlError(pdev, req);
 8005980:	6839      	ldr	r1, [r7, #0]
 8005982:	6878      	ldr	r0, [r7, #4]
 8005984:	f000 fc1c 	bl	80061c0 <USBD_CtlError>
        break;
 8005988:	bf00      	nop
      }
      break;
 800598a:	e0e7      	b.n	8005b5c <USBD_StdEPReq+0x294>

    case USB_REQ_CLEAR_FEATURE:

      switch (pdev->dev_state)
 800598c:	687b      	ldr	r3, [r7, #4]
 800598e:	f893 329c 	ldrb.w	r3, [r3, #668]	; 0x29c
 8005992:	2b02      	cmp	r3, #2
 8005994:	d002      	beq.n	800599c <USBD_StdEPReq+0xd4>
 8005996:	2b03      	cmp	r3, #3
 8005998:	d015      	beq.n	80059c6 <USBD_StdEPReq+0xfe>
 800599a:	e02d      	b.n	80059f8 <USBD_StdEPReq+0x130>
      {
      case USBD_STATE_ADDRESSED:
        if ((ep_addr != 0x00U) && (ep_addr != 0x80U))
 800599c:	7bbb      	ldrb	r3, [r7, #14]
 800599e:	2b00      	cmp	r3, #0
 80059a0:	d00c      	beq.n	80059bc <USBD_StdEPReq+0xf4>
 80059a2:	7bbb      	ldrb	r3, [r7, #14]
 80059a4:	2b80      	cmp	r3, #128	; 0x80
 80059a6:	d009      	beq.n	80059bc <USBD_StdEPReq+0xf4>
        {
          (void)USBD_LL_StallEP(pdev, ep_addr);
 80059a8:	7bbb      	ldrb	r3, [r7, #14]
 80059aa:	4619      	mov	r1, r3
 80059ac:	6878      	ldr	r0, [r7, #4]
 80059ae:	f001 f945 	bl	8006c3c <USBD_LL_StallEP>
          (void)USBD_LL_StallEP(pdev, 0x80U);
 80059b2:	2180      	movs	r1, #128	; 0x80
 80059b4:	6878      	ldr	r0, [r7, #4]
 80059b6:	f001 f941 	bl	8006c3c <USBD_LL_StallEP>
        }
        else
        {
          USBD_CtlError(pdev, req);
        }
        break;
 80059ba:	e023      	b.n	8005a04 <USBD_StdEPReq+0x13c>
          USBD_CtlError(pdev, req);
 80059bc:	6839      	ldr	r1, [r7, #0]
 80059be:	6878      	ldr	r0, [r7, #4]
 80059c0:	f000 fbfe 	bl	80061c0 <USBD_CtlError>
        break;
 80059c4:	e01e      	b.n	8005a04 <USBD_StdEPReq+0x13c>

      case USBD_STATE_CONFIGURED:
        if (req->wValue == USB_FEATURE_EP_HALT)
 80059c6:	683b      	ldr	r3, [r7, #0]
 80059c8:	885b      	ldrh	r3, [r3, #2]
 80059ca:	2b00      	cmp	r3, #0
 80059cc:	d119      	bne.n	8005a02 <USBD_StdEPReq+0x13a>
        {
          if ((ep_addr & 0x7FU) != 0x00U)
 80059ce:	7bbb      	ldrb	r3, [r7, #14]
 80059d0:	f003 037f 	and.w	r3, r3, #127	; 0x7f
 80059d4:	2b00      	cmp	r3, #0
 80059d6:	d004      	beq.n	80059e2 <USBD_StdEPReq+0x11a>
          {
            (void)USBD_LL_ClearStallEP(pdev, ep_addr);
 80059d8:	7bbb      	ldrb	r3, [r7, #14]
 80059da:	4619      	mov	r1, r3
 80059dc:	6878      	ldr	r0, [r7, #4]
 80059de:	f001 f94c 	bl	8006c7a <USBD_LL_ClearStallEP>
          }
          (void)USBD_CtlSendStatus(pdev);
 80059e2:	6878      	ldr	r0, [r7, #4]
 80059e4:	f000 fcb7 	bl	8006356 <USBD_CtlSendStatus>
          (USBD_StatusTypeDef)pdev->pClass->Setup(pdev, req);
 80059e8:	687b      	ldr	r3, [r7, #4]
 80059ea:	f8d3 32b8 	ldr.w	r3, [r3, #696]	; 0x2b8
 80059ee:	689b      	ldr	r3, [r3, #8]
 80059f0:	6839      	ldr	r1, [r7, #0]
 80059f2:	6878      	ldr	r0, [r7, #4]
 80059f4:	4798      	blx	r3
        }
        break;
 80059f6:	e004      	b.n	8005a02 <USBD_StdEPReq+0x13a>

      default:
        USBD_CtlError(pdev, req);
 80059f8:	6839      	ldr	r1, [r7, #0]
 80059fa:	6878      	ldr	r0, [r7, #4]
 80059fc:	f000 fbe0 	bl	80061c0 <USBD_CtlError>
        break;
 8005a00:	e000      	b.n	8005a04 <USBD_StdEPReq+0x13c>
        break;
 8005a02:	bf00      	nop
      }
      break;
 8005a04:	e0aa      	b.n	8005b5c <USBD_StdEPReq+0x294>

    case USB_REQ_GET_STATUS:
      switch (pdev->dev_state)
 8005a06:	687b      	ldr	r3, [r7, #4]
 8005a08:	f893 329c 	ldrb.w	r3, [r3, #668]	; 0x29c
 8005a0c:	2b02      	cmp	r3, #2
 8005a0e:	d002      	beq.n	8005a16 <USBD_StdEPReq+0x14e>
 8005a10:	2b03      	cmp	r3, #3
 8005a12:	d032      	beq.n	8005a7a <USBD_StdEPReq+0x1b2>
 8005a14:	e097      	b.n	8005b46 <USBD_StdEPReq+0x27e>
      {
      case USBD_STATE_ADDRESSED:
        if ((ep_addr != 0x00U) && (ep_addr != 0x80U))
 8005a16:	7bbb      	ldrb	r3, [r7, #14]
 8005a18:	2b00      	cmp	r3, #0
 8005a1a:	d007      	beq.n	8005a2c <USBD_StdEPReq+0x164>
 8005a1c:	7bbb      	ldrb	r3, [r7, #14]
 8005a1e:	2b80      	cmp	r3, #128	; 0x80
 8005a20:	d004      	beq.n	8005a2c <USBD_StdEPReq+0x164>
        {
          USBD_CtlError(pdev, req);
 8005a22:	6839      	ldr	r1, [r7, #0]
 8005a24:	6878      	ldr	r0, [r7, #4]
 8005a26:	f000 fbcb 	bl	80061c0 <USBD_CtlError>
          break;
 8005a2a:	e091      	b.n	8005b50 <USBD_StdEPReq+0x288>
        }
        pep = ((ep_addr & 0x80U) == 0x80U) ? &pdev->ep_in[ep_addr & 0x7FU] : \
 8005a2c:	f997 300e 	ldrsb.w	r3, [r7, #14]
 8005a30:	2b00      	cmp	r3, #0
 8005a32:	da0b      	bge.n	8005a4c <USBD_StdEPReq+0x184>
 8005a34:	7bbb      	ldrb	r3, [r7, #14]
 8005a36:	f003 027f 	and.w	r2, r3, #127	; 0x7f
 8005a3a:	4613      	mov	r3, r2
 8005a3c:	009b      	lsls	r3, r3, #2
 8005a3e:	4413      	add	r3, r2
 8005a40:	009b      	lsls	r3, r3, #2
 8005a42:	3310      	adds	r3, #16
 8005a44:	687a      	ldr	r2, [r7, #4]
 8005a46:	4413      	add	r3, r2
 8005a48:	3304      	adds	r3, #4
 8005a4a:	e00b      	b.n	8005a64 <USBD_StdEPReq+0x19c>
              &pdev->ep_out[ep_addr & 0x7FU];
 8005a4c:	7bbb      	ldrb	r3, [r7, #14]
 8005a4e:	f003 027f 	and.w	r2, r3, #127	; 0x7f
        pep = ((ep_addr & 0x80U) == 0x80U) ? &pdev->ep_in[ep_addr & 0x7FU] : \
 8005a52:	4613      	mov	r3, r2
 8005a54:	009b      	lsls	r3, r3, #2
 8005a56:	4413      	add	r3, r2
 8005a58:	009b      	lsls	r3, r3, #2
 8005a5a:	f503 73a8 	add.w	r3, r3, #336	; 0x150
 8005a5e:	687a      	ldr	r2, [r7, #4]
 8005a60:	4413      	add	r3, r2
 8005a62:	3304      	adds	r3, #4
 8005a64:	60bb      	str	r3, [r7, #8]

        pep->status = 0x0000U;
 8005a66:	68bb      	ldr	r3, [r7, #8]
 8005a68:	2200      	movs	r2, #0
 8005a6a:	601a      	str	r2, [r3, #0]

        (void)USBD_CtlSendData(pdev, (uint8_t *)&pep->status, 2U);
 8005a6c:	68bb      	ldr	r3, [r7, #8]
 8005a6e:	2202      	movs	r2, #2
 8005a70:	4619      	mov	r1, r3
 8005a72:	6878      	ldr	r0, [r7, #4]
 8005a74:	f000 fc15 	bl	80062a2 <USBD_CtlSendData>
        break;
 8005a78:	e06a      	b.n	8005b50 <USBD_StdEPReq+0x288>

      case USBD_STATE_CONFIGURED:
        if ((ep_addr & 0x80U) == 0x80U)
 8005a7a:	f997 300e 	ldrsb.w	r3, [r7, #14]
 8005a7e:	2b00      	cmp	r3, #0
 8005a80:	da11      	bge.n	8005aa6 <USBD_StdEPReq+0x1de>
        {
          if (pdev->ep_in[ep_addr & 0xFU].is_used == 0U)
 8005a82:	7bbb      	ldrb	r3, [r7, #14]
 8005a84:	f003 020f 	and.w	r2, r3, #15
 8005a88:	6879      	ldr	r1, [r7, #4]
 8005a8a:	4613      	mov	r3, r2
 8005a8c:	009b      	lsls	r3, r3, #2
 8005a8e:	4413      	add	r3, r2
 8005a90:	009b      	lsls	r3, r3, #2
 8005a92:	440b      	add	r3, r1
 8005a94:	3324      	adds	r3, #36	; 0x24
 8005a96:	881b      	ldrh	r3, [r3, #0]
 8005a98:	2b00      	cmp	r3, #0
 8005a9a:	d117      	bne.n	8005acc <USBD_StdEPReq+0x204>
          {
            USBD_CtlError(pdev, req);
 8005a9c:	6839      	ldr	r1, [r7, #0]
 8005a9e:	6878      	ldr	r0, [r7, #4]
 8005aa0:	f000 fb8e 	bl	80061c0 <USBD_CtlError>
            break;
 8005aa4:	e054      	b.n	8005b50 <USBD_StdEPReq+0x288>
          }
        }
        else
        {
          if (pdev->ep_out[ep_addr & 0xFU].is_used == 0U)
 8005aa6:	7bbb      	ldrb	r3, [r7, #14]
 8005aa8:	f003 020f 	and.w	r2, r3, #15
 8005aac:	6879      	ldr	r1, [r7, #4]
 8005aae:	4613      	mov	r3, r2
 8005ab0:	009b      	lsls	r3, r3, #2
 8005ab2:	4413      	add	r3, r2
 8005ab4:	009b      	lsls	r3, r3, #2
 8005ab6:	440b      	add	r3, r1
 8005ab8:	f503 73b2 	add.w	r3, r3, #356	; 0x164
 8005abc:	881b      	ldrh	r3, [r3, #0]
 8005abe:	2b00      	cmp	r3, #0
 8005ac0:	d104      	bne.n	8005acc <USBD_StdEPReq+0x204>
          {
            USBD_CtlError(pdev, req);
 8005ac2:	6839      	ldr	r1, [r7, #0]
 8005ac4:	6878      	ldr	r0, [r7, #4]
 8005ac6:	f000 fb7b 	bl	80061c0 <USBD_CtlError>
            break;
 8005aca:	e041      	b.n	8005b50 <USBD_StdEPReq+0x288>
          }
        }

        pep = ((ep_addr & 0x80U) == 0x80U) ? &pdev->ep_in[ep_addr & 0x7FU] : \
 8005acc:	f997 300e 	ldrsb.w	r3, [r7, #14]
 8005ad0:	2b00      	cmp	r3, #0
 8005ad2:	da0b      	bge.n	8005aec <USBD_StdEPReq+0x224>
 8005ad4:	7bbb      	ldrb	r3, [r7, #14]
 8005ad6:	f003 027f 	and.w	r2, r3, #127	; 0x7f
 8005ada:	4613      	mov	r3, r2
 8005adc:	009b      	lsls	r3, r3, #2
 8005ade:	4413      	add	r3, r2
 8005ae0:	009b      	lsls	r3, r3, #2
 8005ae2:	3310      	adds	r3, #16
 8005ae4:	687a      	ldr	r2, [r7, #4]
 8005ae6:	4413      	add	r3, r2
 8005ae8:	3304      	adds	r3, #4
 8005aea:	e00b      	b.n	8005b04 <USBD_StdEPReq+0x23c>
              &pdev->ep_out[ep_addr & 0x7FU];
 8005aec:	7bbb      	ldrb	r3, [r7, #14]
 8005aee:	f003 027f 	and.w	r2, r3, #127	; 0x7f
        pep = ((ep_addr & 0x80U) == 0x80U) ? &pdev->ep_in[ep_addr & 0x7FU] : \
 8005af2:	4613      	mov	r3, r2
 8005af4:	009b      	lsls	r3, r3, #2
 8005af6:	4413      	add	r3, r2
 8005af8:	009b      	lsls	r3, r3, #2
 8005afa:	f503 73a8 	add.w	r3, r3, #336	; 0x150
 8005afe:	687a      	ldr	r2, [r7, #4]
 8005b00:	4413      	add	r3, r2
 8005b02:	3304      	adds	r3, #4
 8005b04:	60bb      	str	r3, [r7, #8]

          if ((ep_addr == 0x00U) || (ep_addr == 0x80U))
 8005b06:	7bbb      	ldrb	r3, [r7, #14]
 8005b08:	2b00      	cmp	r3, #0
 8005b0a:	d002      	beq.n	8005b12 <USBD_StdEPReq+0x24a>
 8005b0c:	7bbb      	ldrb	r3, [r7, #14]
 8005b0e:	2b80      	cmp	r3, #128	; 0x80
 8005b10:	d103      	bne.n	8005b1a <USBD_StdEPReq+0x252>
          {
            pep->status = 0x0000U;
 8005b12:	68bb      	ldr	r3, [r7, #8]
 8005b14:	2200      	movs	r2, #0
 8005b16:	601a      	str	r2, [r3, #0]
 8005b18:	e00e      	b.n	8005b38 <USBD_StdEPReq+0x270>
          }
          else if (USBD_LL_IsStallEP(pdev, ep_addr) != 0U)
 8005b1a:	7bbb      	ldrb	r3, [r7, #14]
 8005b1c:	4619      	mov	r1, r3
 8005b1e:	6878      	ldr	r0, [r7, #4]
 8005b20:	f001 f8ca 	bl	8006cb8 <USBD_LL_IsStallEP>
 8005b24:	4603      	mov	r3, r0
 8005b26:	2b00      	cmp	r3, #0
 8005b28:	d003      	beq.n	8005b32 <USBD_StdEPReq+0x26a>
          {
            pep->status = 0x0001U;
 8005b2a:	68bb      	ldr	r3, [r7, #8]
 8005b2c:	2201      	movs	r2, #1
 8005b2e:	601a      	str	r2, [r3, #0]
 8005b30:	e002      	b.n	8005b38 <USBD_StdEPReq+0x270>
          }
          else
          {
            pep->status = 0x0000U;
 8005b32:	68bb      	ldr	r3, [r7, #8]
 8005b34:	2200      	movs	r2, #0
 8005b36:	601a      	str	r2, [r3, #0]
          }

          (void)USBD_CtlSendData(pdev, (uint8_t *)&pep->status, 2U);
 8005b38:	68bb      	ldr	r3, [r7, #8]
 8005b3a:	2202      	movs	r2, #2
 8005b3c:	4619      	mov	r1, r3
 8005b3e:	6878      	ldr	r0, [r7, #4]
 8005b40:	f000 fbaf 	bl	80062a2 <USBD_CtlSendData>
          break;
 8005b44:	e004      	b.n	8005b50 <USBD_StdEPReq+0x288>

      default:
        USBD_CtlError(pdev, req);
 8005b46:	6839      	ldr	r1, [r7, #0]
 8005b48:	6878      	ldr	r0, [r7, #4]
 8005b4a:	f000 fb39 	bl	80061c0 <USBD_CtlError>
        break;
 8005b4e:	bf00      	nop
      }
      break;
 8005b50:	e004      	b.n	8005b5c <USBD_StdEPReq+0x294>

    default:
      USBD_CtlError(pdev, req);
 8005b52:	6839      	ldr	r1, [r7, #0]
 8005b54:	6878      	ldr	r0, [r7, #4]
 8005b56:	f000 fb33 	bl	80061c0 <USBD_CtlError>
      break;
 8005b5a:	bf00      	nop
    }
    break;
 8005b5c:	e004      	b.n	8005b68 <USBD_StdEPReq+0x2a0>

  default:
    USBD_CtlError(pdev, req);
 8005b5e:	6839      	ldr	r1, [r7, #0]
 8005b60:	6878      	ldr	r0, [r7, #4]
 8005b62:	f000 fb2d 	bl	80061c0 <USBD_CtlError>
    break;
 8005b66:	bf00      	nop
  }

  return ret;
 8005b68:	7bfb      	ldrb	r3, [r7, #15]
}
 8005b6a:	4618      	mov	r0, r3
 8005b6c:	3710      	adds	r7, #16
 8005b6e:	46bd      	mov	sp, r7
 8005b70:	bd80      	pop	{r7, pc}
	...

08005b74 <USBD_GetDescriptor>:
* @param  pdev: device instance
* @param  req: usb request
* @retval status
*/
static void USBD_GetDescriptor(USBD_HandleTypeDef *pdev, USBD_SetupReqTypedef *req)
{
 8005b74:	b580      	push	{r7, lr}
 8005b76:	b084      	sub	sp, #16
 8005b78:	af00      	add	r7, sp, #0
 8005b7a:	6078      	str	r0, [r7, #4]
 8005b7c:	6039      	str	r1, [r7, #0]
  uint16_t len = 0U;
 8005b7e:	2300      	movs	r3, #0
 8005b80:	813b      	strh	r3, [r7, #8]
  uint8_t *pbuf = NULL;
 8005b82:	2300      	movs	r3, #0
 8005b84:	60fb      	str	r3, [r7, #12]
  uint8_t err = 0U;
 8005b86:	2300      	movs	r3, #0
 8005b88:	72fb      	strb	r3, [r7, #11]

  switch (req->wValue >> 8)
 8005b8a:	683b      	ldr	r3, [r7, #0]
 8005b8c:	885b      	ldrh	r3, [r3, #2]
 8005b8e:	0a1b      	lsrs	r3, r3, #8
 8005b90:	b29b      	uxth	r3, r3
 8005b92:	3b01      	subs	r3, #1
 8005b94:	2b06      	cmp	r3, #6
 8005b96:	f200 8128 	bhi.w	8005dea <USBD_GetDescriptor+0x276>
 8005b9a:	a201      	add	r2, pc, #4	; (adr r2, 8005ba0 <USBD_GetDescriptor+0x2c>)
 8005b9c:	f852 f023 	ldr.w	pc, [r2, r3, lsl #2]
 8005ba0:	08005bbd 	.word	0x08005bbd
 8005ba4:	08005bd5 	.word	0x08005bd5
 8005ba8:	08005c15 	.word	0x08005c15
 8005bac:	08005deb 	.word	0x08005deb
 8005bb0:	08005deb 	.word	0x08005deb
 8005bb4:	08005d8b 	.word	0x08005d8b
 8005bb8:	08005db7 	.word	0x08005db7
      err++;
    }
    break;
#endif
  case USB_DESC_TYPE_DEVICE:
    pbuf = pdev->pDesc->GetDeviceDescriptor(pdev->dev_speed, &len);
 8005bbc:	687b      	ldr	r3, [r7, #4]
 8005bbe:	f8d3 32b4 	ldr.w	r3, [r3, #692]	; 0x2b4
 8005bc2:	681b      	ldr	r3, [r3, #0]
 8005bc4:	687a      	ldr	r2, [r7, #4]
 8005bc6:	7c12      	ldrb	r2, [r2, #16]
 8005bc8:	f107 0108 	add.w	r1, r7, #8
 8005bcc:	4610      	mov	r0, r2
 8005bce:	4798      	blx	r3
 8005bd0:	60f8      	str	r0, [r7, #12]
    break;
 8005bd2:	e112      	b.n	8005dfa <USBD_GetDescriptor+0x286>

  case USB_DESC_TYPE_CONFIGURATION:
    if (pdev->dev_speed == USBD_SPEED_HIGH)
 8005bd4:	687b      	ldr	r3, [r7, #4]
 8005bd6:	7c1b      	ldrb	r3, [r3, #16]
 8005bd8:	2b00      	cmp	r3, #0
 8005bda:	d10d      	bne.n	8005bf8 <USBD_GetDescriptor+0x84>
    {
      pbuf = pdev->pClass->GetHSConfigDescriptor(&len);
 8005bdc:	687b      	ldr	r3, [r7, #4]
 8005bde:	f8d3 32b8 	ldr.w	r3, [r3, #696]	; 0x2b8
 8005be2:	6a9b      	ldr	r3, [r3, #40]	; 0x28
 8005be4:	f107 0208 	add.w	r2, r7, #8
 8005be8:	4610      	mov	r0, r2
 8005bea:	4798      	blx	r3
 8005bec:	60f8      	str	r0, [r7, #12]
      pbuf[1] = USB_DESC_TYPE_CONFIGURATION;
 8005bee:	68fb      	ldr	r3, [r7, #12]
 8005bf0:	3301      	adds	r3, #1
 8005bf2:	2202      	movs	r2, #2
 8005bf4:	701a      	strb	r2, [r3, #0]
    else
    {
      pbuf = pdev->pClass->GetFSConfigDescriptor(&len);
      pbuf[1] = USB_DESC_TYPE_CONFIGURATION;
    }
    break;
 8005bf6:	e100      	b.n	8005dfa <USBD_GetDescriptor+0x286>
      pbuf = pdev->pClass->GetFSConfigDescriptor(&len);
 8005bf8:	687b      	ldr	r3, [r7, #4]
 8005bfa:	f8d3 32b8 	ldr.w	r3, [r3, #696]	; 0x2b8
 8005bfe:	6adb      	ldr	r3, [r3, #44]	; 0x2c
 8005c00:	f107 0208 	add.w	r2, r7, #8
 8005c04:	4610      	mov	r0, r2
 8005c06:	4798      	blx	r3
 8005c08:	60f8      	str	r0, [r7, #12]
      pbuf[1] = USB_DESC_TYPE_CONFIGURATION;
 8005c0a:	68fb      	ldr	r3, [r7, #12]
 8005c0c:	3301      	adds	r3, #1
 8005c0e:	2202      	movs	r2, #2
 8005c10:	701a      	strb	r2, [r3, #0]
    break;
 8005c12:	e0f2      	b.n	8005dfa <USBD_GetDescriptor+0x286>

  case USB_DESC_TYPE_STRING:
    switch ((uint8_t)(req->wValue))
 8005c14:	683b      	ldr	r3, [r7, #0]
 8005c16:	885b      	ldrh	r3, [r3, #2]
 8005c18:	b2db      	uxtb	r3, r3
 8005c1a:	2b05      	cmp	r3, #5
 8005c1c:	f200 80ac 	bhi.w	8005d78 <USBD_GetDescriptor+0x204>
 8005c20:	a201      	add	r2, pc, #4	; (adr r2, 8005c28 <USBD_GetDescriptor+0xb4>)
 8005c22:	f852 f023 	ldr.w	pc, [r2, r3, lsl #2]
 8005c26:	bf00      	nop
 8005c28:	08005c41 	.word	0x08005c41
 8005c2c:	08005c75 	.word	0x08005c75
 8005c30:	08005ca9 	.word	0x08005ca9
 8005c34:	08005cdd 	.word	0x08005cdd
 8005c38:	08005d11 	.word	0x08005d11
 8005c3c:	08005d45 	.word	0x08005d45
    {
    case USBD_IDX_LANGID_STR:
      if (pdev->pDesc->GetLangIDStrDescriptor != NULL)
 8005c40:	687b      	ldr	r3, [r7, #4]
 8005c42:	f8d3 32b4 	ldr.w	r3, [r3, #692]	; 0x2b4
 8005c46:	685b      	ldr	r3, [r3, #4]
 8005c48:	2b00      	cmp	r3, #0
 8005c4a:	d00b      	beq.n	8005c64 <USBD_GetDescriptor+0xf0>
      {
        pbuf = pdev->pDesc->GetLangIDStrDescriptor(pdev->dev_speed, &len);
 8005c4c:	687b      	ldr	r3, [r7, #4]
 8005c4e:	f8d3 32b4 	ldr.w	r3, [r3, #692]	; 0x2b4
 8005c52:	685b      	ldr	r3, [r3, #4]
 8005c54:	687a      	ldr	r2, [r7, #4]
 8005c56:	7c12      	ldrb	r2, [r2, #16]
 8005c58:	f107 0108 	add.w	r1, r7, #8
 8005c5c:	4610      	mov	r0, r2
 8005c5e:	4798      	blx	r3
 8005c60:	60f8      	str	r0, [r7, #12]
      else
      {
        USBD_CtlError(pdev, req);
        err++;
      }
      break;
 8005c62:	e091      	b.n	8005d88 <USBD_GetDescriptor+0x214>
        USBD_CtlError(pdev, req);
 8005c64:	6839      	ldr	r1, [r7, #0]
 8005c66:	6878      	ldr	r0, [r7, #4]
 8005c68:	f000 faaa 	bl	80061c0 <USBD_CtlError>
        err++;
 8005c6c:	7afb      	ldrb	r3, [r7, #11]
 8005c6e:	3301      	adds	r3, #1
 8005c70:	72fb      	strb	r3, [r7, #11]
      break;
 8005c72:	e089      	b.n	8005d88 <USBD_GetDescriptor+0x214>

    case USBD_IDX_MFC_STR:
      if (pdev->pDesc->GetManufacturerStrDescriptor != NULL)
 8005c74:	687b      	ldr	r3, [r7, #4]
 8005c76:	f8d3 32b4 	ldr.w	r3, [r3, #692]	; 0x2b4
 8005c7a:	689b      	ldr	r3, [r3, #8]
 8005c7c:	2b00      	cmp	r3, #0
 8005c7e:	d00b      	beq.n	8005c98 <USBD_GetDescriptor+0x124>
      {
        pbuf = pdev->pDesc->GetManufacturerStrDescriptor(pdev->dev_speed, &len);
 8005c80:	687b      	ldr	r3, [r7, #4]
 8005c82:	f8d3 32b4 	ldr.w	r3, [r3, #692]	; 0x2b4
 8005c86:	689b      	ldr	r3, [r3, #8]
 8005c88:	687a      	ldr	r2, [r7, #4]
 8005c8a:	7c12      	ldrb	r2, [r2, #16]
 8005c8c:	f107 0108 	add.w	r1, r7, #8
 8005c90:	4610      	mov	r0, r2
 8005c92:	4798      	blx	r3
 8005c94:	60f8      	str	r0, [r7, #12]
      else
      {
        USBD_CtlError(pdev, req);
        err++;
      }
      break;
 8005c96:	e077      	b.n	8005d88 <USBD_GetDescriptor+0x214>
        USBD_CtlError(pdev, req);
 8005c98:	6839      	ldr	r1, [r7, #0]
 8005c9a:	6878      	ldr	r0, [r7, #4]
 8005c9c:	f000 fa90 	bl	80061c0 <USBD_CtlError>
        err++;
 8005ca0:	7afb      	ldrb	r3, [r7, #11]
 8005ca2:	3301      	adds	r3, #1
 8005ca4:	72fb      	strb	r3, [r7, #11]
      break;
 8005ca6:	e06f      	b.n	8005d88 <USBD_GetDescriptor+0x214>

    case USBD_IDX_PRODUCT_STR:
      if (pdev->pDesc->GetProductStrDescriptor != NULL)
 8005ca8:	687b      	ldr	r3, [r7, #4]
 8005caa:	f8d3 32b4 	ldr.w	r3, [r3, #692]	; 0x2b4
 8005cae:	68db      	ldr	r3, [r3, #12]
 8005cb0:	2b00      	cmp	r3, #0
 8005cb2:	d00b      	beq.n	8005ccc <USBD_GetDescriptor+0x158>
      {
        pbuf = pdev->pDesc->GetProductStrDescriptor(pdev->dev_speed, &len);
 8005cb4:	687b      	ldr	r3, [r7, #4]
 8005cb6:	f8d3 32b4 	ldr.w	r3, [r3, #692]	; 0x2b4
 8005cba:	68db      	ldr	r3, [r3, #12]
 8005cbc:	687a      	ldr	r2, [r7, #4]
 8005cbe:	7c12      	ldrb	r2, [r2, #16]
 8005cc0:	f107 0108 	add.w	r1, r7, #8
 8005cc4:	4610      	mov	r0, r2
 8005cc6:	4798      	blx	r3
 8005cc8:	60f8      	str	r0, [r7, #12]
      else
      {
        USBD_CtlError(pdev, req);
        err++;
      }
      break;
 8005cca:	e05d      	b.n	8005d88 <USBD_GetDescriptor+0x214>
        USBD_CtlError(pdev, req);
 8005ccc:	6839      	ldr	r1, [r7, #0]
 8005cce:	6878      	ldr	r0, [r7, #4]
 8005cd0:	f000 fa76 	bl	80061c0 <USBD_CtlError>
        err++;
 8005cd4:	7afb      	ldrb	r3, [r7, #11]
 8005cd6:	3301      	adds	r3, #1
 8005cd8:	72fb      	strb	r3, [r7, #11]
      break;
 8005cda:	e055      	b.n	8005d88 <USBD_GetDescriptor+0x214>

    case USBD_IDX_SERIAL_STR:
      if (pdev->pDesc->GetSerialStrDescriptor != NULL)
 8005cdc:	687b      	ldr	r3, [r7, #4]
 8005cde:	f8d3 32b4 	ldr.w	r3, [r3, #692]	; 0x2b4
 8005ce2:	691b      	ldr	r3, [r3, #16]
 8005ce4:	2b00      	cmp	r3, #0
 8005ce6:	d00b      	beq.n	8005d00 <USBD_GetDescriptor+0x18c>
      {
        pbuf = pdev->pDesc->GetSerialStrDescriptor(pdev->dev_speed, &len);
 8005ce8:	687b      	ldr	r3, [r7, #4]
 8005cea:	f8d3 32b4 	ldr.w	r3, [r3, #692]	; 0x2b4
 8005cee:	691b      	ldr	r3, [r3, #16]
 8005cf0:	687a      	ldr	r2, [r7, #4]
 8005cf2:	7c12      	ldrb	r2, [r2, #16]
 8005cf4:	f107 0108 	add.w	r1, r7, #8
 8005cf8:	4610      	mov	r0, r2
 8005cfa:	4798      	blx	r3
 8005cfc:	60f8      	str	r0, [r7, #12]
      else
      {
        USBD_CtlError(pdev, req);
        err++;
      }
      break;
 8005cfe:	e043      	b.n	8005d88 <USBD_GetDescriptor+0x214>
        USBD_CtlError(pdev, req);
 8005d00:	6839      	ldr	r1, [r7, #0]
 8005d02:	6878      	ldr	r0, [r7, #4]
 8005d04:	f000 fa5c 	bl	80061c0 <USBD_CtlError>
        err++;
 8005d08:	7afb      	ldrb	r3, [r7, #11]
 8005d0a:	3301      	adds	r3, #1
 8005d0c:	72fb      	strb	r3, [r7, #11]
      break;
 8005d0e:	e03b      	b.n	8005d88 <USBD_GetDescriptor+0x214>

    case USBD_IDX_CONFIG_STR:
      if (pdev->pDesc->GetConfigurationStrDescriptor != NULL)
 8005d10:	687b      	ldr	r3, [r7, #4]
 8005d12:	f8d3 32b4 	ldr.w	r3, [r3, #692]	; 0x2b4
 8005d16:	695b      	ldr	r3, [r3, #20]
 8005d18:	2b00      	cmp	r3, #0
 8005d1a:	d00b      	beq.n	8005d34 <USBD_GetDescriptor+0x1c0>
      {
        pbuf = pdev->pDesc->GetConfigurationStrDescriptor(pdev->dev_speed, &len);
 8005d1c:	687b      	ldr	r3, [r7, #4]
 8005d1e:	f8d3 32b4 	ldr.w	r3, [r3, #692]	; 0x2b4
 8005d22:	695b      	ldr	r3, [r3, #20]
 8005d24:	687a      	ldr	r2, [r7, #4]
 8005d26:	7c12      	ldrb	r2, [r2, #16]
 8005d28:	f107 0108 	add.w	r1, r7, #8
 8005d2c:	4610      	mov	r0, r2
 8005d2e:	4798      	blx	r3
 8005d30:	60f8      	str	r0, [r7, #12]
      else
      {
        USBD_CtlError(pdev, req);
        err++;
      }
      break;
 8005d32:	e029      	b.n	8005d88 <USBD_GetDescriptor+0x214>
        USBD_CtlError(pdev, req);
 8005d34:	6839      	ldr	r1, [r7, #0]
 8005d36:	6878      	ldr	r0, [r7, #4]
 8005d38:	f000 fa42 	bl	80061c0 <USBD_CtlError>
        err++;
 8005d3c:	7afb      	ldrb	r3, [r7, #11]
 8005d3e:	3301      	adds	r3, #1
 8005d40:	72fb      	strb	r3, [r7, #11]
      break;
 8005d42:	e021      	b.n	8005d88 <USBD_GetDescriptor+0x214>

    case USBD_IDX_INTERFACE_STR:
      if (pdev->pDesc->GetInterfaceStrDescriptor != NULL)
 8005d44:	687b      	ldr	r3, [r7, #4]
 8005d46:	f8d3 32b4 	ldr.w	r3, [r3, #692]	; 0x2b4
 8005d4a:	699b      	ldr	r3, [r3, #24]
 8005d4c:	2b00      	cmp	r3, #0
 8005d4e:	d00b      	beq.n	8005d68 <USBD_GetDescriptor+0x1f4>
      {
        pbuf = pdev->pDesc->GetInterfaceStrDescriptor(pdev->dev_speed, &len);
 8005d50:	687b      	ldr	r3, [r7, #4]
 8005d52:	f8d3 32b4 	ldr.w	r3, [r3, #692]	; 0x2b4
 8005d56:	699b      	ldr	r3, [r3, #24]
 8005d58:	687a      	ldr	r2, [r7, #4]
 8005d5a:	7c12      	ldrb	r2, [r2, #16]
 8005d5c:	f107 0108 	add.w	r1, r7, #8
 8005d60:	4610      	mov	r0, r2
 8005d62:	4798      	blx	r3
 8005d64:	60f8      	str	r0, [r7, #12]
      else
      {
        USBD_CtlError(pdev, req);
        err++;
      }
      break;
 8005d66:	e00f      	b.n	8005d88 <USBD_GetDescriptor+0x214>
        USBD_CtlError(pdev, req);
 8005d68:	6839      	ldr	r1, [r7, #0]
 8005d6a:	6878      	ldr	r0, [r7, #4]
 8005d6c:	f000 fa28 	bl	80061c0 <USBD_CtlError>
        err++;
 8005d70:	7afb      	ldrb	r3, [r7, #11]
 8005d72:	3301      	adds	r3, #1
 8005d74:	72fb      	strb	r3, [r7, #11]
      break;
 8005d76:	e007      	b.n	8005d88 <USBD_GetDescriptor+0x214>
      {
        USBD_CtlError(pdev, req);
        err++;
      }
#else
      USBD_CtlError(pdev, req);
 8005d78:	6839      	ldr	r1, [r7, #0]
 8005d7a:	6878      	ldr	r0, [r7, #4]
 8005d7c:	f000 fa20 	bl	80061c0 <USBD_CtlError>
      err++;
 8005d80:	7afb      	ldrb	r3, [r7, #11]
 8005d82:	3301      	adds	r3, #1
 8005d84:	72fb      	strb	r3, [r7, #11]
#endif
      break;
 8005d86:	bf00      	nop
    }
    break;
 8005d88:	e037      	b.n	8005dfa <USBD_GetDescriptor+0x286>

  case USB_DESC_TYPE_DEVICE_QUALIFIER:
    if (pdev->dev_speed == USBD_SPEED_HIGH)
 8005d8a:	687b      	ldr	r3, [r7, #4]
 8005d8c:	7c1b      	ldrb	r3, [r3, #16]
 8005d8e:	2b00      	cmp	r3, #0
 8005d90:	d109      	bne.n	8005da6 <USBD_GetDescriptor+0x232>
    {
      pbuf = pdev->pClass->GetDeviceQualifierDescriptor(&len);
 8005d92:	687b      	ldr	r3, [r7, #4]
 8005d94:	f8d3 32b8 	ldr.w	r3, [r3, #696]	; 0x2b8
 8005d98:	6b5b      	ldr	r3, [r3, #52]	; 0x34
 8005d9a:	f107 0208 	add.w	r2, r7, #8
 8005d9e:	4610      	mov	r0, r2
 8005da0:	4798      	blx	r3
 8005da2:	60f8      	str	r0, [r7, #12]
    else
    {
      USBD_CtlError(pdev, req);
      err++;
    }
    break;
 8005da4:	e029      	b.n	8005dfa <USBD_GetDescriptor+0x286>
      USBD_CtlError(pdev, req);
 8005da6:	6839      	ldr	r1, [r7, #0]
 8005da8:	6878      	ldr	r0, [r7, #4]
 8005daa:	f000 fa09 	bl	80061c0 <USBD_CtlError>
      err++;
 8005dae:	7afb      	ldrb	r3, [r7, #11]
 8005db0:	3301      	adds	r3, #1
 8005db2:	72fb      	strb	r3, [r7, #11]
    break;
 8005db4:	e021      	b.n	8005dfa <USBD_GetDescriptor+0x286>

  case USB_DESC_TYPE_OTHER_SPEED_CONFIGURATION:
    if (pdev->dev_speed == USBD_SPEED_HIGH)
 8005db6:	687b      	ldr	r3, [r7, #4]
 8005db8:	7c1b      	ldrb	r3, [r3, #16]
 8005dba:	2b00      	cmp	r3, #0
 8005dbc:	d10d      	bne.n	8005dda <USBD_GetDescriptor+0x266>
    {
      pbuf = pdev->pClass->GetOtherSpeedConfigDescriptor(&len);
 8005dbe:	687b      	ldr	r3, [r7, #4]
 8005dc0:	f8d3 32b8 	ldr.w	r3, [r3, #696]	; 0x2b8
 8005dc4:	6b1b      	ldr	r3, [r3, #48]	; 0x30
 8005dc6:	f107 0208 	add.w	r2, r7, #8
 8005dca:	4610      	mov	r0, r2
 8005dcc:	4798      	blx	r3
 8005dce:	60f8      	str	r0, [r7, #12]
      pbuf[1] = USB_DESC_TYPE_OTHER_SPEED_CONFIGURATION;
 8005dd0:	68fb      	ldr	r3, [r7, #12]
 8005dd2:	3301      	adds	r3, #1
 8005dd4:	2207      	movs	r2, #7
 8005dd6:	701a      	strb	r2, [r3, #0]
    else
    {
      USBD_CtlError(pdev, req);
      err++;
    }
    break;
 8005dd8:	e00f      	b.n	8005dfa <USBD_GetDescriptor+0x286>
      USBD_CtlError(pdev, req);
 8005dda:	6839      	ldr	r1, [r7, #0]
 8005ddc:	6878      	ldr	r0, [r7, #4]
 8005dde:	f000 f9ef 	bl	80061c0 <USBD_CtlError>
      err++;
 8005de2:	7afb      	ldrb	r3, [r7, #11]
 8005de4:	3301      	adds	r3, #1
 8005de6:	72fb      	strb	r3, [r7, #11]
    break;
 8005de8:	e007      	b.n	8005dfa <USBD_GetDescriptor+0x286>

  default:
    USBD_CtlError(pdev, req);
 8005dea:	6839      	ldr	r1, [r7, #0]
 8005dec:	6878      	ldr	r0, [r7, #4]
 8005dee:	f000 f9e7 	bl	80061c0 <USBD_CtlError>
    err++;
 8005df2:	7afb      	ldrb	r3, [r7, #11]
 8005df4:	3301      	adds	r3, #1
 8005df6:	72fb      	strb	r3, [r7, #11]
    break;
 8005df8:	bf00      	nop
  }

  if (err != 0U)
 8005dfa:	7afb      	ldrb	r3, [r7, #11]
 8005dfc:	2b00      	cmp	r3, #0
 8005dfe:	d11e      	bne.n	8005e3e <USBD_GetDescriptor+0x2ca>
  {
    return;
  }
  else
  {
    if (req->wLength != 0U)
 8005e00:	683b      	ldr	r3, [r7, #0]
 8005e02:	88db      	ldrh	r3, [r3, #6]
 8005e04:	2b00      	cmp	r3, #0
 8005e06:	d016      	beq.n	8005e36 <USBD_GetDescriptor+0x2c2>
    {
      if (len != 0U)
 8005e08:	893b      	ldrh	r3, [r7, #8]
 8005e0a:	2b00      	cmp	r3, #0
 8005e0c:	d00e      	beq.n	8005e2c <USBD_GetDescriptor+0x2b8>
      {
        len = MIN(len, req->wLength);
 8005e0e:	683b      	ldr	r3, [r7, #0]
 8005e10:	88da      	ldrh	r2, [r3, #6]
 8005e12:	893b      	ldrh	r3, [r7, #8]
 8005e14:	4293      	cmp	r3, r2
 8005e16:	bf28      	it	cs
 8005e18:	4613      	movcs	r3, r2
 8005e1a:	b29b      	uxth	r3, r3
 8005e1c:	813b      	strh	r3, [r7, #8]
        (void)USBD_CtlSendData(pdev, pbuf, len);
 8005e1e:	893b      	ldrh	r3, [r7, #8]
 8005e20:	461a      	mov	r2, r3
 8005e22:	68f9      	ldr	r1, [r7, #12]
 8005e24:	6878      	ldr	r0, [r7, #4]
 8005e26:	f000 fa3c 	bl	80062a2 <USBD_CtlSendData>
 8005e2a:	e009      	b.n	8005e40 <USBD_GetDescriptor+0x2cc>
      }
      else
      {
        USBD_CtlError(pdev, req);
 8005e2c:	6839      	ldr	r1, [r7, #0]
 8005e2e:	6878      	ldr	r0, [r7, #4]
 8005e30:	f000 f9c6 	bl	80061c0 <USBD_CtlError>
 8005e34:	e004      	b.n	8005e40 <USBD_GetDescriptor+0x2cc>
      }
    }
    else
    {
      (void)USBD_CtlSendStatus(pdev);
 8005e36:	6878      	ldr	r0, [r7, #4]
 8005e38:	f000 fa8d 	bl	8006356 <USBD_CtlSendStatus>
 8005e3c:	e000      	b.n	8005e40 <USBD_GetDescriptor+0x2cc>
    return;
 8005e3e:	bf00      	nop
    }
  }
}
 8005e40:	3710      	adds	r7, #16
 8005e42:	46bd      	mov	sp, r7
 8005e44:	bd80      	pop	{r7, pc}
 8005e46:	bf00      	nop

08005e48 <USBD_SetAddress>:
* @param  pdev: device instance
* @param  req: usb request
* @retval status
*/
static void USBD_SetAddress(USBD_HandleTypeDef *pdev, USBD_SetupReqTypedef *req)
{
 8005e48:	b580      	push	{r7, lr}
 8005e4a:	b084      	sub	sp, #16
 8005e4c:	af00      	add	r7, sp, #0
 8005e4e:	6078      	str	r0, [r7, #4]
 8005e50:	6039      	str	r1, [r7, #0]
  uint8_t  dev_addr;

  if ((req->wIndex == 0U) && (req->wLength == 0U) && (req->wValue < 128U))
 8005e52:	683b      	ldr	r3, [r7, #0]
 8005e54:	889b      	ldrh	r3, [r3, #4]
 8005e56:	2b00      	cmp	r3, #0
 8005e58:	d130      	bne.n	8005ebc <USBD_SetAddress+0x74>
 8005e5a:	683b      	ldr	r3, [r7, #0]
 8005e5c:	88db      	ldrh	r3, [r3, #6]
 8005e5e:	2b00      	cmp	r3, #0
 8005e60:	d12c      	bne.n	8005ebc <USBD_SetAddress+0x74>
 8005e62:	683b      	ldr	r3, [r7, #0]
 8005e64:	885b      	ldrh	r3, [r3, #2]
 8005e66:	2b7f      	cmp	r3, #127	; 0x7f
 8005e68:	d828      	bhi.n	8005ebc <USBD_SetAddress+0x74>
  {
    dev_addr = (uint8_t)(req->wValue) & 0x7FU;
 8005e6a:	683b      	ldr	r3, [r7, #0]
 8005e6c:	885b      	ldrh	r3, [r3, #2]
 8005e6e:	b2db      	uxtb	r3, r3
 8005e70:	f003 037f 	and.w	r3, r3, #127	; 0x7f
 8005e74:	73fb      	strb	r3, [r7, #15]

    if (pdev->dev_state == USBD_STATE_CONFIGURED)
 8005e76:	687b      	ldr	r3, [r7, #4]
 8005e78:	f893 329c 	ldrb.w	r3, [r3, #668]	; 0x29c
 8005e7c:	2b03      	cmp	r3, #3
 8005e7e:	d104      	bne.n	8005e8a <USBD_SetAddress+0x42>
    {
      USBD_CtlError(pdev, req);
 8005e80:	6839      	ldr	r1, [r7, #0]
 8005e82:	6878      	ldr	r0, [r7, #4]
 8005e84:	f000 f99c 	bl	80061c0 <USBD_CtlError>
    if (pdev->dev_state == USBD_STATE_CONFIGURED)
 8005e88:	e01c      	b.n	8005ec4 <USBD_SetAddress+0x7c>
    }
    else
    {
      pdev->dev_address = dev_addr;
 8005e8a:	687b      	ldr	r3, [r7, #4]
 8005e8c:	7bfa      	ldrb	r2, [r7, #15]
 8005e8e:	f883 229e 	strb.w	r2, [r3, #670]	; 0x29e
      (void)USBD_LL_SetUSBAddress(pdev, dev_addr);
 8005e92:	7bfb      	ldrb	r3, [r7, #15]
 8005e94:	4619      	mov	r1, r3
 8005e96:	6878      	ldr	r0, [r7, #4]
 8005e98:	f000 ff3a 	bl	8006d10 <USBD_LL_SetUSBAddress>
      (void)USBD_CtlSendStatus(pdev);
 8005e9c:	6878      	ldr	r0, [r7, #4]
 8005e9e:	f000 fa5a 	bl	8006356 <USBD_CtlSendStatus>

      if (dev_addr != 0U)
 8005ea2:	7bfb      	ldrb	r3, [r7, #15]
 8005ea4:	2b00      	cmp	r3, #0
 8005ea6:	d004      	beq.n	8005eb2 <USBD_SetAddress+0x6a>
      {
        pdev->dev_state = USBD_STATE_ADDRESSED;
 8005ea8:	687b      	ldr	r3, [r7, #4]
 8005eaa:	2202      	movs	r2, #2
 8005eac:	f883 229c 	strb.w	r2, [r3, #668]	; 0x29c
    if (pdev->dev_state == USBD_STATE_CONFIGURED)
 8005eb0:	e008      	b.n	8005ec4 <USBD_SetAddress+0x7c>
      }
      else
      {
        pdev->dev_state = USBD_STATE_DEFAULT;
 8005eb2:	687b      	ldr	r3, [r7, #4]
 8005eb4:	2201      	movs	r2, #1
 8005eb6:	f883 229c 	strb.w	r2, [r3, #668]	; 0x29c
    if (pdev->dev_state == USBD_STATE_CONFIGURED)
 8005eba:	e003      	b.n	8005ec4 <USBD_SetAddress+0x7c>
      }
    }
  }
  else
  {
    USBD_CtlError(pdev, req);
 8005ebc:	6839      	ldr	r1, [r7, #0]
 8005ebe:	6878      	ldr	r0, [r7, #4]
 8005ec0:	f000 f97e 	bl	80061c0 <USBD_CtlError>
  }
}
 8005ec4:	bf00      	nop
 8005ec6:	3710      	adds	r7, #16
 8005ec8:	46bd      	mov	sp, r7
 8005eca:	bd80      	pop	{r7, pc}

08005ecc <USBD_SetConfig>:
* @param  pdev: device instance
* @param  req: usb request
* @retval status
*/
static USBD_StatusTypeDef USBD_SetConfig(USBD_HandleTypeDef *pdev, USBD_SetupReqTypedef *req)
{
 8005ecc:	b580      	push	{r7, lr}
 8005ece:	b084      	sub	sp, #16
 8005ed0:	af00      	add	r7, sp, #0
 8005ed2:	6078      	str	r0, [r7, #4]
 8005ed4:	6039      	str	r1, [r7, #0]
  USBD_StatusTypeDef ret = USBD_OK;
 8005ed6:	2300      	movs	r3, #0
 8005ed8:	73fb      	strb	r3, [r7, #15]
  static uint8_t cfgidx;

  cfgidx = (uint8_t)(req->wValue);
 8005eda:	683b      	ldr	r3, [r7, #0]
 8005edc:	885b      	ldrh	r3, [r3, #2]
 8005ede:	b2da      	uxtb	r2, r3
 8005ee0:	4b4b      	ldr	r3, [pc, #300]	; (8006010 <USBD_SetConfig+0x144>)
 8005ee2:	701a      	strb	r2, [r3, #0]

  if (cfgidx > USBD_MAX_NUM_CONFIGURATION)
 8005ee4:	4b4a      	ldr	r3, [pc, #296]	; (8006010 <USBD_SetConfig+0x144>)
 8005ee6:	781b      	ldrb	r3, [r3, #0]
 8005ee8:	2b01      	cmp	r3, #1
 8005eea:	d905      	bls.n	8005ef8 <USBD_SetConfig+0x2c>
  {
    USBD_CtlError(pdev, req);
 8005eec:	6839      	ldr	r1, [r7, #0]
 8005eee:	6878      	ldr	r0, [r7, #4]
 8005ef0:	f000 f966 	bl	80061c0 <USBD_CtlError>
    return USBD_FAIL;
 8005ef4:	2303      	movs	r3, #3
 8005ef6:	e087      	b.n	8006008 <USBD_SetConfig+0x13c>
  }

  switch (pdev->dev_state)
 8005ef8:	687b      	ldr	r3, [r7, #4]
 8005efa:	f893 329c 	ldrb.w	r3, [r3, #668]	; 0x29c
 8005efe:	2b02      	cmp	r3, #2
 8005f00:	d002      	beq.n	8005f08 <USBD_SetConfig+0x3c>
 8005f02:	2b03      	cmp	r3, #3
 8005f04:	d025      	beq.n	8005f52 <USBD_SetConfig+0x86>
 8005f06:	e071      	b.n	8005fec <USBD_SetConfig+0x120>
  {
  case USBD_STATE_ADDRESSED:
    if (cfgidx != 0U)
 8005f08:	4b41      	ldr	r3, [pc, #260]	; (8006010 <USBD_SetConfig+0x144>)
 8005f0a:	781b      	ldrb	r3, [r3, #0]
 8005f0c:	2b00      	cmp	r3, #0
 8005f0e:	d01c      	beq.n	8005f4a <USBD_SetConfig+0x7e>
    {
      pdev->dev_config = cfgidx;
 8005f10:	4b3f      	ldr	r3, [pc, #252]	; (8006010 <USBD_SetConfig+0x144>)
 8005f12:	781b      	ldrb	r3, [r3, #0]
 8005f14:	461a      	mov	r2, r3
 8005f16:	687b      	ldr	r3, [r7, #4]
 8005f18:	605a      	str	r2, [r3, #4]

      ret = USBD_SetClassConfig(pdev, cfgidx);
 8005f1a:	4b3d      	ldr	r3, [pc, #244]	; (8006010 <USBD_SetConfig+0x144>)
 8005f1c:	781b      	ldrb	r3, [r3, #0]
 8005f1e:	4619      	mov	r1, r3
 8005f20:	6878      	ldr	r0, [r7, #4]
 8005f22:	f7ff f9a7 	bl	8005274 <USBD_SetClassConfig>
 8005f26:	4603      	mov	r3, r0
 8005f28:	73fb      	strb	r3, [r7, #15]

      if (ret != USBD_OK)
 8005f2a:	7bfb      	ldrb	r3, [r7, #15]
 8005f2c:	2b00      	cmp	r3, #0
 8005f2e:	d004      	beq.n	8005f3a <USBD_SetConfig+0x6e>
      {
        USBD_CtlError(pdev, req);
 8005f30:	6839      	ldr	r1, [r7, #0]
 8005f32:	6878      	ldr	r0, [r7, #4]
 8005f34:	f000 f944 	bl	80061c0 <USBD_CtlError>
    }
    else
    {
      (void)USBD_CtlSendStatus(pdev);
    }
    break;
 8005f38:	e065      	b.n	8006006 <USBD_SetConfig+0x13a>
        (void)USBD_CtlSendStatus(pdev);
 8005f3a:	6878      	ldr	r0, [r7, #4]
 8005f3c:	f000 fa0b 	bl	8006356 <USBD_CtlSendStatus>
        pdev->dev_state = USBD_STATE_CONFIGURED;
 8005f40:	687b      	ldr	r3, [r7, #4]
 8005f42:	2203      	movs	r2, #3
 8005f44:	f883 229c 	strb.w	r2, [r3, #668]	; 0x29c
    break;
 8005f48:	e05d      	b.n	8006006 <USBD_SetConfig+0x13a>
      (void)USBD_CtlSendStatus(pdev);
 8005f4a:	6878      	ldr	r0, [r7, #4]
 8005f4c:	f000 fa03 	bl	8006356 <USBD_CtlSendStatus>
    break;
 8005f50:	e059      	b.n	8006006 <USBD_SetConfig+0x13a>

  case USBD_STATE_CONFIGURED:
    if (cfgidx == 0U)
 8005f52:	4b2f      	ldr	r3, [pc, #188]	; (8006010 <USBD_SetConfig+0x144>)
 8005f54:	781b      	ldrb	r3, [r3, #0]
 8005f56:	2b00      	cmp	r3, #0
 8005f58:	d112      	bne.n	8005f80 <USBD_SetConfig+0xb4>
    {
      pdev->dev_state = USBD_STATE_ADDRESSED;
 8005f5a:	687b      	ldr	r3, [r7, #4]
 8005f5c:	2202      	movs	r2, #2
 8005f5e:	f883 229c 	strb.w	r2, [r3, #668]	; 0x29c
      pdev->dev_config = cfgidx;
 8005f62:	4b2b      	ldr	r3, [pc, #172]	; (8006010 <USBD_SetConfig+0x144>)
 8005f64:	781b      	ldrb	r3, [r3, #0]
 8005f66:	461a      	mov	r2, r3
 8005f68:	687b      	ldr	r3, [r7, #4]
 8005f6a:	605a      	str	r2, [r3, #4]
      (void)USBD_ClrClassConfig(pdev, cfgidx);
 8005f6c:	4b28      	ldr	r3, [pc, #160]	; (8006010 <USBD_SetConfig+0x144>)
 8005f6e:	781b      	ldrb	r3, [r3, #0]
 8005f70:	4619      	mov	r1, r3
 8005f72:	6878      	ldr	r0, [r7, #4]
 8005f74:	f7ff f99a 	bl	80052ac <USBD_ClrClassConfig>
      (void)USBD_CtlSendStatus(pdev);
 8005f78:	6878      	ldr	r0, [r7, #4]
 8005f7a:	f000 f9ec 	bl	8006356 <USBD_CtlSendStatus>
    }
    else
    {
      (void)USBD_CtlSendStatus(pdev);
    }
    break;
 8005f7e:	e042      	b.n	8006006 <USBD_SetConfig+0x13a>
    else if (cfgidx != pdev->dev_config)
 8005f80:	4b23      	ldr	r3, [pc, #140]	; (8006010 <USBD_SetConfig+0x144>)
 8005f82:	781b      	ldrb	r3, [r3, #0]
 8005f84:	461a      	mov	r2, r3
 8005f86:	687b      	ldr	r3, [r7, #4]
 8005f88:	685b      	ldr	r3, [r3, #4]
 8005f8a:	429a      	cmp	r2, r3
 8005f8c:	d02a      	beq.n	8005fe4 <USBD_SetConfig+0x118>
      (void)USBD_ClrClassConfig(pdev, (uint8_t)pdev->dev_config);
 8005f8e:	687b      	ldr	r3, [r7, #4]
 8005f90:	685b      	ldr	r3, [r3, #4]
 8005f92:	b2db      	uxtb	r3, r3
 8005f94:	4619      	mov	r1, r3
 8005f96:	6878      	ldr	r0, [r7, #4]
 8005f98:	f7ff f988 	bl	80052ac <USBD_ClrClassConfig>
      pdev->dev_config = cfgidx;
 8005f9c:	4b1c      	ldr	r3, [pc, #112]	; (8006010 <USBD_SetConfig+0x144>)
 8005f9e:	781b      	ldrb	r3, [r3, #0]
 8005fa0:	461a      	mov	r2, r3
 8005fa2:	687b      	ldr	r3, [r7, #4]
 8005fa4:	605a      	str	r2, [r3, #4]
      ret = USBD_SetClassConfig(pdev, cfgidx);
 8005fa6:	4b1a      	ldr	r3, [pc, #104]	; (8006010 <USBD_SetConfig+0x144>)
 8005fa8:	781b      	ldrb	r3, [r3, #0]
 8005faa:	4619      	mov	r1, r3
 8005fac:	6878      	ldr	r0, [r7, #4]
 8005fae:	f7ff f961 	bl	8005274 <USBD_SetClassConfig>
 8005fb2:	4603      	mov	r3, r0
 8005fb4:	73fb      	strb	r3, [r7, #15]
      if (ret != USBD_OK)
 8005fb6:	7bfb      	ldrb	r3, [r7, #15]
 8005fb8:	2b00      	cmp	r3, #0
 8005fba:	d00f      	beq.n	8005fdc <USBD_SetConfig+0x110>
        USBD_CtlError(pdev, req);
 8005fbc:	6839      	ldr	r1, [r7, #0]
 8005fbe:	6878      	ldr	r0, [r7, #4]
 8005fc0:	f000 f8fe 	bl	80061c0 <USBD_CtlError>
        (void)USBD_ClrClassConfig(pdev, (uint8_t)pdev->dev_config);
 8005fc4:	687b      	ldr	r3, [r7, #4]
 8005fc6:	685b      	ldr	r3, [r3, #4]
 8005fc8:	b2db      	uxtb	r3, r3
 8005fca:	4619      	mov	r1, r3
 8005fcc:	6878      	ldr	r0, [r7, #4]
 8005fce:	f7ff f96d 	bl	80052ac <USBD_ClrClassConfig>
        pdev->dev_state = USBD_STATE_ADDRESSED;
 8005fd2:	687b      	ldr	r3, [r7, #4]
 8005fd4:	2202      	movs	r2, #2
 8005fd6:	f883 229c 	strb.w	r2, [r3, #668]	; 0x29c
    break;
 8005fda:	e014      	b.n	8006006 <USBD_SetConfig+0x13a>
        (void)USBD_CtlSendStatus(pdev);
 8005fdc:	6878      	ldr	r0, [r7, #4]
 8005fde:	f000 f9ba 	bl	8006356 <USBD_CtlSendStatus>
    break;
 8005fe2:	e010      	b.n	8006006 <USBD_SetConfig+0x13a>
      (void)USBD_CtlSendStatus(pdev);
 8005fe4:	6878      	ldr	r0, [r7, #4]
 8005fe6:	f000 f9b6 	bl	8006356 <USBD_CtlSendStatus>
    break;
 8005fea:	e00c      	b.n	8006006 <USBD_SetConfig+0x13a>

  default:
    USBD_CtlError(pdev, req);
 8005fec:	6839      	ldr	r1, [r7, #0]
 8005fee:	6878      	ldr	r0, [r7, #4]
 8005ff0:	f000 f8e6 	bl	80061c0 <USBD_CtlError>
    (void)USBD_ClrClassConfig(pdev, cfgidx);
 8005ff4:	4b06      	ldr	r3, [pc, #24]	; (8006010 <USBD_SetConfig+0x144>)
 8005ff6:	781b      	ldrb	r3, [r3, #0]
 8005ff8:	4619      	mov	r1, r3
 8005ffa:	6878      	ldr	r0, [r7, #4]
 8005ffc:	f7ff f956 	bl	80052ac <USBD_ClrClassConfig>
    ret = USBD_FAIL;
 8006000:	2303      	movs	r3, #3
 8006002:	73fb      	strb	r3, [r7, #15]
    break;
 8006004:	bf00      	nop
  }

  return ret;
 8006006:	7bfb      	ldrb	r3, [r7, #15]
}
 8006008:	4618      	mov	r0, r3
 800600a:	3710      	adds	r7, #16
 800600c:	46bd      	mov	sp, r7
 800600e:	bd80      	pop	{r7, pc}
 8006010:	2000020c 	.word	0x2000020c

08006014 <USBD_GetConfig>:
* @param  pdev: device instance
* @param  req: usb request
* @retval status
*/
static void USBD_GetConfig(USBD_HandleTypeDef *pdev, USBD_SetupReqTypedef *req)
{
 8006014:	b580      	push	{r7, lr}
 8006016:	b082      	sub	sp, #8
 8006018:	af00      	add	r7, sp, #0
 800601a:	6078      	str	r0, [r7, #4]
 800601c:	6039      	str	r1, [r7, #0]
  if (req->wLength != 1U)
 800601e:	683b      	ldr	r3, [r7, #0]
 8006020:	88db      	ldrh	r3, [r3, #6]
 8006022:	2b01      	cmp	r3, #1
 8006024:	d004      	beq.n	8006030 <USBD_GetConfig+0x1c>
  {
    USBD_CtlError(pdev, req);
 8006026:	6839      	ldr	r1, [r7, #0]
 8006028:	6878      	ldr	r0, [r7, #4]
 800602a:	f000 f8c9 	bl	80061c0 <USBD_CtlError>
    default:
      USBD_CtlError(pdev, req);
      break;
    }
  }
}
 800602e:	e021      	b.n	8006074 <USBD_GetConfig+0x60>
    switch (pdev->dev_state)
 8006030:	687b      	ldr	r3, [r7, #4]
 8006032:	f893 329c 	ldrb.w	r3, [r3, #668]	; 0x29c
 8006036:	2b01      	cmp	r3, #1
 8006038:	db17      	blt.n	800606a <USBD_GetConfig+0x56>
 800603a:	2b02      	cmp	r3, #2
 800603c:	dd02      	ble.n	8006044 <USBD_GetConfig+0x30>
 800603e:	2b03      	cmp	r3, #3
 8006040:	d00b      	beq.n	800605a <USBD_GetConfig+0x46>
 8006042:	e012      	b.n	800606a <USBD_GetConfig+0x56>
      pdev->dev_default_config = 0U;
 8006044:	687b      	ldr	r3, [r7, #4]
 8006046:	2200      	movs	r2, #0
 8006048:	609a      	str	r2, [r3, #8]
      (void)USBD_CtlSendData(pdev, (uint8_t *)&pdev->dev_default_config, 1U);
 800604a:	687b      	ldr	r3, [r7, #4]
 800604c:	3308      	adds	r3, #8
 800604e:	2201      	movs	r2, #1
 8006050:	4619      	mov	r1, r3
 8006052:	6878      	ldr	r0, [r7, #4]
 8006054:	f000 f925 	bl	80062a2 <USBD_CtlSendData>
      break;
 8006058:	e00c      	b.n	8006074 <USBD_GetConfig+0x60>
      (void)USBD_CtlSendData(pdev, (uint8_t *)&pdev->dev_config, 1U);
 800605a:	687b      	ldr	r3, [r7, #4]
 800605c:	3304      	adds	r3, #4
 800605e:	2201      	movs	r2, #1
 8006060:	4619      	mov	r1, r3
 8006062:	6878      	ldr	r0, [r7, #4]
 8006064:	f000 f91d 	bl	80062a2 <USBD_CtlSendData>
      break;
 8006068:	e004      	b.n	8006074 <USBD_GetConfig+0x60>
      USBD_CtlError(pdev, req);
 800606a:	6839      	ldr	r1, [r7, #0]
 800606c:	6878      	ldr	r0, [r7, #4]
 800606e:	f000 f8a7 	bl	80061c0 <USBD_CtlError>
      break;
 8006072:	bf00      	nop
}
 8006074:	bf00      	nop
 8006076:	3708      	adds	r7, #8
 8006078:	46bd      	mov	sp, r7
 800607a:	bd80      	pop	{r7, pc}

0800607c <USBD_GetStatus>:
* @param  pdev: device instance
* @param  req: usb request
* @retval status
*/
static void USBD_GetStatus(USBD_HandleTypeDef *pdev, USBD_SetupReqTypedef *req)
{
 800607c:	b580      	push	{r7, lr}
 800607e:	b082      	sub	sp, #8
 8006080:	af00      	add	r7, sp, #0
 8006082:	6078      	str	r0, [r7, #4]
 8006084:	6039      	str	r1, [r7, #0]
  switch (pdev->dev_state)
 8006086:	687b      	ldr	r3, [r7, #4]
 8006088:	f893 329c 	ldrb.w	r3, [r3, #668]	; 0x29c
 800608c:	3b01      	subs	r3, #1
 800608e:	2b02      	cmp	r3, #2
 8006090:	d81e      	bhi.n	80060d0 <USBD_GetStatus+0x54>
  {
  case USBD_STATE_DEFAULT:
  case USBD_STATE_ADDRESSED:
  case USBD_STATE_CONFIGURED:
    if (req->wLength != 0x2U)
 8006092:	683b      	ldr	r3, [r7, #0]
 8006094:	88db      	ldrh	r3, [r3, #6]
 8006096:	2b02      	cmp	r3, #2
 8006098:	d004      	beq.n	80060a4 <USBD_GetStatus+0x28>
    {
      USBD_CtlError(pdev, req);
 800609a:	6839      	ldr	r1, [r7, #0]
 800609c:	6878      	ldr	r0, [r7, #4]
 800609e:	f000 f88f 	bl	80061c0 <USBD_CtlError>
      break;
 80060a2:	e01a      	b.n	80060da <USBD_GetStatus+0x5e>
    }

#if (USBD_SELF_POWERED == 1U)
    pdev->dev_config_status = USB_CONFIG_SELF_POWERED;
 80060a4:	687b      	ldr	r3, [r7, #4]
 80060a6:	2201      	movs	r2, #1
 80060a8:	60da      	str	r2, [r3, #12]
#else
    pdev->dev_config_status = 0U;
#endif

    if (pdev->dev_remote_wakeup != 0U)
 80060aa:	687b      	ldr	r3, [r7, #4]
 80060ac:	f8d3 32a4 	ldr.w	r3, [r3, #676]	; 0x2a4
 80060b0:	2b00      	cmp	r3, #0
 80060b2:	d005      	beq.n	80060c0 <USBD_GetStatus+0x44>
    {
      pdev->dev_config_status |= USB_CONFIG_REMOTE_WAKEUP;
 80060b4:	687b      	ldr	r3, [r7, #4]
 80060b6:	68db      	ldr	r3, [r3, #12]
 80060b8:	f043 0202 	orr.w	r2, r3, #2
 80060bc:	687b      	ldr	r3, [r7, #4]
 80060be:	60da      	str	r2, [r3, #12]
    }

    (void)USBD_CtlSendData(pdev, (uint8_t *)&pdev->dev_config_status, 2U);
 80060c0:	687b      	ldr	r3, [r7, #4]
 80060c2:	330c      	adds	r3, #12
 80060c4:	2202      	movs	r2, #2
 80060c6:	4619      	mov	r1, r3
 80060c8:	6878      	ldr	r0, [r7, #4]
 80060ca:	f000 f8ea 	bl	80062a2 <USBD_CtlSendData>
    break;
 80060ce:	e004      	b.n	80060da <USBD_GetStatus+0x5e>

  default:
    USBD_CtlError(pdev, req);
 80060d0:	6839      	ldr	r1, [r7, #0]
 80060d2:	6878      	ldr	r0, [r7, #4]
 80060d4:	f000 f874 	bl	80061c0 <USBD_CtlError>
    break;
 80060d8:	bf00      	nop
  }
}
 80060da:	bf00      	nop
 80060dc:	3708      	adds	r7, #8
 80060de:	46bd      	mov	sp, r7
 80060e0:	bd80      	pop	{r7, pc}

080060e2 <USBD_SetFeature>:
* @param  pdev: device instance
* @param  req: usb request
* @retval status
*/
static void USBD_SetFeature(USBD_HandleTypeDef *pdev, USBD_SetupReqTypedef *req)
{
 80060e2:	b580      	push	{r7, lr}
 80060e4:	b082      	sub	sp, #8
 80060e6:	af00      	add	r7, sp, #0
 80060e8:	6078      	str	r0, [r7, #4]
 80060ea:	6039      	str	r1, [r7, #0]
  if (req->wValue == USB_FEATURE_REMOTE_WAKEUP)
 80060ec:	683b      	ldr	r3, [r7, #0]
 80060ee:	885b      	ldrh	r3, [r3, #2]
 80060f0:	2b01      	cmp	r3, #1
 80060f2:	d106      	bne.n	8006102 <USBD_SetFeature+0x20>
  {
    pdev->dev_remote_wakeup = 1U;
 80060f4:	687b      	ldr	r3, [r7, #4]
 80060f6:	2201      	movs	r2, #1
 80060f8:	f8c3 22a4 	str.w	r2, [r3, #676]	; 0x2a4
    (void)USBD_CtlSendStatus(pdev);
 80060fc:	6878      	ldr	r0, [r7, #4]
 80060fe:	f000 f92a 	bl	8006356 <USBD_CtlSendStatus>
  }
}
 8006102:	bf00      	nop
 8006104:	3708      	adds	r7, #8
 8006106:	46bd      	mov	sp, r7
 8006108:	bd80      	pop	{r7, pc}

0800610a <USBD_ClrFeature>:
* @param  pdev: device instance
* @param  req: usb request
* @retval status
*/
static void USBD_ClrFeature(USBD_HandleTypeDef *pdev, USBD_SetupReqTypedef *req)
{
 800610a:	b580      	push	{r7, lr}
 800610c:	b082      	sub	sp, #8
 800610e:	af00      	add	r7, sp, #0
 8006110:	6078      	str	r0, [r7, #4]
 8006112:	6039      	str	r1, [r7, #0]
  switch (pdev->dev_state)
 8006114:	687b      	ldr	r3, [r7, #4]
 8006116:	f893 329c 	ldrb.w	r3, [r3, #668]	; 0x29c
 800611a:	3b01      	subs	r3, #1
 800611c:	2b02      	cmp	r3, #2
 800611e:	d80b      	bhi.n	8006138 <USBD_ClrFeature+0x2e>
  {
    case USBD_STATE_DEFAULT:
    case USBD_STATE_ADDRESSED:
    case USBD_STATE_CONFIGURED:
      if (req->wValue == USB_FEATURE_REMOTE_WAKEUP)
 8006120:	683b      	ldr	r3, [r7, #0]
 8006122:	885b      	ldrh	r3, [r3, #2]
 8006124:	2b01      	cmp	r3, #1
 8006126:	d10c      	bne.n	8006142 <USBD_ClrFeature+0x38>
      {
        pdev->dev_remote_wakeup = 0U;
 8006128:	687b      	ldr	r3, [r7, #4]
 800612a:	2200      	movs	r2, #0
 800612c:	f8c3 22a4 	str.w	r2, [r3, #676]	; 0x2a4
        (void)USBD_CtlSendStatus(pdev);
 8006130:	6878      	ldr	r0, [r7, #4]
 8006132:	f000 f910 	bl	8006356 <USBD_CtlSendStatus>
      }
      break;
 8006136:	e004      	b.n	8006142 <USBD_ClrFeature+0x38>

    default:
      USBD_CtlError(pdev, req);
 8006138:	6839      	ldr	r1, [r7, #0]
 800613a:	6878      	ldr	r0, [r7, #4]
 800613c:	f000 f840 	bl	80061c0 <USBD_CtlError>
      break;
 8006140:	e000      	b.n	8006144 <USBD_ClrFeature+0x3a>
      break;
 8006142:	bf00      	nop
  }
}
 8006144:	bf00      	nop
 8006146:	3708      	adds	r7, #8
 8006148:	46bd      	mov	sp, r7
 800614a:	bd80      	pop	{r7, pc}

0800614c <USBD_ParseSetupRequest>:
* @param  req: usb request
* @retval None
*/

void USBD_ParseSetupRequest(USBD_SetupReqTypedef *req, uint8_t *pdata)
{
 800614c:	b580      	push	{r7, lr}
 800614e:	b084      	sub	sp, #16
 8006150:	af00      	add	r7, sp, #0
 8006152:	6078      	str	r0, [r7, #4]
 8006154:	6039      	str	r1, [r7, #0]
  uint8_t *pbuff = pdata;
 8006156:	683b      	ldr	r3, [r7, #0]
 8006158:	60fb      	str	r3, [r7, #12]

  req->bmRequest = *(uint8_t *)(pbuff);
 800615a:	68fb      	ldr	r3, [r7, #12]
 800615c:	781a      	ldrb	r2, [r3, #0]
 800615e:	687b      	ldr	r3, [r7, #4]
 8006160:	701a      	strb	r2, [r3, #0]

  pbuff++;
 8006162:	68fb      	ldr	r3, [r7, #12]
 8006164:	3301      	adds	r3, #1
 8006166:	60fb      	str	r3, [r7, #12]
  req->bRequest = *(uint8_t *)(pbuff);
 8006168:	68fb      	ldr	r3, [r7, #12]
 800616a:	781a      	ldrb	r2, [r3, #0]
 800616c:	687b      	ldr	r3, [r7, #4]
 800616e:	705a      	strb	r2, [r3, #1]

  pbuff++;
 8006170:	68fb      	ldr	r3, [r7, #12]
 8006172:	3301      	adds	r3, #1
 8006174:	60fb      	str	r3, [r7, #12]
  req->wValue = SWAPBYTE(pbuff);
 8006176:	68f8      	ldr	r0, [r7, #12]
 8006178:	f7ff fad3 	bl	8005722 <SWAPBYTE>
 800617c:	4603      	mov	r3, r0
 800617e:	461a      	mov	r2, r3
 8006180:	687b      	ldr	r3, [r7, #4]
 8006182:	805a      	strh	r2, [r3, #2]

  pbuff++;
 8006184:	68fb      	ldr	r3, [r7, #12]
 8006186:	3301      	adds	r3, #1
 8006188:	60fb      	str	r3, [r7, #12]
  pbuff++;
 800618a:	68fb      	ldr	r3, [r7, #12]
 800618c:	3301      	adds	r3, #1
 800618e:	60fb      	str	r3, [r7, #12]
  req->wIndex = SWAPBYTE(pbuff);
 8006190:	68f8      	ldr	r0, [r7, #12]
 8006192:	f7ff fac6 	bl	8005722 <SWAPBYTE>
 8006196:	4603      	mov	r3, r0
 8006198:	461a      	mov	r2, r3
 800619a:	687b      	ldr	r3, [r7, #4]
 800619c:	809a      	strh	r2, [r3, #4]

  pbuff++;
 800619e:	68fb      	ldr	r3, [r7, #12]
 80061a0:	3301      	adds	r3, #1
 80061a2:	60fb      	str	r3, [r7, #12]
  pbuff++;
 80061a4:	68fb      	ldr	r3, [r7, #12]
 80061a6:	3301      	adds	r3, #1
 80061a8:	60fb      	str	r3, [r7, #12]
  req->wLength = SWAPBYTE(pbuff);
 80061aa:	68f8      	ldr	r0, [r7, #12]
 80061ac:	f7ff fab9 	bl	8005722 <SWAPBYTE>
 80061b0:	4603      	mov	r3, r0
 80061b2:	461a      	mov	r2, r3
 80061b4:	687b      	ldr	r3, [r7, #4]
 80061b6:	80da      	strh	r2, [r3, #6]
}
 80061b8:	bf00      	nop
 80061ba:	3710      	adds	r7, #16
 80061bc:	46bd      	mov	sp, r7
 80061be:	bd80      	pop	{r7, pc}

080061c0 <USBD_CtlError>:
* @param  req: usb request
* @retval None
*/

void USBD_CtlError(USBD_HandleTypeDef *pdev, USBD_SetupReqTypedef *req)
{
 80061c0:	b580      	push	{r7, lr}
 80061c2:	b082      	sub	sp, #8
 80061c4:	af00      	add	r7, sp, #0
 80061c6:	6078      	str	r0, [r7, #4]
 80061c8:	6039      	str	r1, [r7, #0]
  UNUSED(req);

  (void)USBD_LL_StallEP(pdev, 0x80U);
 80061ca:	2180      	movs	r1, #128	; 0x80
 80061cc:	6878      	ldr	r0, [r7, #4]
 80061ce:	f000 fd35 	bl	8006c3c <USBD_LL_StallEP>
  (void)USBD_LL_StallEP(pdev, 0U);
 80061d2:	2100      	movs	r1, #0
 80061d4:	6878      	ldr	r0, [r7, #4]
 80061d6:	f000 fd31 	bl	8006c3c <USBD_LL_StallEP>
}
 80061da:	bf00      	nop
 80061dc:	3708      	adds	r7, #8
 80061de:	46bd      	mov	sp, r7
 80061e0:	bd80      	pop	{r7, pc}

080061e2 <USBD_GetString>:
  * @param  unicode : Formatted string buffer (unicode)
  * @param  len : descriptor length
  * @retval None
  */
void USBD_GetString(uint8_t *desc, uint8_t *unicode, uint16_t *len)
{
 80061e2:	b580      	push	{r7, lr}
 80061e4:	b086      	sub	sp, #24
 80061e6:	af00      	add	r7, sp, #0
 80061e8:	60f8      	str	r0, [r7, #12]
 80061ea:	60b9      	str	r1, [r7, #8]
 80061ec:	607a      	str	r2, [r7, #4]
  uint8_t idx = 0U;
 80061ee:	2300      	movs	r3, #0
 80061f0:	75fb      	strb	r3, [r7, #23]
  uint8_t *pdesc;

  if (desc == NULL)
 80061f2:	68fb      	ldr	r3, [r7, #12]
 80061f4:	2b00      	cmp	r3, #0
 80061f6:	d036      	beq.n	8006266 <USBD_GetString+0x84>
  {
    return;
  }

  pdesc = desc;
 80061f8:	68fb      	ldr	r3, [r7, #12]
 80061fa:	613b      	str	r3, [r7, #16]
  *len = ((uint16_t)USBD_GetLen(pdesc) * 2U) + 2U;
 80061fc:	6938      	ldr	r0, [r7, #16]
 80061fe:	f000 f836 	bl	800626e <USBD_GetLen>
 8006202:	4603      	mov	r3, r0
 8006204:	3301      	adds	r3, #1
 8006206:	b29b      	uxth	r3, r3
 8006208:	005b      	lsls	r3, r3, #1
 800620a:	b29a      	uxth	r2, r3
 800620c:	687b      	ldr	r3, [r7, #4]
 800620e:	801a      	strh	r2, [r3, #0]

  unicode[idx] = *(uint8_t *)len;
 8006210:	7dfb      	ldrb	r3, [r7, #23]
 8006212:	68ba      	ldr	r2, [r7, #8]
 8006214:	4413      	add	r3, r2
 8006216:	687a      	ldr	r2, [r7, #4]
 8006218:	7812      	ldrb	r2, [r2, #0]
 800621a:	701a      	strb	r2, [r3, #0]
  idx++;
 800621c:	7dfb      	ldrb	r3, [r7, #23]
 800621e:	3301      	adds	r3, #1
 8006220:	75fb      	strb	r3, [r7, #23]
  unicode[idx] = USB_DESC_TYPE_STRING;
 8006222:	7dfb      	ldrb	r3, [r7, #23]
 8006224:	68ba      	ldr	r2, [r7, #8]
 8006226:	4413      	add	r3, r2
 8006228:	2203      	movs	r2, #3
 800622a:	701a      	strb	r2, [r3, #0]
  idx++;
 800622c:	7dfb      	ldrb	r3, [r7, #23]
 800622e:	3301      	adds	r3, #1
 8006230:	75fb      	strb	r3, [r7, #23]

  while (*pdesc != (uint8_t)'\0')
 8006232:	e013      	b.n	800625c <USBD_GetString+0x7a>
  {
    unicode[idx] = *pdesc;
 8006234:	7dfb      	ldrb	r3, [r7, #23]
 8006236:	68ba      	ldr	r2, [r7, #8]
 8006238:	4413      	add	r3, r2
 800623a:	693a      	ldr	r2, [r7, #16]
 800623c:	7812      	ldrb	r2, [r2, #0]
 800623e:	701a      	strb	r2, [r3, #0]
    pdesc++;
 8006240:	693b      	ldr	r3, [r7, #16]
 8006242:	3301      	adds	r3, #1
 8006244:	613b      	str	r3, [r7, #16]
    idx++;
 8006246:	7dfb      	ldrb	r3, [r7, #23]
 8006248:	3301      	adds	r3, #1
 800624a:	75fb      	strb	r3, [r7, #23]

    unicode[idx] = 0U;
 800624c:	7dfb      	ldrb	r3, [r7, #23]
 800624e:	68ba      	ldr	r2, [r7, #8]
 8006250:	4413      	add	r3, r2
 8006252:	2200      	movs	r2, #0
 8006254:	701a      	strb	r2, [r3, #0]
    idx++;
 8006256:	7dfb      	ldrb	r3, [r7, #23]
 8006258:	3301      	adds	r3, #1
 800625a:	75fb      	strb	r3, [r7, #23]
  while (*pdesc != (uint8_t)'\0')
 800625c:	693b      	ldr	r3, [r7, #16]
 800625e:	781b      	ldrb	r3, [r3, #0]
 8006260:	2b00      	cmp	r3, #0
 8006262:	d1e7      	bne.n	8006234 <USBD_GetString+0x52>
 8006264:	e000      	b.n	8006268 <USBD_GetString+0x86>
    return;
 8006266:	bf00      	nop
  }
}
 8006268:	3718      	adds	r7, #24
 800626a:	46bd      	mov	sp, r7
 800626c:	bd80      	pop	{r7, pc}

0800626e <USBD_GetLen>:
  *         return the string length
   * @param  buf : pointer to the ascii string buffer
  * @retval string length
  */
static uint8_t USBD_GetLen(uint8_t *buf)
{
 800626e:	b480      	push	{r7}
 8006270:	b085      	sub	sp, #20
 8006272:	af00      	add	r7, sp, #0
 8006274:	6078      	str	r0, [r7, #4]
  uint8_t  len = 0U;
 8006276:	2300      	movs	r3, #0
 8006278:	73fb      	strb	r3, [r7, #15]
  uint8_t *pbuff = buf;
 800627a:	687b      	ldr	r3, [r7, #4]
 800627c:	60bb      	str	r3, [r7, #8]

  while (*pbuff != (uint8_t)'\0')
 800627e:	e005      	b.n	800628c <USBD_GetLen+0x1e>
  {
    len++;
 8006280:	7bfb      	ldrb	r3, [r7, #15]
 8006282:	3301      	adds	r3, #1
 8006284:	73fb      	strb	r3, [r7, #15]
    pbuff++;
 8006286:	68bb      	ldr	r3, [r7, #8]
 8006288:	3301      	adds	r3, #1
 800628a:	60bb      	str	r3, [r7, #8]
  while (*pbuff != (uint8_t)'\0')
 800628c:	68bb      	ldr	r3, [r7, #8]
 800628e:	781b      	ldrb	r3, [r3, #0]
 8006290:	2b00      	cmp	r3, #0
 8006292:	d1f5      	bne.n	8006280 <USBD_GetLen+0x12>
  }

  return len;
 8006294:	7bfb      	ldrb	r3, [r7, #15]
}
 8006296:	4618      	mov	r0, r3
 8006298:	3714      	adds	r7, #20
 800629a:	46bd      	mov	sp, r7
 800629c:	f85d 7b04 	ldr.w	r7, [sp], #4
 80062a0:	4770      	bx	lr

080062a2 <USBD_CtlSendData>:
* @param  len: length of data to be sent
* @retval status
*/
USBD_StatusTypeDef USBD_CtlSendData(USBD_HandleTypeDef *pdev,
                                    uint8_t *pbuf, uint32_t len)
{
 80062a2:	b580      	push	{r7, lr}
 80062a4:	b084      	sub	sp, #16
 80062a6:	af00      	add	r7, sp, #0
 80062a8:	60f8      	str	r0, [r7, #12]
 80062aa:	60b9      	str	r1, [r7, #8]
 80062ac:	607a      	str	r2, [r7, #4]
  /* Set EP0 State */
  pdev->ep0_state = USBD_EP0_DATA_IN;
 80062ae:	68fb      	ldr	r3, [r7, #12]
 80062b0:	2202      	movs	r2, #2
 80062b2:	f8c3 2294 	str.w	r2, [r3, #660]	; 0x294
  pdev->ep_in[0].total_length = len;
 80062b6:	68fb      	ldr	r3, [r7, #12]
 80062b8:	687a      	ldr	r2, [r7, #4]
 80062ba:	619a      	str	r2, [r3, #24]
  pdev->ep_in[0].rem_length = len;
 80062bc:	68fb      	ldr	r3, [r7, #12]
 80062be:	687a      	ldr	r2, [r7, #4]
 80062c0:	61da      	str	r2, [r3, #28]

  /* Start the transfer */
  (void)USBD_LL_Transmit(pdev, 0x00U, pbuf, len);
 80062c2:	687b      	ldr	r3, [r7, #4]
 80062c4:	68ba      	ldr	r2, [r7, #8]
 80062c6:	2100      	movs	r1, #0
 80062c8:	68f8      	ldr	r0, [r7, #12]
 80062ca:	f000 fd40 	bl	8006d4e <USBD_LL_Transmit>

  return USBD_OK;
 80062ce:	2300      	movs	r3, #0
}
 80062d0:	4618      	mov	r0, r3
 80062d2:	3710      	adds	r7, #16
 80062d4:	46bd      	mov	sp, r7
 80062d6:	bd80      	pop	{r7, pc}

080062d8 <USBD_CtlContinueSendData>:
* @param  len: length of data to be sent
* @retval status
*/
USBD_StatusTypeDef USBD_CtlContinueSendData(USBD_HandleTypeDef *pdev,
                                            uint8_t *pbuf, uint32_t len)
{
 80062d8:	b580      	push	{r7, lr}
 80062da:	b084      	sub	sp, #16
 80062dc:	af00      	add	r7, sp, #0
 80062de:	60f8      	str	r0, [r7, #12]
 80062e0:	60b9      	str	r1, [r7, #8]
 80062e2:	607a      	str	r2, [r7, #4]
  /* Start the next transfer */
  (void)USBD_LL_Transmit(pdev, 0x00U, pbuf, len);
 80062e4:	687b      	ldr	r3, [r7, #4]
 80062e6:	68ba      	ldr	r2, [r7, #8]
 80062e8:	2100      	movs	r1, #0
 80062ea:	68f8      	ldr	r0, [r7, #12]
 80062ec:	f000 fd2f 	bl	8006d4e <USBD_LL_Transmit>

  return USBD_OK;
 80062f0:	2300      	movs	r3, #0
}
 80062f2:	4618      	mov	r0, r3
 80062f4:	3710      	adds	r7, #16
 80062f6:	46bd      	mov	sp, r7
 80062f8:	bd80      	pop	{r7, pc}

080062fa <USBD_CtlPrepareRx>:
* @param  len: length of data to be received
* @retval status
*/
USBD_StatusTypeDef USBD_CtlPrepareRx(USBD_HandleTypeDef *pdev,
                                     uint8_t *pbuf, uint32_t len)
{
 80062fa:	b580      	push	{r7, lr}
 80062fc:	b084      	sub	sp, #16
 80062fe:	af00      	add	r7, sp, #0
 8006300:	60f8      	str	r0, [r7, #12]
 8006302:	60b9      	str	r1, [r7, #8]
 8006304:	607a      	str	r2, [r7, #4]
  /* Set EP0 State */
  pdev->ep0_state = USBD_EP0_DATA_OUT;
 8006306:	68fb      	ldr	r3, [r7, #12]
 8006308:	2203      	movs	r2, #3
 800630a:	f8c3 2294 	str.w	r2, [r3, #660]	; 0x294
  pdev->ep_out[0].total_length = len;
 800630e:	68fb      	ldr	r3, [r7, #12]
 8006310:	687a      	ldr	r2, [r7, #4]
 8006312:	f8c3 2158 	str.w	r2, [r3, #344]	; 0x158
  pdev->ep_out[0].rem_length = len;
 8006316:	68fb      	ldr	r3, [r7, #12]
 8006318:	687a      	ldr	r2, [r7, #4]
 800631a:	f8c3 215c 	str.w	r2, [r3, #348]	; 0x15c

  /* Start the transfer */
  (void)USBD_LL_PrepareReceive(pdev, 0U, pbuf, len);
 800631e:	687b      	ldr	r3, [r7, #4]
 8006320:	68ba      	ldr	r2, [r7, #8]
 8006322:	2100      	movs	r1, #0
 8006324:	68f8      	ldr	r0, [r7, #12]
 8006326:	f000 fd33 	bl	8006d90 <USBD_LL_PrepareReceive>

  return USBD_OK;
 800632a:	2300      	movs	r3, #0
}
 800632c:	4618      	mov	r0, r3
 800632e:	3710      	adds	r7, #16
 8006330:	46bd      	mov	sp, r7
 8006332:	bd80      	pop	{r7, pc}

08006334 <USBD_CtlContinueRx>:
* @param  len: length of data to be received
* @retval status
*/
USBD_StatusTypeDef USBD_CtlContinueRx(USBD_HandleTypeDef *pdev,
                                      uint8_t *pbuf, uint32_t len)
{
 8006334:	b580      	push	{r7, lr}
 8006336:	b084      	sub	sp, #16
 8006338:	af00      	add	r7, sp, #0
 800633a:	60f8      	str	r0, [r7, #12]
 800633c:	60b9      	str	r1, [r7, #8]
 800633e:	607a      	str	r2, [r7, #4]
  (void)USBD_LL_PrepareReceive(pdev, 0U, pbuf, len);
 8006340:	687b      	ldr	r3, [r7, #4]
 8006342:	68ba      	ldr	r2, [r7, #8]
 8006344:	2100      	movs	r1, #0
 8006346:	68f8      	ldr	r0, [r7, #12]
 8006348:	f000 fd22 	bl	8006d90 <USBD_LL_PrepareReceive>

  return USBD_OK;
 800634c:	2300      	movs	r3, #0
}
 800634e:	4618      	mov	r0, r3
 8006350:	3710      	adds	r7, #16
 8006352:	46bd      	mov	sp, r7
 8006354:	bd80      	pop	{r7, pc}

08006356 <USBD_CtlSendStatus>:
*         send zero lzngth packet on the ctl pipe
* @param  pdev: device instance
* @retval status
*/
USBD_StatusTypeDef USBD_CtlSendStatus(USBD_HandleTypeDef *pdev)
{
 8006356:	b580      	push	{r7, lr}
 8006358:	b082      	sub	sp, #8
 800635a:	af00      	add	r7, sp, #0
 800635c:	6078      	str	r0, [r7, #4]
  /* Set EP0 State */
  pdev->ep0_state = USBD_EP0_STATUS_IN;
 800635e:	687b      	ldr	r3, [r7, #4]
 8006360:	2204      	movs	r2, #4
 8006362:	f8c3 2294 	str.w	r2, [r3, #660]	; 0x294

  /* Start the transfer */
  (void)USBD_LL_Transmit(pdev, 0x00U, NULL, 0U);
 8006366:	2300      	movs	r3, #0
 8006368:	2200      	movs	r2, #0
 800636a:	2100      	movs	r1, #0
 800636c:	6878      	ldr	r0, [r7, #4]
 800636e:	f000 fcee 	bl	8006d4e <USBD_LL_Transmit>

  return USBD_OK;
 8006372:	2300      	movs	r3, #0
}
 8006374:	4618      	mov	r0, r3
 8006376:	3708      	adds	r7, #8
 8006378:	46bd      	mov	sp, r7
 800637a:	bd80      	pop	{r7, pc}

0800637c <USBD_CtlReceiveStatus>:
*         receive zero lzngth packet on the ctl pipe
* @param  pdev: device instance
* @retval status
*/
USBD_StatusTypeDef USBD_CtlReceiveStatus(USBD_HandleTypeDef *pdev)
{
 800637c:	b580      	push	{r7, lr}
 800637e:	b082      	sub	sp, #8
 8006380:	af00      	add	r7, sp, #0
 8006382:	6078      	str	r0, [r7, #4]
  /* Set EP0 State */
  pdev->ep0_state = USBD_EP0_STATUS_OUT;
 8006384:	687b      	ldr	r3, [r7, #4]
 8006386:	2205      	movs	r2, #5
 8006388:	f8c3 2294 	str.w	r2, [r3, #660]	; 0x294

  /* Start the transfer */
  (void)USBD_LL_PrepareReceive(pdev, 0U, NULL, 0U);
 800638c:	2300      	movs	r3, #0
 800638e:	2200      	movs	r2, #0
 8006390:	2100      	movs	r1, #0
 8006392:	6878      	ldr	r0, [r7, #4]
 8006394:	f000 fcfc 	bl	8006d90 <USBD_LL_PrepareReceive>

  return USBD_OK;
 8006398:	2300      	movs	r3, #0
}
 800639a:	4618      	mov	r0, r3
 800639c:	3708      	adds	r7, #8
 800639e:	46bd      	mov	sp, r7
 80063a0:	bd80      	pop	{r7, pc}
	...

080063a4 <MX_USB_DEVICE_Init>:
/**
  * Init USB device Library, add supported class and start the library
  * @retval None
  */
void MX_USB_DEVICE_Init(void)
{
 80063a4:	b580      	push	{r7, lr}
 80063a6:	af00      	add	r7, sp, #0
  /* USER CODE BEGIN USB_DEVICE_Init_PreTreatment */

  /* USER CODE END USB_DEVICE_Init_PreTreatment */

  /* Init Device Library, add supported class and start the library. */
  if (USBD_Init(&hUsbDeviceFS, &FS_Desc, DEVICE_FS) != USBD_OK)
 80063a8:	2200      	movs	r2, #0
 80063aa:	4912      	ldr	r1, [pc, #72]	; (80063f4 <MX_USB_DEVICE_Init+0x50>)
 80063ac:	4812      	ldr	r0, [pc, #72]	; (80063f8 <MX_USB_DEVICE_Init+0x54>)
 80063ae:	f7fe fef3 	bl	8005198 <USBD_Init>
 80063b2:	4603      	mov	r3, r0
 80063b4:	2b00      	cmp	r3, #0
 80063b6:	d001      	beq.n	80063bc <MX_USB_DEVICE_Init+0x18>
  {
    Error_Handler();
 80063b8:	f7fa fa70 	bl	800089c <Error_Handler>
  }
  if (USBD_RegisterClass(&hUsbDeviceFS, &USBD_CDC) != USBD_OK)
 80063bc:	490f      	ldr	r1, [pc, #60]	; (80063fc <MX_USB_DEVICE_Init+0x58>)
 80063be:	480e      	ldr	r0, [pc, #56]	; (80063f8 <MX_USB_DEVICE_Init+0x54>)
 80063c0:	f7fe ff20 	bl	8005204 <USBD_RegisterClass>
 80063c4:	4603      	mov	r3, r0
 80063c6:	2b00      	cmp	r3, #0
 80063c8:	d001      	beq.n	80063ce <MX_USB_DEVICE_Init+0x2a>
  {
    Error_Handler();
 80063ca:	f7fa fa67 	bl	800089c <Error_Handler>
  }
  if (USBD_CDC_RegisterInterface(&hUsbDeviceFS, &USBD_Interface_fops_FS) != USBD_OK)
 80063ce:	490c      	ldr	r1, [pc, #48]	; (8006400 <MX_USB_DEVICE_Init+0x5c>)
 80063d0:	4809      	ldr	r0, [pc, #36]	; (80063f8 <MX_USB_DEVICE_Init+0x54>)
 80063d2:	f7fe fe45 	bl	8005060 <USBD_CDC_RegisterInterface>
 80063d6:	4603      	mov	r3, r0
 80063d8:	2b00      	cmp	r3, #0
 80063da:	d001      	beq.n	80063e0 <MX_USB_DEVICE_Init+0x3c>
  {
    Error_Handler();
 80063dc:	f7fa fa5e 	bl	800089c <Error_Handler>
  }
  if (USBD_Start(&hUsbDeviceFS) != USBD_OK)
 80063e0:	4805      	ldr	r0, [pc, #20]	; (80063f8 <MX_USB_DEVICE_Init+0x54>)
 80063e2:	f7fe ff30 	bl	8005246 <USBD_Start>
 80063e6:	4603      	mov	r3, r0
 80063e8:	2b00      	cmp	r3, #0
 80063ea:	d001      	beq.n	80063f0 <MX_USB_DEVICE_Init+0x4c>
  {
    Error_Handler();
 80063ec:	f7fa fa56 	bl	800089c <Error_Handler>
  }

  /* USER CODE BEGIN USB_DEVICE_Init_PostTreatment */

  /* USER CODE END USB_DEVICE_Init_PostTreatment */
}
 80063f0:	bf00      	nop
 80063f2:	bd80      	pop	{r7, pc}
 80063f4:	20000138 	.word	0x20000138
 80063f8:	200002a4 	.word	0x200002a4
 80063fc:	20000018 	.word	0x20000018
 8006400:	20000124 	.word	0x20000124

08006404 <CDC_Init_FS>:
/**
  * @brief  Initializes the CDC media low layer over the FS USB IP
  * @retval USBD_OK if all operations are OK else USBD_FAIL
  */
static int8_t CDC_Init_FS(void)
{
 8006404:	b580      	push	{r7, lr}
 8006406:	af00      	add	r7, sp, #0
  /* USER CODE BEGIN 3 */
  /* Set Application Buffers */
  USBD_CDC_SetTxBuffer(&hUsbDeviceFS, UserTxBufferFS, 0);
 8006408:	2200      	movs	r2, #0
 800640a:	4905      	ldr	r1, [pc, #20]	; (8006420 <CDC_Init_FS+0x1c>)
 800640c:	4805      	ldr	r0, [pc, #20]	; (8006424 <CDC_Init_FS+0x20>)
 800640e:	f7fe fe3c 	bl	800508a <USBD_CDC_SetTxBuffer>
  USBD_CDC_SetRxBuffer(&hUsbDeviceFS, UserRxBufferFS);
 8006412:	4905      	ldr	r1, [pc, #20]	; (8006428 <CDC_Init_FS+0x24>)
 8006414:	4803      	ldr	r0, [pc, #12]	; (8006424 <CDC_Init_FS+0x20>)
 8006416:	f7fe fe51 	bl	80050bc <USBD_CDC_SetRxBuffer>
  return (USBD_OK);
 800641a:	2300      	movs	r3, #0
  /* USER CODE END 3 */
}
 800641c:	4618      	mov	r0, r3
 800641e:	bd80      	pop	{r7, pc}
 8006420:	2000057c 	.word	0x2000057c
 8006424:	200002a4 	.word	0x200002a4
 8006428:	20000574 	.word	0x20000574

0800642c <CDC_DeInit_FS>:
/**
  * @brief  DeInitializes the CDC media low layer
  * @retval USBD_OK if all operations are OK else USBD_FAIL
  */
static int8_t CDC_DeInit_FS(void)
{
 800642c:	b480      	push	{r7}
 800642e:	af00      	add	r7, sp, #0
  /* USER CODE BEGIN 4 */
  return (USBD_OK);
 8006430:	2300      	movs	r3, #0
  /* USER CODE END 4 */
}
 8006432:	4618      	mov	r0, r3
 8006434:	46bd      	mov	sp, r7
 8006436:	f85d 7b04 	ldr.w	r7, [sp], #4
 800643a:	4770      	bx	lr

0800643c <CDC_Control_FS>:
  * @param  pbuf: Buffer containing command data (request parameters)
  * @param  length: Number of data to be sent (in bytes)
  * @retval Result of the operation: USBD_OK if all operations are OK else USBD_FAIL
  */
static int8_t CDC_Control_FS(uint8_t cmd, uint8_t* pbuf, uint16_t length)
{
 800643c:	b480      	push	{r7}
 800643e:	b083      	sub	sp, #12
 8006440:	af00      	add	r7, sp, #0
 8006442:	4603      	mov	r3, r0
 8006444:	6039      	str	r1, [r7, #0]
 8006446:	71fb      	strb	r3, [r7, #7]
 8006448:	4613      	mov	r3, r2
 800644a:	80bb      	strh	r3, [r7, #4]
  /* USER CODE BEGIN 5 */
  switch(cmd)
 800644c:	79fb      	ldrb	r3, [r7, #7]
 800644e:	2b23      	cmp	r3, #35	; 0x23
 8006450:	f200 808f 	bhi.w	8006572 <CDC_Control_FS+0x136>
 8006454:	a201      	add	r2, pc, #4	; (adr r2, 800645c <CDC_Control_FS+0x20>)
 8006456:	f852 f023 	ldr.w	pc, [r2, r3, lsl #2]
 800645a:	bf00      	nop
 800645c:	08006573 	.word	0x08006573
 8006460:	08006573 	.word	0x08006573
 8006464:	08006573 	.word	0x08006573
 8006468:	08006573 	.word	0x08006573
 800646c:	08006573 	.word	0x08006573
 8006470:	08006573 	.word	0x08006573
 8006474:	08006573 	.word	0x08006573
 8006478:	08006573 	.word	0x08006573
 800647c:	08006573 	.word	0x08006573
 8006480:	08006573 	.word	0x08006573
 8006484:	08006573 	.word	0x08006573
 8006488:	08006573 	.word	0x08006573
 800648c:	08006573 	.word	0x08006573
 8006490:	08006573 	.word	0x08006573
 8006494:	08006573 	.word	0x08006573
 8006498:	08006573 	.word	0x08006573
 800649c:	08006573 	.word	0x08006573
 80064a0:	08006573 	.word	0x08006573
 80064a4:	08006573 	.word	0x08006573
 80064a8:	08006573 	.word	0x08006573
 80064ac:	08006573 	.word	0x08006573
 80064b0:	08006573 	.word	0x08006573
 80064b4:	08006573 	.word	0x08006573
 80064b8:	08006573 	.word	0x08006573
 80064bc:	08006573 	.word	0x08006573
 80064c0:	08006573 	.word	0x08006573
 80064c4:	08006573 	.word	0x08006573
 80064c8:	08006573 	.word	0x08006573
 80064cc:	08006573 	.word	0x08006573
 80064d0:	08006573 	.word	0x08006573
 80064d4:	08006573 	.word	0x08006573
 80064d8:	08006573 	.word	0x08006573
 80064dc:	080064ed 	.word	0x080064ed
 80064e0:	08006531 	.word	0x08006531
 80064e4:	08006573 	.word	0x08006573
 80064e8:	08006573 	.word	0x08006573
  /*                                        3 - Mark                             */
  /*                                        4 - Space                            */
  /* 6      | bDataBits  |   1   | Number Data bits (5, 6, 7, 8 or 16).          */
  /*******************************************************************************/
    case CDC_SET_LINE_CODING:
    	LineCoding.bitrate = (uint32_t) (pbuf[0] | (pbuf[1] << 8) | (pbuf[2] << 16) | (pbuf[3] << 24) );
 80064ec:	683b      	ldr	r3, [r7, #0]
 80064ee:	781b      	ldrb	r3, [r3, #0]
 80064f0:	461a      	mov	r2, r3
 80064f2:	683b      	ldr	r3, [r7, #0]
 80064f4:	3301      	adds	r3, #1
 80064f6:	781b      	ldrb	r3, [r3, #0]
 80064f8:	021b      	lsls	r3, r3, #8
 80064fa:	431a      	orrs	r2, r3
 80064fc:	683b      	ldr	r3, [r7, #0]
 80064fe:	3302      	adds	r3, #2
 8006500:	781b      	ldrb	r3, [r3, #0]
 8006502:	041b      	lsls	r3, r3, #16
 8006504:	431a      	orrs	r2, r3
 8006506:	683b      	ldr	r3, [r7, #0]
 8006508:	3303      	adds	r3, #3
 800650a:	781b      	ldrb	r3, [r3, #0]
 800650c:	061b      	lsls	r3, r3, #24
 800650e:	4313      	orrs	r3, r2
 8006510:	461a      	mov	r2, r3
 8006512:	4b1c      	ldr	r3, [pc, #112]	; (8006584 <CDC_Control_FS+0x148>)
 8006514:	601a      	str	r2, [r3, #0]
		LineCoding.format = pbuf[4];
 8006516:	683b      	ldr	r3, [r7, #0]
 8006518:	791a      	ldrb	r2, [r3, #4]
 800651a:	4b1a      	ldr	r3, [pc, #104]	; (8006584 <CDC_Control_FS+0x148>)
 800651c:	711a      	strb	r2, [r3, #4]
		LineCoding.paritytype = pbuf[5];
 800651e:	683b      	ldr	r3, [r7, #0]
 8006520:	795a      	ldrb	r2, [r3, #5]
 8006522:	4b18      	ldr	r3, [pc, #96]	; (8006584 <CDC_Control_FS+0x148>)
 8006524:	715a      	strb	r2, [r3, #5]
		LineCoding.datatype = pbuf[6];
 8006526:	683b      	ldr	r3, [r7, #0]
 8006528:	799a      	ldrb	r2, [r3, #6]
 800652a:	4b16      	ldr	r3, [pc, #88]	; (8006584 <CDC_Control_FS+0x148>)
 800652c:	719a      	strb	r2, [r3, #6]
    break;
 800652e:	e021      	b.n	8006574 <CDC_Control_FS+0x138>

    case CDC_GET_LINE_CODING:
    	pbuf[0] = (uint8_t) (LineCoding.bitrate);
 8006530:	4b14      	ldr	r3, [pc, #80]	; (8006584 <CDC_Control_FS+0x148>)
 8006532:	681b      	ldr	r3, [r3, #0]
 8006534:	b2da      	uxtb	r2, r3
 8006536:	683b      	ldr	r3, [r7, #0]
 8006538:	701a      	strb	r2, [r3, #0]
    	pbuf[1] = (uint8_t) (LineCoding.bitrate << 8);
 800653a:	683b      	ldr	r3, [r7, #0]
 800653c:	3301      	adds	r3, #1
 800653e:	2200      	movs	r2, #0
 8006540:	701a      	strb	r2, [r3, #0]
    	pbuf[2] = (uint8_t) (LineCoding.bitrate << 16);
 8006542:	683b      	ldr	r3, [r7, #0]
 8006544:	3302      	adds	r3, #2
 8006546:	2200      	movs	r2, #0
 8006548:	701a      	strb	r2, [r3, #0]
    	pbuf[3] = (uint8_t) (LineCoding.bitrate << 24);
 800654a:	683b      	ldr	r3, [r7, #0]
 800654c:	3303      	adds	r3, #3
 800654e:	2200      	movs	r2, #0
 8006550:	701a      	strb	r2, [r3, #0]
    	pbuf[4] = LineCoding.format;
 8006552:	683b      	ldr	r3, [r7, #0]
 8006554:	3304      	adds	r3, #4
 8006556:	4a0b      	ldr	r2, [pc, #44]	; (8006584 <CDC_Control_FS+0x148>)
 8006558:	7912      	ldrb	r2, [r2, #4]
 800655a:	701a      	strb	r2, [r3, #0]
    	pbuf[5] = LineCoding.paritytype;
 800655c:	683b      	ldr	r3, [r7, #0]
 800655e:	3305      	adds	r3, #5
 8006560:	4a08      	ldr	r2, [pc, #32]	; (8006584 <CDC_Control_FS+0x148>)
 8006562:	7952      	ldrb	r2, [r2, #5]
 8006564:	701a      	strb	r2, [r3, #0]
    	pbuf[6] = LineCoding.datatype;
 8006566:	683b      	ldr	r3, [r7, #0]
 8006568:	3306      	adds	r3, #6
 800656a:	4a06      	ldr	r2, [pc, #24]	; (8006584 <CDC_Control_FS+0x148>)
 800656c:	7992      	ldrb	r2, [r2, #6]
 800656e:	701a      	strb	r2, [r3, #0]
    break;
 8006570:	e000      	b.n	8006574 <CDC_Control_FS+0x138>
    case CDC_SEND_BREAK:

    break;

  default:
    break;
 8006572:	bf00      	nop
  }

  return (USBD_OK);
 8006574:	2300      	movs	r3, #0
  /* USER CODE END 5 */
}
 8006576:	4618      	mov	r0, r3
 8006578:	370c      	adds	r7, #12
 800657a:	46bd      	mov	sp, r7
 800657c:	f85d 7b04 	ldr.w	r7, [sp], #4
 8006580:	4770      	bx	lr
 8006582:	bf00      	nop
 8006584:	2000011c 	.word	0x2000011c

08006588 <CDC_Receive_FS>:
  * @param  Buf: Buffer of data to be received
  * @param  Len: Number of data received (in bytes)
  * @retval Result of the operation: USBD_OK if all operations are OK else USBD_FAIL
  */
static int8_t CDC_Receive_FS(uint8_t* Buf, uint32_t *Len)
{
 8006588:	b580      	push	{r7, lr}
 800658a:	b082      	sub	sp, #8
 800658c:	af00      	add	r7, sp, #0
 800658e:	6078      	str	r0, [r7, #4]
 8006590:	6039      	str	r1, [r7, #0]
  /* USER CODE BEGIN 6 */
  USBD_CDC_SetRxBuffer(&hUsbDeviceFS, &Buf[0]);
 8006592:	6879      	ldr	r1, [r7, #4]
 8006594:	4805      	ldr	r0, [pc, #20]	; (80065ac <CDC_Receive_FS+0x24>)
 8006596:	f7fe fd91 	bl	80050bc <USBD_CDC_SetRxBuffer>
  USBD_CDC_ReceivePacket(&hUsbDeviceFS);
 800659a:	4804      	ldr	r0, [pc, #16]	; (80065ac <CDC_Receive_FS+0x24>)
 800659c:	f7fe fdd2 	bl	8005144 <USBD_CDC_ReceivePacket>
  return (USBD_OK);
 80065a0:	2300      	movs	r3, #0
  /* USER CODE END 6 */
}
 80065a2:	4618      	mov	r0, r3
 80065a4:	3708      	adds	r7, #8
 80065a6:	46bd      	mov	sp, r7
 80065a8:	bd80      	pop	{r7, pc}
 80065aa:	bf00      	nop
 80065ac:	200002a4 	.word	0x200002a4

080065b0 <CDC_Transmit_FS>:
  * @param  Buf: Buffer of data to be sent
  * @param  Len: Number of data to be sent (in bytes)
  * @retval USBD_OK if all operations are OK else USBD_FAIL or USBD_BUSY
  */
uint8_t CDC_Transmit_FS(uint8_t* Buf, uint16_t Len)
{
 80065b0:	b580      	push	{r7, lr}
 80065b2:	b084      	sub	sp, #16
 80065b4:	af00      	add	r7, sp, #0
 80065b6:	6078      	str	r0, [r7, #4]
 80065b8:	460b      	mov	r3, r1
 80065ba:	807b      	strh	r3, [r7, #2]
  uint8_t result = USBD_OK;
 80065bc:	2300      	movs	r3, #0
 80065be:	73fb      	strb	r3, [r7, #15]
  /* USER CODE BEGIN 7 */
  USBD_CDC_HandleTypeDef *hcdc = (USBD_CDC_HandleTypeDef*)hUsbDeviceFS.pClassData;
 80065c0:	4b0d      	ldr	r3, [pc, #52]	; (80065f8 <CDC_Transmit_FS+0x48>)
 80065c2:	f8d3 32bc 	ldr.w	r3, [r3, #700]	; 0x2bc
 80065c6:	60bb      	str	r3, [r7, #8]
  if (hcdc->TxState != 0){
 80065c8:	68bb      	ldr	r3, [r7, #8]
 80065ca:	f8d3 3214 	ldr.w	r3, [r3, #532]	; 0x214
 80065ce:	2b00      	cmp	r3, #0
 80065d0:	d001      	beq.n	80065d6 <CDC_Transmit_FS+0x26>
    return USBD_BUSY;
 80065d2:	2301      	movs	r3, #1
 80065d4:	e00b      	b.n	80065ee <CDC_Transmit_FS+0x3e>
  }
  USBD_CDC_SetTxBuffer(&hUsbDeviceFS, Buf, Len);
 80065d6:	887b      	ldrh	r3, [r7, #2]
 80065d8:	461a      	mov	r2, r3
 80065da:	6879      	ldr	r1, [r7, #4]
 80065dc:	4806      	ldr	r0, [pc, #24]	; (80065f8 <CDC_Transmit_FS+0x48>)
 80065de:	f7fe fd54 	bl	800508a <USBD_CDC_SetTxBuffer>
  result = USBD_CDC_TransmitPacket(&hUsbDeviceFS);
 80065e2:	4805      	ldr	r0, [pc, #20]	; (80065f8 <CDC_Transmit_FS+0x48>)
 80065e4:	f7fe fd7e 	bl	80050e4 <USBD_CDC_TransmitPacket>
 80065e8:	4603      	mov	r3, r0
 80065ea:	73fb      	strb	r3, [r7, #15]
  /* USER CODE END 7 */
  return result;
 80065ec:	7bfb      	ldrb	r3, [r7, #15]
}
 80065ee:	4618      	mov	r0, r3
 80065f0:	3710      	adds	r7, #16
 80065f2:	46bd      	mov	sp, r7
 80065f4:	bd80      	pop	{r7, pc}
 80065f6:	bf00      	nop
 80065f8:	200002a4 	.word	0x200002a4

080065fc <CDC_TransmitCplt_FS>:
  * @param  Buf: Buffer of data to be received
  * @param  Len: Number of data received (in bytes)
  * @retval Result of the operation: USBD_OK if all operations are OK else USBD_FAIL
  */
static int8_t CDC_TransmitCplt_FS(uint8_t *Buf, uint32_t *Len, uint8_t epnum)
{
 80065fc:	b480      	push	{r7}
 80065fe:	b087      	sub	sp, #28
 8006600:	af00      	add	r7, sp, #0
 8006602:	60f8      	str	r0, [r7, #12]
 8006604:	60b9      	str	r1, [r7, #8]
 8006606:	4613      	mov	r3, r2
 8006608:	71fb      	strb	r3, [r7, #7]
  uint8_t result = USBD_OK;
 800660a:	2300      	movs	r3, #0
 800660c:	75fb      	strb	r3, [r7, #23]
  /* USER CODE BEGIN 13 */
  UNUSED(Buf);
  UNUSED(Len);
  UNUSED(epnum);
  /* USER CODE END 13 */
  return result;
 800660e:	f997 3017 	ldrsb.w	r3, [r7, #23]
}
 8006612:	4618      	mov	r0, r3
 8006614:	371c      	adds	r7, #28
 8006616:	46bd      	mov	sp, r7
 8006618:	f85d 7b04 	ldr.w	r7, [sp], #4
 800661c:	4770      	bx	lr
	...

08006620 <USBD_FS_DeviceDescriptor>:
  * @param  speed : Current device speed
  * @param  length : Pointer to data length variable
  * @retval Pointer to descriptor buffer
  */
uint8_t * USBD_FS_DeviceDescriptor(USBD_SpeedTypeDef speed, uint16_t *length)
{
 8006620:	b480      	push	{r7}
 8006622:	b083      	sub	sp, #12
 8006624:	af00      	add	r7, sp, #0
 8006626:	4603      	mov	r3, r0
 8006628:	6039      	str	r1, [r7, #0]
 800662a:	71fb      	strb	r3, [r7, #7]
  UNUSED(speed);
  *length = sizeof(USBD_FS_DeviceDesc);
 800662c:	683b      	ldr	r3, [r7, #0]
 800662e:	2212      	movs	r2, #18
 8006630:	801a      	strh	r2, [r3, #0]
  return USBD_FS_DeviceDesc;
 8006632:	4b03      	ldr	r3, [pc, #12]	; (8006640 <USBD_FS_DeviceDescriptor+0x20>)
}
 8006634:	4618      	mov	r0, r3
 8006636:	370c      	adds	r7, #12
 8006638:	46bd      	mov	sp, r7
 800663a:	f85d 7b04 	ldr.w	r7, [sp], #4
 800663e:	4770      	bx	lr
 8006640:	20000154 	.word	0x20000154

08006644 <USBD_FS_LangIDStrDescriptor>:
  * @param  speed : Current device speed
  * @param  length : Pointer to data length variable
  * @retval Pointer to descriptor buffer
  */
uint8_t * USBD_FS_LangIDStrDescriptor(USBD_SpeedTypeDef speed, uint16_t *length)
{
 8006644:	b480      	push	{r7}
 8006646:	b083      	sub	sp, #12
 8006648:	af00      	add	r7, sp, #0
 800664a:	4603      	mov	r3, r0
 800664c:	6039      	str	r1, [r7, #0]
 800664e:	71fb      	strb	r3, [r7, #7]
  UNUSED(speed);
  *length = sizeof(USBD_LangIDDesc);
 8006650:	683b      	ldr	r3, [r7, #0]
 8006652:	2204      	movs	r2, #4
 8006654:	801a      	strh	r2, [r3, #0]
  return USBD_LangIDDesc;
 8006656:	4b03      	ldr	r3, [pc, #12]	; (8006664 <USBD_FS_LangIDStrDescriptor+0x20>)
}
 8006658:	4618      	mov	r0, r3
 800665a:	370c      	adds	r7, #12
 800665c:	46bd      	mov	sp, r7
 800665e:	f85d 7b04 	ldr.w	r7, [sp], #4
 8006662:	4770      	bx	lr
 8006664:	20000168 	.word	0x20000168

08006668 <USBD_FS_ProductStrDescriptor>:
  * @param  speed : Current device speed
  * @param  length : Pointer to data length variable
  * @retval Pointer to descriptor buffer
  */
uint8_t * USBD_FS_ProductStrDescriptor(USBD_SpeedTypeDef speed, uint16_t *length)
{
 8006668:	b580      	push	{r7, lr}
 800666a:	b082      	sub	sp, #8
 800666c:	af00      	add	r7, sp, #0
 800666e:	4603      	mov	r3, r0
 8006670:	6039      	str	r1, [r7, #0]
 8006672:	71fb      	strb	r3, [r7, #7]
  if(speed == 0)
 8006674:	79fb      	ldrb	r3, [r7, #7]
 8006676:	2b00      	cmp	r3, #0
 8006678:	d105      	bne.n	8006686 <USBD_FS_ProductStrDescriptor+0x1e>
  {
    USBD_GetString((uint8_t *)USBD_PRODUCT_STRING_FS, USBD_StrDesc, length);
 800667a:	683a      	ldr	r2, [r7, #0]
 800667c:	4907      	ldr	r1, [pc, #28]	; (800669c <USBD_FS_ProductStrDescriptor+0x34>)
 800667e:	4808      	ldr	r0, [pc, #32]	; (80066a0 <USBD_FS_ProductStrDescriptor+0x38>)
 8006680:	f7ff fdaf 	bl	80061e2 <USBD_GetString>
 8006684:	e004      	b.n	8006690 <USBD_FS_ProductStrDescriptor+0x28>
  }
  else
  {
    USBD_GetString((uint8_t *)USBD_PRODUCT_STRING_FS, USBD_StrDesc, length);
 8006686:	683a      	ldr	r2, [r7, #0]
 8006688:	4904      	ldr	r1, [pc, #16]	; (800669c <USBD_FS_ProductStrDescriptor+0x34>)
 800668a:	4805      	ldr	r0, [pc, #20]	; (80066a0 <USBD_FS_ProductStrDescriptor+0x38>)
 800668c:	f7ff fda9 	bl	80061e2 <USBD_GetString>
  }
  return USBD_StrDesc;
 8006690:	4b02      	ldr	r3, [pc, #8]	; (800669c <USBD_FS_ProductStrDescriptor+0x34>)
}
 8006692:	4618      	mov	r0, r3
 8006694:	3708      	adds	r7, #8
 8006696:	46bd      	mov	sp, r7
 8006698:	bd80      	pop	{r7, pc}
 800669a:	bf00      	nop
 800669c:	20000584 	.word	0x20000584
 80066a0:	08007070 	.word	0x08007070

080066a4 <USBD_FS_ManufacturerStrDescriptor>:
  * @param  speed : Current device speed
  * @param  length : Pointer to data length variable
  * @retval Pointer to descriptor buffer
  */
uint8_t * USBD_FS_ManufacturerStrDescriptor(USBD_SpeedTypeDef speed, uint16_t *length)
{
 80066a4:	b580      	push	{r7, lr}
 80066a6:	b082      	sub	sp, #8
 80066a8:	af00      	add	r7, sp, #0
 80066aa:	4603      	mov	r3, r0
 80066ac:	6039      	str	r1, [r7, #0]
 80066ae:	71fb      	strb	r3, [r7, #7]
  UNUSED(speed);
  USBD_GetString((uint8_t *)USBD_MANUFACTURER_STRING, USBD_StrDesc, length);
 80066b0:	683a      	ldr	r2, [r7, #0]
 80066b2:	4904      	ldr	r1, [pc, #16]	; (80066c4 <USBD_FS_ManufacturerStrDescriptor+0x20>)
 80066b4:	4804      	ldr	r0, [pc, #16]	; (80066c8 <USBD_FS_ManufacturerStrDescriptor+0x24>)
 80066b6:	f7ff fd94 	bl	80061e2 <USBD_GetString>
  return USBD_StrDesc;
 80066ba:	4b02      	ldr	r3, [pc, #8]	; (80066c4 <USBD_FS_ManufacturerStrDescriptor+0x20>)
}
 80066bc:	4618      	mov	r0, r3
 80066be:	3708      	adds	r7, #8
 80066c0:	46bd      	mov	sp, r7
 80066c2:	bd80      	pop	{r7, pc}
 80066c4:	20000584 	.word	0x20000584
 80066c8:	08007088 	.word	0x08007088

080066cc <USBD_FS_SerialStrDescriptor>:
  * @param  speed : Current device speed
  * @param  length : Pointer to data length variable
  * @retval Pointer to descriptor buffer
  */
uint8_t * USBD_FS_SerialStrDescriptor(USBD_SpeedTypeDef speed, uint16_t *length)
{
 80066cc:	b580      	push	{r7, lr}
 80066ce:	b082      	sub	sp, #8
 80066d0:	af00      	add	r7, sp, #0
 80066d2:	4603      	mov	r3, r0
 80066d4:	6039      	str	r1, [r7, #0]
 80066d6:	71fb      	strb	r3, [r7, #7]
  UNUSED(speed);
  *length = USB_SIZ_STRING_SERIAL;
 80066d8:	683b      	ldr	r3, [r7, #0]
 80066da:	221a      	movs	r2, #26
 80066dc:	801a      	strh	r2, [r3, #0]

  /* Update the serial number string descriptor with the data from the unique
   * ID */
  Get_SerialNum();
 80066de:	f000 f843 	bl	8006768 <Get_SerialNum>
  /* USER CODE BEGIN USBD_FS_SerialStrDescriptor */

  /* USER CODE END USBD_FS_SerialStrDescriptor */
  return (uint8_t *) USBD_StringSerial;
 80066e2:	4b02      	ldr	r3, [pc, #8]	; (80066ec <USBD_FS_SerialStrDescriptor+0x20>)
}
 80066e4:	4618      	mov	r0, r3
 80066e6:	3708      	adds	r7, #8
 80066e8:	46bd      	mov	sp, r7
 80066ea:	bd80      	pop	{r7, pc}
 80066ec:	2000016c 	.word	0x2000016c

080066f0 <USBD_FS_ConfigStrDescriptor>:
  * @param  speed : Current device speed
  * @param  length : Pointer to data length variable
  * @retval Pointer to descriptor buffer
  */
uint8_t * USBD_FS_ConfigStrDescriptor(USBD_SpeedTypeDef speed, uint16_t *length)
{
 80066f0:	b580      	push	{r7, lr}
 80066f2:	b082      	sub	sp, #8
 80066f4:	af00      	add	r7, sp, #0
 80066f6:	4603      	mov	r3, r0
 80066f8:	6039      	str	r1, [r7, #0]
 80066fa:	71fb      	strb	r3, [r7, #7]
  if(speed == USBD_SPEED_HIGH)
 80066fc:	79fb      	ldrb	r3, [r7, #7]
 80066fe:	2b00      	cmp	r3, #0
 8006700:	d105      	bne.n	800670e <USBD_FS_ConfigStrDescriptor+0x1e>
  {
    USBD_GetString((uint8_t *)USBD_CONFIGURATION_STRING_FS, USBD_StrDesc, length);
 8006702:	683a      	ldr	r2, [r7, #0]
 8006704:	4907      	ldr	r1, [pc, #28]	; (8006724 <USBD_FS_ConfigStrDescriptor+0x34>)
 8006706:	4808      	ldr	r0, [pc, #32]	; (8006728 <USBD_FS_ConfigStrDescriptor+0x38>)
 8006708:	f7ff fd6b 	bl	80061e2 <USBD_GetString>
 800670c:	e004      	b.n	8006718 <USBD_FS_ConfigStrDescriptor+0x28>
  }
  else
  {
    USBD_GetString((uint8_t *)USBD_CONFIGURATION_STRING_FS, USBD_StrDesc, length);
 800670e:	683a      	ldr	r2, [r7, #0]
 8006710:	4904      	ldr	r1, [pc, #16]	; (8006724 <USBD_FS_ConfigStrDescriptor+0x34>)
 8006712:	4805      	ldr	r0, [pc, #20]	; (8006728 <USBD_FS_ConfigStrDescriptor+0x38>)
 8006714:	f7ff fd65 	bl	80061e2 <USBD_GetString>
  }
  return USBD_StrDesc;
 8006718:	4b02      	ldr	r3, [pc, #8]	; (8006724 <USBD_FS_ConfigStrDescriptor+0x34>)
}
 800671a:	4618      	mov	r0, r3
 800671c:	3708      	adds	r7, #8
 800671e:	46bd      	mov	sp, r7
 8006720:	bd80      	pop	{r7, pc}
 8006722:	bf00      	nop
 8006724:	20000584 	.word	0x20000584
 8006728:	0800709c 	.word	0x0800709c

0800672c <USBD_FS_InterfaceStrDescriptor>:
  * @param  speed : Current device speed
  * @param  length : Pointer to data length variable
  * @retval Pointer to descriptor buffer
  */
uint8_t * USBD_FS_InterfaceStrDescriptor(USBD_SpeedTypeDef speed, uint16_t *length)
{
 800672c:	b580      	push	{r7, lr}
 800672e:	b082      	sub	sp, #8
 8006730:	af00      	add	r7, sp, #0
 8006732:	4603      	mov	r3, r0
 8006734:	6039      	str	r1, [r7, #0]
 8006736:	71fb      	strb	r3, [r7, #7]
  if(speed == 0)
 8006738:	79fb      	ldrb	r3, [r7, #7]
 800673a:	2b00      	cmp	r3, #0
 800673c:	d105      	bne.n	800674a <USBD_FS_InterfaceStrDescriptor+0x1e>
  {
    USBD_GetString((uint8_t *)USBD_INTERFACE_STRING_FS, USBD_StrDesc, length);
 800673e:	683a      	ldr	r2, [r7, #0]
 8006740:	4907      	ldr	r1, [pc, #28]	; (8006760 <USBD_FS_InterfaceStrDescriptor+0x34>)
 8006742:	4808      	ldr	r0, [pc, #32]	; (8006764 <USBD_FS_InterfaceStrDescriptor+0x38>)
 8006744:	f7ff fd4d 	bl	80061e2 <USBD_GetString>
 8006748:	e004      	b.n	8006754 <USBD_FS_InterfaceStrDescriptor+0x28>
  }
  else
  {
    USBD_GetString((uint8_t *)USBD_INTERFACE_STRING_FS, USBD_StrDesc, length);
 800674a:	683a      	ldr	r2, [r7, #0]
 800674c:	4904      	ldr	r1, [pc, #16]	; (8006760 <USBD_FS_InterfaceStrDescriptor+0x34>)
 800674e:	4805      	ldr	r0, [pc, #20]	; (8006764 <USBD_FS_InterfaceStrDescriptor+0x38>)
 8006750:	f7ff fd47 	bl	80061e2 <USBD_GetString>
  }
  return USBD_StrDesc;
 8006754:	4b02      	ldr	r3, [pc, #8]	; (8006760 <USBD_FS_InterfaceStrDescriptor+0x34>)
}
 8006756:	4618      	mov	r0, r3
 8006758:	3708      	adds	r7, #8
 800675a:	46bd      	mov	sp, r7
 800675c:	bd80      	pop	{r7, pc}
 800675e:	bf00      	nop
 8006760:	20000584 	.word	0x20000584
 8006764:	080070a8 	.word	0x080070a8

08006768 <Get_SerialNum>:
  * @brief  Create the serial number string descriptor
  * @param  None
  * @retval None
  */
static void Get_SerialNum(void)
{
 8006768:	b580      	push	{r7, lr}
 800676a:	b084      	sub	sp, #16
 800676c:	af00      	add	r7, sp, #0
  uint32_t deviceserial0, deviceserial1, deviceserial2;

  deviceserial0 = *(uint32_t *) DEVICE_ID1;
 800676e:	4b0f      	ldr	r3, [pc, #60]	; (80067ac <Get_SerialNum+0x44>)
 8006770:	681b      	ldr	r3, [r3, #0]
 8006772:	60fb      	str	r3, [r7, #12]
  deviceserial1 = *(uint32_t *) DEVICE_ID2;
 8006774:	4b0e      	ldr	r3, [pc, #56]	; (80067b0 <Get_SerialNum+0x48>)
 8006776:	681b      	ldr	r3, [r3, #0]
 8006778:	60bb      	str	r3, [r7, #8]
  deviceserial2 = *(uint32_t *) DEVICE_ID3;
 800677a:	4b0e      	ldr	r3, [pc, #56]	; (80067b4 <Get_SerialNum+0x4c>)
 800677c:	681b      	ldr	r3, [r3, #0]
 800677e:	607b      	str	r3, [r7, #4]

  deviceserial0 += deviceserial2;
 8006780:	68fa      	ldr	r2, [r7, #12]
 8006782:	687b      	ldr	r3, [r7, #4]
 8006784:	4413      	add	r3, r2
 8006786:	60fb      	str	r3, [r7, #12]

  if (deviceserial0 != 0)
 8006788:	68fb      	ldr	r3, [r7, #12]
 800678a:	2b00      	cmp	r3, #0
 800678c:	d009      	beq.n	80067a2 <Get_SerialNum+0x3a>
  {
    IntToUnicode(deviceserial0, &USBD_StringSerial[2], 8);
 800678e:	2208      	movs	r2, #8
 8006790:	4909      	ldr	r1, [pc, #36]	; (80067b8 <Get_SerialNum+0x50>)
 8006792:	68f8      	ldr	r0, [r7, #12]
 8006794:	f000 f814 	bl	80067c0 <IntToUnicode>
    IntToUnicode(deviceserial1, &USBD_StringSerial[18], 4);
 8006798:	2204      	movs	r2, #4
 800679a:	4908      	ldr	r1, [pc, #32]	; (80067bc <Get_SerialNum+0x54>)
 800679c:	68b8      	ldr	r0, [r7, #8]
 800679e:	f000 f80f 	bl	80067c0 <IntToUnicode>
  }
}
 80067a2:	bf00      	nop
 80067a4:	3710      	adds	r7, #16
 80067a6:	46bd      	mov	sp, r7
 80067a8:	bd80      	pop	{r7, pc}
 80067aa:	bf00      	nop
 80067ac:	1fff7a10 	.word	0x1fff7a10
 80067b0:	1fff7a14 	.word	0x1fff7a14
 80067b4:	1fff7a18 	.word	0x1fff7a18
 80067b8:	2000016e 	.word	0x2000016e
 80067bc:	2000017e 	.word	0x2000017e

080067c0 <IntToUnicode>:
  * @param  pbuf: pointer to the buffer
  * @param  len: buffer length
  * @retval None
  */
static void IntToUnicode(uint32_t value, uint8_t * pbuf, uint8_t len)
{
 80067c0:	b480      	push	{r7}
 80067c2:	b087      	sub	sp, #28
 80067c4:	af00      	add	r7, sp, #0
 80067c6:	60f8      	str	r0, [r7, #12]
 80067c8:	60b9      	str	r1, [r7, #8]
 80067ca:	4613      	mov	r3, r2
 80067cc:	71fb      	strb	r3, [r7, #7]
  uint8_t idx = 0;
 80067ce:	2300      	movs	r3, #0
 80067d0:	75fb      	strb	r3, [r7, #23]

  for (idx = 0; idx < len; idx++)
 80067d2:	2300      	movs	r3, #0
 80067d4:	75fb      	strb	r3, [r7, #23]
 80067d6:	e027      	b.n	8006828 <IntToUnicode+0x68>
  {
    if (((value >> 28)) < 0xA)
 80067d8:	68fb      	ldr	r3, [r7, #12]
 80067da:	0f1b      	lsrs	r3, r3, #28
 80067dc:	2b09      	cmp	r3, #9
 80067de:	d80b      	bhi.n	80067f8 <IntToUnicode+0x38>
    {
      pbuf[2 * idx] = (value >> 28) + '0';
 80067e0:	68fb      	ldr	r3, [r7, #12]
 80067e2:	0f1b      	lsrs	r3, r3, #28
 80067e4:	b2da      	uxtb	r2, r3
 80067e6:	7dfb      	ldrb	r3, [r7, #23]
 80067e8:	005b      	lsls	r3, r3, #1
 80067ea:	4619      	mov	r1, r3
 80067ec:	68bb      	ldr	r3, [r7, #8]
 80067ee:	440b      	add	r3, r1
 80067f0:	3230      	adds	r2, #48	; 0x30
 80067f2:	b2d2      	uxtb	r2, r2
 80067f4:	701a      	strb	r2, [r3, #0]
 80067f6:	e00a      	b.n	800680e <IntToUnicode+0x4e>
    }
    else
    {
      pbuf[2 * idx] = (value >> 28) + 'A' - 10;
 80067f8:	68fb      	ldr	r3, [r7, #12]
 80067fa:	0f1b      	lsrs	r3, r3, #28
 80067fc:	b2da      	uxtb	r2, r3
 80067fe:	7dfb      	ldrb	r3, [r7, #23]
 8006800:	005b      	lsls	r3, r3, #1
 8006802:	4619      	mov	r1, r3
 8006804:	68bb      	ldr	r3, [r7, #8]
 8006806:	440b      	add	r3, r1
 8006808:	3237      	adds	r2, #55	; 0x37
 800680a:	b2d2      	uxtb	r2, r2
 800680c:	701a      	strb	r2, [r3, #0]
    }

    value = value << 4;
 800680e:	68fb      	ldr	r3, [r7, #12]
 8006810:	011b      	lsls	r3, r3, #4
 8006812:	60fb      	str	r3, [r7, #12]

    pbuf[2 * idx + 1] = 0;
 8006814:	7dfb      	ldrb	r3, [r7, #23]
 8006816:	005b      	lsls	r3, r3, #1
 8006818:	3301      	adds	r3, #1
 800681a:	68ba      	ldr	r2, [r7, #8]
 800681c:	4413      	add	r3, r2
 800681e:	2200      	movs	r2, #0
 8006820:	701a      	strb	r2, [r3, #0]
  for (idx = 0; idx < len; idx++)
 8006822:	7dfb      	ldrb	r3, [r7, #23]
 8006824:	3301      	adds	r3, #1
 8006826:	75fb      	strb	r3, [r7, #23]
 8006828:	7dfa      	ldrb	r2, [r7, #23]
 800682a:	79fb      	ldrb	r3, [r7, #7]
 800682c:	429a      	cmp	r2, r3
 800682e:	d3d3      	bcc.n	80067d8 <IntToUnicode+0x18>
  }
}
 8006830:	bf00      	nop
 8006832:	371c      	adds	r7, #28
 8006834:	46bd      	mov	sp, r7
 8006836:	f85d 7b04 	ldr.w	r7, [sp], #4
 800683a:	4770      	bx	lr

0800683c <HAL_PCD_MspInit>:
                       LL Driver Callbacks (PCD -> USB Device Library)
*******************************************************************************/
/* MSP Init */

void HAL_PCD_MspInit(PCD_HandleTypeDef* pcdHandle)
{
 800683c:	b580      	push	{r7, lr}
 800683e:	b08a      	sub	sp, #40	; 0x28
 8006840:	af00      	add	r7, sp, #0
 8006842:	6078      	str	r0, [r7, #4]
  GPIO_InitTypeDef GPIO_InitStruct = {0};
 8006844:	f107 0314 	add.w	r3, r7, #20
 8006848:	2200      	movs	r2, #0
 800684a:	601a      	str	r2, [r3, #0]
 800684c:	605a      	str	r2, [r3, #4]
 800684e:	609a      	str	r2, [r3, #8]
 8006850:	60da      	str	r2, [r3, #12]
 8006852:	611a      	str	r2, [r3, #16]
  if(pcdHandle->Instance==USB_OTG_FS)
 8006854:	687b      	ldr	r3, [r7, #4]
 8006856:	681b      	ldr	r3, [r3, #0]
 8006858:	f1b3 4fa0 	cmp.w	r3, #1342177280	; 0x50000000
 800685c:	d147      	bne.n	80068ee <HAL_PCD_MspInit+0xb2>
  {
  /* USER CODE BEGIN USB_OTG_FS_MspInit 0 */

  /* USER CODE END USB_OTG_FS_MspInit 0 */

    __HAL_RCC_GPIOA_CLK_ENABLE();
 800685e:	2300      	movs	r3, #0
 8006860:	613b      	str	r3, [r7, #16]
 8006862:	4b25      	ldr	r3, [pc, #148]	; (80068f8 <HAL_PCD_MspInit+0xbc>)
 8006864:	6b1b      	ldr	r3, [r3, #48]	; 0x30
 8006866:	4a24      	ldr	r2, [pc, #144]	; (80068f8 <HAL_PCD_MspInit+0xbc>)
 8006868:	f043 0301 	orr.w	r3, r3, #1
 800686c:	6313      	str	r3, [r2, #48]	; 0x30
 800686e:	4b22      	ldr	r3, [pc, #136]	; (80068f8 <HAL_PCD_MspInit+0xbc>)
 8006870:	6b1b      	ldr	r3, [r3, #48]	; 0x30
 8006872:	f003 0301 	and.w	r3, r3, #1
 8006876:	613b      	str	r3, [r7, #16]
 8006878:	693b      	ldr	r3, [r7, #16]
    PA9     ------> USB_OTG_FS_VBUS
    PA10     ------> USB_OTG_FS_ID
    PA11     ------> USB_OTG_FS_DM
    PA12     ------> USB_OTG_FS_DP
    */
    GPIO_InitStruct.Pin = USB_SOF_Pin|USB_ID_Pin|USB_DM_Pin|USB_DP_Pin;
 800687a:	f44f 53e8 	mov.w	r3, #7424	; 0x1d00
 800687e:	617b      	str	r3, [r7, #20]
    GPIO_InitStruct.Mode = GPIO_MODE_AF_PP;
 8006880:	2302      	movs	r3, #2
 8006882:	61bb      	str	r3, [r7, #24]
    GPIO_InitStruct.Pull = GPIO_NOPULL;
 8006884:	2300      	movs	r3, #0
 8006886:	61fb      	str	r3, [r7, #28]
    GPIO_InitStruct.Speed = GPIO_SPEED_FREQ_VERY_HIGH;
 8006888:	2303      	movs	r3, #3
 800688a:	623b      	str	r3, [r7, #32]
    GPIO_InitStruct.Alternate = GPIO_AF10_OTG_FS;
 800688c:	230a      	movs	r3, #10
 800688e:	627b      	str	r3, [r7, #36]	; 0x24
    HAL_GPIO_Init(GPIOA, &GPIO_InitStruct);
 8006890:	f107 0314 	add.w	r3, r7, #20
 8006894:	4619      	mov	r1, r3
 8006896:	4819      	ldr	r0, [pc, #100]	; (80068fc <HAL_PCD_MspInit+0xc0>)
 8006898:	f7fa fac4 	bl	8000e24 <HAL_GPIO_Init>

    GPIO_InitStruct.Pin = USB_VBUS_Pin;
 800689c:	f44f 7300 	mov.w	r3, #512	; 0x200
 80068a0:	617b      	str	r3, [r7, #20]
    GPIO_InitStruct.Mode = GPIO_MODE_INPUT;
 80068a2:	2300      	movs	r3, #0
 80068a4:	61bb      	str	r3, [r7, #24]
    GPIO_InitStruct.Pull = GPIO_NOPULL;
 80068a6:	2300      	movs	r3, #0
 80068a8:	61fb      	str	r3, [r7, #28]
    HAL_GPIO_Init(USB_VBUS_GPIO_Port, &GPIO_InitStruct);
 80068aa:	f107 0314 	add.w	r3, r7, #20
 80068ae:	4619      	mov	r1, r3
 80068b0:	4812      	ldr	r0, [pc, #72]	; (80068fc <HAL_PCD_MspInit+0xc0>)
 80068b2:	f7fa fab7 	bl	8000e24 <HAL_GPIO_Init>

    /* Peripheral clock enable */
    __HAL_RCC_USB_OTG_FS_CLK_ENABLE();
 80068b6:	4b10      	ldr	r3, [pc, #64]	; (80068f8 <HAL_PCD_MspInit+0xbc>)
 80068b8:	6b5b      	ldr	r3, [r3, #52]	; 0x34
 80068ba:	4a0f      	ldr	r2, [pc, #60]	; (80068f8 <HAL_PCD_MspInit+0xbc>)
 80068bc:	f043 0380 	orr.w	r3, r3, #128	; 0x80
 80068c0:	6353      	str	r3, [r2, #52]	; 0x34
 80068c2:	2300      	movs	r3, #0
 80068c4:	60fb      	str	r3, [r7, #12]
 80068c6:	4b0c      	ldr	r3, [pc, #48]	; (80068f8 <HAL_PCD_MspInit+0xbc>)
 80068c8:	6c5b      	ldr	r3, [r3, #68]	; 0x44
 80068ca:	4a0b      	ldr	r2, [pc, #44]	; (80068f8 <HAL_PCD_MspInit+0xbc>)
 80068cc:	f443 4380 	orr.w	r3, r3, #16384	; 0x4000
 80068d0:	6453      	str	r3, [r2, #68]	; 0x44
 80068d2:	4b09      	ldr	r3, [pc, #36]	; (80068f8 <HAL_PCD_MspInit+0xbc>)
 80068d4:	6c5b      	ldr	r3, [r3, #68]	; 0x44
 80068d6:	f403 4380 	and.w	r3, r3, #16384	; 0x4000
 80068da:	60fb      	str	r3, [r7, #12]
 80068dc:	68fb      	ldr	r3, [r7, #12]

    /* Peripheral interrupt init */
    HAL_NVIC_SetPriority(OTG_FS_IRQn, 0, 0);
 80068de:	2200      	movs	r2, #0
 80068e0:	2100      	movs	r1, #0
 80068e2:	2043      	movs	r0, #67	; 0x43
 80068e4:	f7fa fa67 	bl	8000db6 <HAL_NVIC_SetPriority>
    HAL_NVIC_EnableIRQ(OTG_FS_IRQn);
 80068e8:	2043      	movs	r0, #67	; 0x43
 80068ea:	f7fa fa80 	bl	8000dee <HAL_NVIC_EnableIRQ>
  /* USER CODE BEGIN USB_OTG_FS_MspInit 1 */

  /* USER CODE END USB_OTG_FS_MspInit 1 */
  }
}
 80068ee:	bf00      	nop
 80068f0:	3728      	adds	r7, #40	; 0x28
 80068f2:	46bd      	mov	sp, r7
 80068f4:	bd80      	pop	{r7, pc}
 80068f6:	bf00      	nop
 80068f8:	40023800 	.word	0x40023800
 80068fc:	40020000 	.word	0x40020000

08006900 <HAL_PCD_SetupStageCallback>:
#if (USE_HAL_PCD_REGISTER_CALLBACKS == 1U)
static void PCD_SetupStageCallback(PCD_HandleTypeDef *hpcd)
#else
void HAL_PCD_SetupStageCallback(PCD_HandleTypeDef *hpcd)
#endif /* USE_HAL_PCD_REGISTER_CALLBACKS */
{
 8006900:	b580      	push	{r7, lr}
 8006902:	b082      	sub	sp, #8
 8006904:	af00      	add	r7, sp, #0
 8006906:	6078      	str	r0, [r7, #4]
  USBD_LL_SetupStage((USBD_HandleTypeDef*)hpcd->pData, (uint8_t *)hpcd->Setup);
 8006908:	687b      	ldr	r3, [r7, #4]
 800690a:	f8d3 2404 	ldr.w	r2, [r3, #1028]	; 0x404
 800690e:	687b      	ldr	r3, [r7, #4]
 8006910:	f503 7371 	add.w	r3, r3, #964	; 0x3c4
 8006914:	4619      	mov	r1, r3
 8006916:	4610      	mov	r0, r2
 8006918:	f7fe fce0 	bl	80052dc <USBD_LL_SetupStage>
}
 800691c:	bf00      	nop
 800691e:	3708      	adds	r7, #8
 8006920:	46bd      	mov	sp, r7
 8006922:	bd80      	pop	{r7, pc}

08006924 <HAL_PCD_DataOutStageCallback>:
#if (USE_HAL_PCD_REGISTER_CALLBACKS == 1U)
static void PCD_DataOutStageCallback(PCD_HandleTypeDef *hpcd, uint8_t epnum)
#else
void HAL_PCD_DataOutStageCallback(PCD_HandleTypeDef *hpcd, uint8_t epnum)
#endif /* USE_HAL_PCD_REGISTER_CALLBACKS */
{
 8006924:	b580      	push	{r7, lr}
 8006926:	b082      	sub	sp, #8
 8006928:	af00      	add	r7, sp, #0
 800692a:	6078      	str	r0, [r7, #4]
 800692c:	460b      	mov	r3, r1
 800692e:	70fb      	strb	r3, [r7, #3]
  USBD_LL_DataOutStage((USBD_HandleTypeDef*)hpcd->pData, epnum, hpcd->OUT_ep[epnum].xfer_buff);
 8006930:	687b      	ldr	r3, [r7, #4]
 8006932:	f8d3 0404 	ldr.w	r0, [r3, #1028]	; 0x404
 8006936:	78fa      	ldrb	r2, [r7, #3]
 8006938:	6879      	ldr	r1, [r7, #4]
 800693a:	4613      	mov	r3, r2
 800693c:	00db      	lsls	r3, r3, #3
 800693e:	1a9b      	subs	r3, r3, r2
 8006940:	009b      	lsls	r3, r3, #2
 8006942:	440b      	add	r3, r1
 8006944:	f503 7302 	add.w	r3, r3, #520	; 0x208
 8006948:	681a      	ldr	r2, [r3, #0]
 800694a:	78fb      	ldrb	r3, [r7, #3]
 800694c:	4619      	mov	r1, r3
 800694e:	f7fe fd18 	bl	8005382 <USBD_LL_DataOutStage>
}
 8006952:	bf00      	nop
 8006954:	3708      	adds	r7, #8
 8006956:	46bd      	mov	sp, r7
 8006958:	bd80      	pop	{r7, pc}

0800695a <HAL_PCD_DataInStageCallback>:
#if (USE_HAL_PCD_REGISTER_CALLBACKS == 1U)
static void PCD_DataInStageCallback(PCD_HandleTypeDef *hpcd, uint8_t epnum)
#else
void HAL_PCD_DataInStageCallback(PCD_HandleTypeDef *hpcd, uint8_t epnum)
#endif /* USE_HAL_PCD_REGISTER_CALLBACKS */
{
 800695a:	b580      	push	{r7, lr}
 800695c:	b082      	sub	sp, #8
 800695e:	af00      	add	r7, sp, #0
 8006960:	6078      	str	r0, [r7, #4]
 8006962:	460b      	mov	r3, r1
 8006964:	70fb      	strb	r3, [r7, #3]
  USBD_LL_DataInStage((USBD_HandleTypeDef*)hpcd->pData, epnum, hpcd->IN_ep[epnum].xfer_buff);
 8006966:	687b      	ldr	r3, [r7, #4]
 8006968:	f8d3 0404 	ldr.w	r0, [r3, #1028]	; 0x404
 800696c:	78fa      	ldrb	r2, [r7, #3]
 800696e:	6879      	ldr	r1, [r7, #4]
 8006970:	4613      	mov	r3, r2
 8006972:	00db      	lsls	r3, r3, #3
 8006974:	1a9b      	subs	r3, r3, r2
 8006976:	009b      	lsls	r3, r3, #2
 8006978:	440b      	add	r3, r1
 800697a:	3348      	adds	r3, #72	; 0x48
 800697c:	681a      	ldr	r2, [r3, #0]
 800697e:	78fb      	ldrb	r3, [r7, #3]
 8006980:	4619      	mov	r1, r3
 8006982:	f7fe fd61 	bl	8005448 <USBD_LL_DataInStage>
}
 8006986:	bf00      	nop
 8006988:	3708      	adds	r7, #8
 800698a:	46bd      	mov	sp, r7
 800698c:	bd80      	pop	{r7, pc}

0800698e <HAL_PCD_SOFCallback>:
#if (USE_HAL_PCD_REGISTER_CALLBACKS == 1U)
static void PCD_SOFCallback(PCD_HandleTypeDef *hpcd)
#else
void HAL_PCD_SOFCallback(PCD_HandleTypeDef *hpcd)
#endif /* USE_HAL_PCD_REGISTER_CALLBACKS */
{
 800698e:	b580      	push	{r7, lr}
 8006990:	b082      	sub	sp, #8
 8006992:	af00      	add	r7, sp, #0
 8006994:	6078      	str	r0, [r7, #4]
  USBD_LL_SOF((USBD_HandleTypeDef*)hpcd->pData);
 8006996:	687b      	ldr	r3, [r7, #4]
 8006998:	f8d3 3404 	ldr.w	r3, [r3, #1028]	; 0x404
 800699c:	4618      	mov	r0, r3
 800699e:	f7fe fe65 	bl	800566c <USBD_LL_SOF>
}
 80069a2:	bf00      	nop
 80069a4:	3708      	adds	r7, #8
 80069a6:	46bd      	mov	sp, r7
 80069a8:	bd80      	pop	{r7, pc}

080069aa <HAL_PCD_ResetCallback>:
#if (USE_HAL_PCD_REGISTER_CALLBACKS == 1U)
static void PCD_ResetCallback(PCD_HandleTypeDef *hpcd)
#else
void HAL_PCD_ResetCallback(PCD_HandleTypeDef *hpcd)
#endif /* USE_HAL_PCD_REGISTER_CALLBACKS */
{
 80069aa:	b580      	push	{r7, lr}
 80069ac:	b084      	sub	sp, #16
 80069ae:	af00      	add	r7, sp, #0
 80069b0:	6078      	str	r0, [r7, #4]
  USBD_SpeedTypeDef speed = USBD_SPEED_FULL;
 80069b2:	2301      	movs	r3, #1
 80069b4:	73fb      	strb	r3, [r7, #15]

  if ( hpcd->Init.speed == PCD_SPEED_HIGH)
 80069b6:	687b      	ldr	r3, [r7, #4]
 80069b8:	68db      	ldr	r3, [r3, #12]
 80069ba:	2b00      	cmp	r3, #0
 80069bc:	d102      	bne.n	80069c4 <HAL_PCD_ResetCallback+0x1a>
  {
    speed = USBD_SPEED_HIGH;
 80069be:	2300      	movs	r3, #0
 80069c0:	73fb      	strb	r3, [r7, #15]
 80069c2:	e008      	b.n	80069d6 <HAL_PCD_ResetCallback+0x2c>
  }
  else if ( hpcd->Init.speed == PCD_SPEED_FULL)
 80069c4:	687b      	ldr	r3, [r7, #4]
 80069c6:	68db      	ldr	r3, [r3, #12]
 80069c8:	2b02      	cmp	r3, #2
 80069ca:	d102      	bne.n	80069d2 <HAL_PCD_ResetCallback+0x28>
  {
    speed = USBD_SPEED_FULL;
 80069cc:	2301      	movs	r3, #1
 80069ce:	73fb      	strb	r3, [r7, #15]
 80069d0:	e001      	b.n	80069d6 <HAL_PCD_ResetCallback+0x2c>
  }
  else
  {
    Error_Handler();
 80069d2:	f7f9 ff63 	bl	800089c <Error_Handler>
  }
    /* Set Speed. */
  USBD_LL_SetSpeed((USBD_HandleTypeDef*)hpcd->pData, speed);
 80069d6:	687b      	ldr	r3, [r7, #4]
 80069d8:	f8d3 3404 	ldr.w	r3, [r3, #1028]	; 0x404
 80069dc:	7bfa      	ldrb	r2, [r7, #15]
 80069de:	4611      	mov	r1, r2
 80069e0:	4618      	mov	r0, r3
 80069e2:	f7fe fe08 	bl	80055f6 <USBD_LL_SetSpeed>

  /* Reset Device. */
  USBD_LL_Reset((USBD_HandleTypeDef*)hpcd->pData);
 80069e6:	687b      	ldr	r3, [r7, #4]
 80069e8:	f8d3 3404 	ldr.w	r3, [r3, #1028]	; 0x404
 80069ec:	4618      	mov	r0, r3
 80069ee:	f7fe fdc1 	bl	8005574 <USBD_LL_Reset>
}
 80069f2:	bf00      	nop
 80069f4:	3710      	adds	r7, #16
 80069f6:	46bd      	mov	sp, r7
 80069f8:	bd80      	pop	{r7, pc}
	...

080069fc <HAL_PCD_SuspendCallback>:
#if (USE_HAL_PCD_REGISTER_CALLBACKS == 1U)
static void PCD_SuspendCallback(PCD_HandleTypeDef *hpcd)
#else
void HAL_PCD_SuspendCallback(PCD_HandleTypeDef *hpcd)
#endif /* USE_HAL_PCD_REGISTER_CALLBACKS */
{
 80069fc:	b580      	push	{r7, lr}
 80069fe:	b082      	sub	sp, #8
 8006a00:	af00      	add	r7, sp, #0
 8006a02:	6078      	str	r0, [r7, #4]
  /* Inform USB library that core enters in suspend Mode. */
  USBD_LL_Suspend((USBD_HandleTypeDef*)hpcd->pData);
 8006a04:	687b      	ldr	r3, [r7, #4]
 8006a06:	f8d3 3404 	ldr.w	r3, [r3, #1028]	; 0x404
 8006a0a:	4618      	mov	r0, r3
 8006a0c:	f7fe fe03 	bl	8005616 <USBD_LL_Suspend>
  __HAL_PCD_GATE_PHYCLOCK(hpcd);
 8006a10:	687b      	ldr	r3, [r7, #4]
 8006a12:	681b      	ldr	r3, [r3, #0]
 8006a14:	f503 6360 	add.w	r3, r3, #3584	; 0xe00
 8006a18:	681b      	ldr	r3, [r3, #0]
 8006a1a:	687a      	ldr	r2, [r7, #4]
 8006a1c:	6812      	ldr	r2, [r2, #0]
 8006a1e:	f502 6260 	add.w	r2, r2, #3584	; 0xe00
 8006a22:	f043 0301 	orr.w	r3, r3, #1
 8006a26:	6013      	str	r3, [r2, #0]
  /* Enter in STOP mode. */
  /* USER CODE BEGIN 2 */
  if (hpcd->Init.low_power_enable)
 8006a28:	687b      	ldr	r3, [r7, #4]
 8006a2a:	6a1b      	ldr	r3, [r3, #32]
 8006a2c:	2b00      	cmp	r3, #0
 8006a2e:	d005      	beq.n	8006a3c <HAL_PCD_SuspendCallback+0x40>
  {
    /* Set SLEEPDEEP bit and SleepOnExit of Cortex System Control Register. */
    SCB->SCR |= (uint32_t)((uint32_t)(SCB_SCR_SLEEPDEEP_Msk | SCB_SCR_SLEEPONEXIT_Msk));
 8006a30:	4b04      	ldr	r3, [pc, #16]	; (8006a44 <HAL_PCD_SuspendCallback+0x48>)
 8006a32:	691b      	ldr	r3, [r3, #16]
 8006a34:	4a03      	ldr	r2, [pc, #12]	; (8006a44 <HAL_PCD_SuspendCallback+0x48>)
 8006a36:	f043 0306 	orr.w	r3, r3, #6
 8006a3a:	6113      	str	r3, [r2, #16]
  }
  /* USER CODE END 2 */
}
 8006a3c:	bf00      	nop
 8006a3e:	3708      	adds	r7, #8
 8006a40:	46bd      	mov	sp, r7
 8006a42:	bd80      	pop	{r7, pc}
 8006a44:	e000ed00 	.word	0xe000ed00

08006a48 <HAL_PCD_ResumeCallback>:
#if (USE_HAL_PCD_REGISTER_CALLBACKS == 1U)
static void PCD_ResumeCallback(PCD_HandleTypeDef *hpcd)
#else
void HAL_PCD_ResumeCallback(PCD_HandleTypeDef *hpcd)
#endif /* USE_HAL_PCD_REGISTER_CALLBACKS */
{
 8006a48:	b580      	push	{r7, lr}
 8006a4a:	b082      	sub	sp, #8
 8006a4c:	af00      	add	r7, sp, #0
 8006a4e:	6078      	str	r0, [r7, #4]
  /* USER CODE BEGIN 3 */

  /* USER CODE END 3 */
  USBD_LL_Resume((USBD_HandleTypeDef*)hpcd->pData);
 8006a50:	687b      	ldr	r3, [r7, #4]
 8006a52:	f8d3 3404 	ldr.w	r3, [r3, #1028]	; 0x404
 8006a56:	4618      	mov	r0, r3
 8006a58:	f7fe fdf2 	bl	8005640 <USBD_LL_Resume>
}
 8006a5c:	bf00      	nop
 8006a5e:	3708      	adds	r7, #8
 8006a60:	46bd      	mov	sp, r7
 8006a62:	bd80      	pop	{r7, pc}

08006a64 <HAL_PCD_ISOOUTIncompleteCallback>:
#if (USE_HAL_PCD_REGISTER_CALLBACKS == 1U)
static void PCD_ISOOUTIncompleteCallback(PCD_HandleTypeDef *hpcd, uint8_t epnum)
#else
void HAL_PCD_ISOOUTIncompleteCallback(PCD_HandleTypeDef *hpcd, uint8_t epnum)
#endif /* USE_HAL_PCD_REGISTER_CALLBACKS */
{
 8006a64:	b580      	push	{r7, lr}
 8006a66:	b082      	sub	sp, #8
 8006a68:	af00      	add	r7, sp, #0
 8006a6a:	6078      	str	r0, [r7, #4]
 8006a6c:	460b      	mov	r3, r1
 8006a6e:	70fb      	strb	r3, [r7, #3]
  USBD_LL_IsoOUTIncomplete((USBD_HandleTypeDef*)hpcd->pData, epnum);
 8006a70:	687b      	ldr	r3, [r7, #4]
 8006a72:	f8d3 3404 	ldr.w	r3, [r3, #1028]	; 0x404
 8006a76:	78fa      	ldrb	r2, [r7, #3]
 8006a78:	4611      	mov	r1, r2
 8006a7a:	4618      	mov	r0, r3
 8006a7c:	f7fe fe1d 	bl	80056ba <USBD_LL_IsoOUTIncomplete>
}
 8006a80:	bf00      	nop
 8006a82:	3708      	adds	r7, #8
 8006a84:	46bd      	mov	sp, r7
 8006a86:	bd80      	pop	{r7, pc}

08006a88 <HAL_PCD_ISOINIncompleteCallback>:
#if (USE_HAL_PCD_REGISTER_CALLBACKS == 1U)
static void PCD_ISOINIncompleteCallback(PCD_HandleTypeDef *hpcd, uint8_t epnum)
#else
void HAL_PCD_ISOINIncompleteCallback(PCD_HandleTypeDef *hpcd, uint8_t epnum)
#endif /* USE_HAL_PCD_REGISTER_CALLBACKS */
{
 8006a88:	b580      	push	{r7, lr}
 8006a8a:	b082      	sub	sp, #8
 8006a8c:	af00      	add	r7, sp, #0
 8006a8e:	6078      	str	r0, [r7, #4]
 8006a90:	460b      	mov	r3, r1
 8006a92:	70fb      	strb	r3, [r7, #3]
  USBD_LL_IsoINIncomplete((USBD_HandleTypeDef*)hpcd->pData, epnum);
 8006a94:	687b      	ldr	r3, [r7, #4]
 8006a96:	f8d3 3404 	ldr.w	r3, [r3, #1028]	; 0x404
 8006a9a:	78fa      	ldrb	r2, [r7, #3]
 8006a9c:	4611      	mov	r1, r2
 8006a9e:	4618      	mov	r0, r3
 8006aa0:	f7fe fdfe 	bl	80056a0 <USBD_LL_IsoINIncomplete>
}
 8006aa4:	bf00      	nop
 8006aa6:	3708      	adds	r7, #8
 8006aa8:	46bd      	mov	sp, r7
 8006aaa:	bd80      	pop	{r7, pc}

08006aac <HAL_PCD_ConnectCallback>:
#if (USE_HAL_PCD_REGISTER_CALLBACKS == 1U)
static void PCD_ConnectCallback(PCD_HandleTypeDef *hpcd)
#else
void HAL_PCD_ConnectCallback(PCD_HandleTypeDef *hpcd)
#endif /* USE_HAL_PCD_REGISTER_CALLBACKS */
{
 8006aac:	b580      	push	{r7, lr}
 8006aae:	b082      	sub	sp, #8
 8006ab0:	af00      	add	r7, sp, #0
 8006ab2:	6078      	str	r0, [r7, #4]
  USBD_LL_DevConnected((USBD_HandleTypeDef*)hpcd->pData);
 8006ab4:	687b      	ldr	r3, [r7, #4]
 8006ab6:	f8d3 3404 	ldr.w	r3, [r3, #1028]	; 0x404
 8006aba:	4618      	mov	r0, r3
 8006abc:	f7fe fe0a 	bl	80056d4 <USBD_LL_DevConnected>
}
 8006ac0:	bf00      	nop
 8006ac2:	3708      	adds	r7, #8
 8006ac4:	46bd      	mov	sp, r7
 8006ac6:	bd80      	pop	{r7, pc}

08006ac8 <HAL_PCD_DisconnectCallback>:
#if (USE_HAL_PCD_REGISTER_CALLBACKS == 1U)
static void PCD_DisconnectCallback(PCD_HandleTypeDef *hpcd)
#else
void HAL_PCD_DisconnectCallback(PCD_HandleTypeDef *hpcd)
#endif /* USE_HAL_PCD_REGISTER_CALLBACKS */
{
 8006ac8:	b580      	push	{r7, lr}
 8006aca:	b082      	sub	sp, #8
 8006acc:	af00      	add	r7, sp, #0
 8006ace:	6078      	str	r0, [r7, #4]
  USBD_LL_DevDisconnected((USBD_HandleTypeDef*)hpcd->pData);
 8006ad0:	687b      	ldr	r3, [r7, #4]
 8006ad2:	f8d3 3404 	ldr.w	r3, [r3, #1028]	; 0x404
 8006ad6:	4618      	mov	r0, r3
 8006ad8:	f7fe fe07 	bl	80056ea <USBD_LL_DevDisconnected>
}
 8006adc:	bf00      	nop
 8006ade:	3708      	adds	r7, #8
 8006ae0:	46bd      	mov	sp, r7
 8006ae2:	bd80      	pop	{r7, pc}

08006ae4 <USBD_LL_Init>:
  * @brief  Initializes the low level portion of the device driver.
  * @param  pdev: Device handle
  * @retval USBD status
  */
USBD_StatusTypeDef USBD_LL_Init(USBD_HandleTypeDef *pdev)
{
 8006ae4:	b580      	push	{r7, lr}
 8006ae6:	b082      	sub	sp, #8
 8006ae8:	af00      	add	r7, sp, #0
 8006aea:	6078      	str	r0, [r7, #4]
  /* Init USB Ip. */
  if (pdev->id == DEVICE_FS) {
 8006aec:	687b      	ldr	r3, [r7, #4]
 8006aee:	781b      	ldrb	r3, [r3, #0]
 8006af0:	2b00      	cmp	r3, #0
 8006af2:	d13c      	bne.n	8006b6e <USBD_LL_Init+0x8a>
  /* Link the driver to the stack. */
  hpcd_USB_OTG_FS.pData = pdev;
 8006af4:	4a20      	ldr	r2, [pc, #128]	; (8006b78 <USBD_LL_Init+0x94>)
 8006af6:	687b      	ldr	r3, [r7, #4]
 8006af8:	f8c2 3404 	str.w	r3, [r2, #1028]	; 0x404
  pdev->pData = &hpcd_USB_OTG_FS;
 8006afc:	687b      	ldr	r3, [r7, #4]
 8006afe:	4a1e      	ldr	r2, [pc, #120]	; (8006b78 <USBD_LL_Init+0x94>)
 8006b00:	f8c3 22c4 	str.w	r2, [r3, #708]	; 0x2c4

  hpcd_USB_OTG_FS.Instance = USB_OTG_FS;
 8006b04:	4b1c      	ldr	r3, [pc, #112]	; (8006b78 <USBD_LL_Init+0x94>)
 8006b06:	f04f 42a0 	mov.w	r2, #1342177280	; 0x50000000
 8006b0a:	601a      	str	r2, [r3, #0]
  hpcd_USB_OTG_FS.Init.dev_endpoints = 4;
 8006b0c:	4b1a      	ldr	r3, [pc, #104]	; (8006b78 <USBD_LL_Init+0x94>)
 8006b0e:	2204      	movs	r2, #4
 8006b10:	605a      	str	r2, [r3, #4]
  hpcd_USB_OTG_FS.Init.speed = PCD_SPEED_FULL;
 8006b12:	4b19      	ldr	r3, [pc, #100]	; (8006b78 <USBD_LL_Init+0x94>)
 8006b14:	2202      	movs	r2, #2
 8006b16:	60da      	str	r2, [r3, #12]
  hpcd_USB_OTG_FS.Init.dma_enable = DISABLE;
 8006b18:	4b17      	ldr	r3, [pc, #92]	; (8006b78 <USBD_LL_Init+0x94>)
 8006b1a:	2200      	movs	r2, #0
 8006b1c:	611a      	str	r2, [r3, #16]
  hpcd_USB_OTG_FS.Init.phy_itface = PCD_PHY_EMBEDDED;
 8006b1e:	4b16      	ldr	r3, [pc, #88]	; (8006b78 <USBD_LL_Init+0x94>)
 8006b20:	2202      	movs	r2, #2
 8006b22:	619a      	str	r2, [r3, #24]
  hpcd_USB_OTG_FS.Init.Sof_enable = ENABLE;
 8006b24:	4b14      	ldr	r3, [pc, #80]	; (8006b78 <USBD_LL_Init+0x94>)
 8006b26:	2201      	movs	r2, #1
 8006b28:	61da      	str	r2, [r3, #28]
  hpcd_USB_OTG_FS.Init.low_power_enable = DISABLE;
 8006b2a:	4b13      	ldr	r3, [pc, #76]	; (8006b78 <USBD_LL_Init+0x94>)
 8006b2c:	2200      	movs	r2, #0
 8006b2e:	621a      	str	r2, [r3, #32]
  hpcd_USB_OTG_FS.Init.lpm_enable = DISABLE;
 8006b30:	4b11      	ldr	r3, [pc, #68]	; (8006b78 <USBD_LL_Init+0x94>)
 8006b32:	2200      	movs	r2, #0
 8006b34:	625a      	str	r2, [r3, #36]	; 0x24
  hpcd_USB_OTG_FS.Init.vbus_sensing_enable = ENABLE;
 8006b36:	4b10      	ldr	r3, [pc, #64]	; (8006b78 <USBD_LL_Init+0x94>)
 8006b38:	2201      	movs	r2, #1
 8006b3a:	62da      	str	r2, [r3, #44]	; 0x2c
  hpcd_USB_OTG_FS.Init.use_dedicated_ep1 = DISABLE;
 8006b3c:	4b0e      	ldr	r3, [pc, #56]	; (8006b78 <USBD_LL_Init+0x94>)
 8006b3e:	2200      	movs	r2, #0
 8006b40:	631a      	str	r2, [r3, #48]	; 0x30
  if (HAL_PCD_Init(&hpcd_USB_OTG_FS) != HAL_OK)
 8006b42:	480d      	ldr	r0, [pc, #52]	; (8006b78 <USBD_LL_Init+0x94>)
 8006b44:	f7fa fb4c 	bl	80011e0 <HAL_PCD_Init>
 8006b48:	4603      	mov	r3, r0
 8006b4a:	2b00      	cmp	r3, #0
 8006b4c:	d001      	beq.n	8006b52 <USBD_LL_Init+0x6e>
  {
    Error_Handler( );
 8006b4e:	f7f9 fea5 	bl	800089c <Error_Handler>
  HAL_PCD_RegisterDataOutStageCallback(&hpcd_USB_OTG_FS, PCD_DataOutStageCallback);
  HAL_PCD_RegisterDataInStageCallback(&hpcd_USB_OTG_FS, PCD_DataInStageCallback);
  HAL_PCD_RegisterIsoOutIncpltCallback(&hpcd_USB_OTG_FS, PCD_ISOOUTIncompleteCallback);
  HAL_PCD_RegisterIsoInIncpltCallback(&hpcd_USB_OTG_FS, PCD_ISOINIncompleteCallback);
#endif /* USE_HAL_PCD_REGISTER_CALLBACKS */
  HAL_PCDEx_SetRxFiFo(&hpcd_USB_OTG_FS, 0x80);
 8006b52:	2180      	movs	r1, #128	; 0x80
 8006b54:	4808      	ldr	r0, [pc, #32]	; (8006b78 <USBD_LL_Init+0x94>)
 8006b56:	f7fb fcaa 	bl	80024ae <HAL_PCDEx_SetRxFiFo>
  HAL_PCDEx_SetTxFiFo(&hpcd_USB_OTG_FS, 0, 0x40);
 8006b5a:	2240      	movs	r2, #64	; 0x40
 8006b5c:	2100      	movs	r1, #0
 8006b5e:	4806      	ldr	r0, [pc, #24]	; (8006b78 <USBD_LL_Init+0x94>)
 8006b60:	f7fb fc5e 	bl	8002420 <HAL_PCDEx_SetTxFiFo>
  HAL_PCDEx_SetTxFiFo(&hpcd_USB_OTG_FS, 1, 0x80);
 8006b64:	2280      	movs	r2, #128	; 0x80
 8006b66:	2101      	movs	r1, #1
 8006b68:	4803      	ldr	r0, [pc, #12]	; (8006b78 <USBD_LL_Init+0x94>)
 8006b6a:	f7fb fc59 	bl	8002420 <HAL_PCDEx_SetTxFiFo>
  }
  return USBD_OK;
 8006b6e:	2300      	movs	r3, #0
}
 8006b70:	4618      	mov	r0, r3
 8006b72:	3708      	adds	r7, #8
 8006b74:	46bd      	mov	sp, r7
 8006b76:	bd80      	pop	{r7, pc}
 8006b78:	20000784 	.word	0x20000784

08006b7c <USBD_LL_Start>:
  * @brief  Starts the low level portion of the device driver.
  * @param  pdev: Device handle
  * @retval USBD status
  */
USBD_StatusTypeDef USBD_LL_Start(USBD_HandleTypeDef *pdev)
{
 8006b7c:	b580      	push	{r7, lr}
 8006b7e:	b084      	sub	sp, #16
 8006b80:	af00      	add	r7, sp, #0
 8006b82:	6078      	str	r0, [r7, #4]
  HAL_StatusTypeDef hal_status = HAL_OK;
 8006b84:	2300      	movs	r3, #0
 8006b86:	73fb      	strb	r3, [r7, #15]
  USBD_StatusTypeDef usb_status = USBD_OK;
 8006b88:	2300      	movs	r3, #0
 8006b8a:	73bb      	strb	r3, [r7, #14]

  hal_status = HAL_PCD_Start(pdev->pData);
 8006b8c:	687b      	ldr	r3, [r7, #4]
 8006b8e:	f8d3 32c4 	ldr.w	r3, [r3, #708]	; 0x2c4
 8006b92:	4618      	mov	r0, r3
 8006b94:	f7fa fc41 	bl	800141a <HAL_PCD_Start>
 8006b98:	4603      	mov	r3, r0
 8006b9a:	73fb      	strb	r3, [r7, #15]

  usb_status =  USBD_Get_USB_Status(hal_status);
 8006b9c:	7bfb      	ldrb	r3, [r7, #15]
 8006b9e:	4618      	mov	r0, r3
 8006ba0:	f000 f92a 	bl	8006df8 <USBD_Get_USB_Status>
 8006ba4:	4603      	mov	r3, r0
 8006ba6:	73bb      	strb	r3, [r7, #14]

  return usb_status;
 8006ba8:	7bbb      	ldrb	r3, [r7, #14]
}
 8006baa:	4618      	mov	r0, r3
 8006bac:	3710      	adds	r7, #16
 8006bae:	46bd      	mov	sp, r7
 8006bb0:	bd80      	pop	{r7, pc}

08006bb2 <USBD_LL_OpenEP>:
  * @param  ep_type: Endpoint type
  * @param  ep_mps: Endpoint max packet size
  * @retval USBD status
  */
USBD_StatusTypeDef USBD_LL_OpenEP(USBD_HandleTypeDef *pdev, uint8_t ep_addr, uint8_t ep_type, uint16_t ep_mps)
{
 8006bb2:	b580      	push	{r7, lr}
 8006bb4:	b084      	sub	sp, #16
 8006bb6:	af00      	add	r7, sp, #0
 8006bb8:	6078      	str	r0, [r7, #4]
 8006bba:	4608      	mov	r0, r1
 8006bbc:	4611      	mov	r1, r2
 8006bbe:	461a      	mov	r2, r3
 8006bc0:	4603      	mov	r3, r0
 8006bc2:	70fb      	strb	r3, [r7, #3]
 8006bc4:	460b      	mov	r3, r1
 8006bc6:	70bb      	strb	r3, [r7, #2]
 8006bc8:	4613      	mov	r3, r2
 8006bca:	803b      	strh	r3, [r7, #0]
  HAL_StatusTypeDef hal_status = HAL_OK;
 8006bcc:	2300      	movs	r3, #0
 8006bce:	73fb      	strb	r3, [r7, #15]
  USBD_StatusTypeDef usb_status = USBD_OK;
 8006bd0:	2300      	movs	r3, #0
 8006bd2:	73bb      	strb	r3, [r7, #14]

  hal_status = HAL_PCD_EP_Open(pdev->pData, ep_addr, ep_mps, ep_type);
 8006bd4:	687b      	ldr	r3, [r7, #4]
 8006bd6:	f8d3 02c4 	ldr.w	r0, [r3, #708]	; 0x2c4
 8006bda:	78bb      	ldrb	r3, [r7, #2]
 8006bdc:	883a      	ldrh	r2, [r7, #0]
 8006bde:	78f9      	ldrb	r1, [r7, #3]
 8006be0:	f7fb f825 	bl	8001c2e <HAL_PCD_EP_Open>
 8006be4:	4603      	mov	r3, r0
 8006be6:	73fb      	strb	r3, [r7, #15]

  usb_status =  USBD_Get_USB_Status(hal_status);
 8006be8:	7bfb      	ldrb	r3, [r7, #15]
 8006bea:	4618      	mov	r0, r3
 8006bec:	f000 f904 	bl	8006df8 <USBD_Get_USB_Status>
 8006bf0:	4603      	mov	r3, r0
 8006bf2:	73bb      	strb	r3, [r7, #14]

  return usb_status;
 8006bf4:	7bbb      	ldrb	r3, [r7, #14]
}
 8006bf6:	4618      	mov	r0, r3
 8006bf8:	3710      	adds	r7, #16
 8006bfa:	46bd      	mov	sp, r7
 8006bfc:	bd80      	pop	{r7, pc}

08006bfe <USBD_LL_CloseEP>:
  * @param  pdev: Device handle
  * @param  ep_addr: Endpoint number
  * @retval USBD status
  */
USBD_StatusTypeDef USBD_LL_CloseEP(USBD_HandleTypeDef *pdev, uint8_t ep_addr)
{
 8006bfe:	b580      	push	{r7, lr}
 8006c00:	b084      	sub	sp, #16
 8006c02:	af00      	add	r7, sp, #0
 8006c04:	6078      	str	r0, [r7, #4]
 8006c06:	460b      	mov	r3, r1
 8006c08:	70fb      	strb	r3, [r7, #3]
  HAL_StatusTypeDef hal_status = HAL_OK;
 8006c0a:	2300      	movs	r3, #0
 8006c0c:	73fb      	strb	r3, [r7, #15]
  USBD_StatusTypeDef usb_status = USBD_OK;
 8006c0e:	2300      	movs	r3, #0
 8006c10:	73bb      	strb	r3, [r7, #14]

  hal_status = HAL_PCD_EP_Close(pdev->pData, ep_addr);
 8006c12:	687b      	ldr	r3, [r7, #4]
 8006c14:	f8d3 32c4 	ldr.w	r3, [r3, #708]	; 0x2c4
 8006c18:	78fa      	ldrb	r2, [r7, #3]
 8006c1a:	4611      	mov	r1, r2
 8006c1c:	4618      	mov	r0, r3
 8006c1e:	f7fb f86e 	bl	8001cfe <HAL_PCD_EP_Close>
 8006c22:	4603      	mov	r3, r0
 8006c24:	73fb      	strb	r3, [r7, #15]

  usb_status =  USBD_Get_USB_Status(hal_status);
 8006c26:	7bfb      	ldrb	r3, [r7, #15]
 8006c28:	4618      	mov	r0, r3
 8006c2a:	f000 f8e5 	bl	8006df8 <USBD_Get_USB_Status>
 8006c2e:	4603      	mov	r3, r0
 8006c30:	73bb      	strb	r3, [r7, #14]

  return usb_status;
 8006c32:	7bbb      	ldrb	r3, [r7, #14]
}
 8006c34:	4618      	mov	r0, r3
 8006c36:	3710      	adds	r7, #16
 8006c38:	46bd      	mov	sp, r7
 8006c3a:	bd80      	pop	{r7, pc}

08006c3c <USBD_LL_StallEP>:
  * @param  pdev: Device handle
  * @param  ep_addr: Endpoint number
  * @retval USBD status
  */
USBD_StatusTypeDef USBD_LL_StallEP(USBD_HandleTypeDef *pdev, uint8_t ep_addr)
{
 8006c3c:	b580      	push	{r7, lr}
 8006c3e:	b084      	sub	sp, #16
 8006c40:	af00      	add	r7, sp, #0
 8006c42:	6078      	str	r0, [r7, #4]
 8006c44:	460b      	mov	r3, r1
 8006c46:	70fb      	strb	r3, [r7, #3]
  HAL_StatusTypeDef hal_status = HAL_OK;
 8006c48:	2300      	movs	r3, #0
 8006c4a:	73fb      	strb	r3, [r7, #15]
  USBD_StatusTypeDef usb_status = USBD_OK;
 8006c4c:	2300      	movs	r3, #0
 8006c4e:	73bb      	strb	r3, [r7, #14]

  hal_status = HAL_PCD_EP_SetStall(pdev->pData, ep_addr);
 8006c50:	687b      	ldr	r3, [r7, #4]
 8006c52:	f8d3 32c4 	ldr.w	r3, [r3, #708]	; 0x2c4
 8006c56:	78fa      	ldrb	r2, [r7, #3]
 8006c58:	4611      	mov	r1, r2
 8006c5a:	4618      	mov	r0, r3
 8006c5c:	f7fb f946 	bl	8001eec <HAL_PCD_EP_SetStall>
 8006c60:	4603      	mov	r3, r0
 8006c62:	73fb      	strb	r3, [r7, #15]

  usb_status =  USBD_Get_USB_Status(hal_status);
 8006c64:	7bfb      	ldrb	r3, [r7, #15]
 8006c66:	4618      	mov	r0, r3
 8006c68:	f000 f8c6 	bl	8006df8 <USBD_Get_USB_Status>
 8006c6c:	4603      	mov	r3, r0
 8006c6e:	73bb      	strb	r3, [r7, #14]

  return usb_status;
 8006c70:	7bbb      	ldrb	r3, [r7, #14]
}
 8006c72:	4618      	mov	r0, r3
 8006c74:	3710      	adds	r7, #16
 8006c76:	46bd      	mov	sp, r7
 8006c78:	bd80      	pop	{r7, pc}

08006c7a <USBD_LL_ClearStallEP>:
  * @param  pdev: Device handle
  * @param  ep_addr: Endpoint number
  * @retval USBD status
  */
USBD_StatusTypeDef USBD_LL_ClearStallEP(USBD_HandleTypeDef *pdev, uint8_t ep_addr)
{
 8006c7a:	b580      	push	{r7, lr}
 8006c7c:	b084      	sub	sp, #16
 8006c7e:	af00      	add	r7, sp, #0
 8006c80:	6078      	str	r0, [r7, #4]
 8006c82:	460b      	mov	r3, r1
 8006c84:	70fb      	strb	r3, [r7, #3]
  HAL_StatusTypeDef hal_status = HAL_OK;
 8006c86:	2300      	movs	r3, #0
 8006c88:	73fb      	strb	r3, [r7, #15]
  USBD_StatusTypeDef usb_status = USBD_OK;
 8006c8a:	2300      	movs	r3, #0
 8006c8c:	73bb      	strb	r3, [r7, #14]

  hal_status = HAL_PCD_EP_ClrStall(pdev->pData, ep_addr);
 8006c8e:	687b      	ldr	r3, [r7, #4]
 8006c90:	f8d3 32c4 	ldr.w	r3, [r3, #708]	; 0x2c4
 8006c94:	78fa      	ldrb	r2, [r7, #3]
 8006c96:	4611      	mov	r1, r2
 8006c98:	4618      	mov	r0, r3
 8006c9a:	f7fb f98b 	bl	8001fb4 <HAL_PCD_EP_ClrStall>
 8006c9e:	4603      	mov	r3, r0
 8006ca0:	73fb      	strb	r3, [r7, #15]

  usb_status =  USBD_Get_USB_Status(hal_status);
 8006ca2:	7bfb      	ldrb	r3, [r7, #15]
 8006ca4:	4618      	mov	r0, r3
 8006ca6:	f000 f8a7 	bl	8006df8 <USBD_Get_USB_Status>
 8006caa:	4603      	mov	r3, r0
 8006cac:	73bb      	strb	r3, [r7, #14]

  return usb_status;
 8006cae:	7bbb      	ldrb	r3, [r7, #14]
}
 8006cb0:	4618      	mov	r0, r3
 8006cb2:	3710      	adds	r7, #16
 8006cb4:	46bd      	mov	sp, r7
 8006cb6:	bd80      	pop	{r7, pc}

08006cb8 <USBD_LL_IsStallEP>:
  * @param  pdev: Device handle
  * @param  ep_addr: Endpoint number
  * @retval Stall (1: Yes, 0: No)
  */
uint8_t USBD_LL_IsStallEP(USBD_HandleTypeDef *pdev, uint8_t ep_addr)
{
 8006cb8:	b480      	push	{r7}
 8006cba:	b085      	sub	sp, #20
 8006cbc:	af00      	add	r7, sp, #0
 8006cbe:	6078      	str	r0, [r7, #4]
 8006cc0:	460b      	mov	r3, r1
 8006cc2:	70fb      	strb	r3, [r7, #3]
  PCD_HandleTypeDef *hpcd = (PCD_HandleTypeDef*) pdev->pData;
 8006cc4:	687b      	ldr	r3, [r7, #4]
 8006cc6:	f8d3 32c4 	ldr.w	r3, [r3, #708]	; 0x2c4
 8006cca:	60fb      	str	r3, [r7, #12]

  if((ep_addr & 0x80) == 0x80)
 8006ccc:	f997 3003 	ldrsb.w	r3, [r7, #3]
 8006cd0:	2b00      	cmp	r3, #0
 8006cd2:	da0b      	bge.n	8006cec <USBD_LL_IsStallEP+0x34>
  {
    return hpcd->IN_ep[ep_addr & 0x7F].is_stall;
 8006cd4:	78fb      	ldrb	r3, [r7, #3]
 8006cd6:	f003 027f 	and.w	r2, r3, #127	; 0x7f
 8006cda:	68f9      	ldr	r1, [r7, #12]
 8006cdc:	4613      	mov	r3, r2
 8006cde:	00db      	lsls	r3, r3, #3
 8006ce0:	1a9b      	subs	r3, r3, r2
 8006ce2:	009b      	lsls	r3, r3, #2
 8006ce4:	440b      	add	r3, r1
 8006ce6:	333e      	adds	r3, #62	; 0x3e
 8006ce8:	781b      	ldrb	r3, [r3, #0]
 8006cea:	e00b      	b.n	8006d04 <USBD_LL_IsStallEP+0x4c>
  }
  else
  {
    return hpcd->OUT_ep[ep_addr & 0x7F].is_stall;
 8006cec:	78fb      	ldrb	r3, [r7, #3]
 8006cee:	f003 027f 	and.w	r2, r3, #127	; 0x7f
 8006cf2:	68f9      	ldr	r1, [r7, #12]
 8006cf4:	4613      	mov	r3, r2
 8006cf6:	00db      	lsls	r3, r3, #3
 8006cf8:	1a9b      	subs	r3, r3, r2
 8006cfa:	009b      	lsls	r3, r3, #2
 8006cfc:	440b      	add	r3, r1
 8006cfe:	f503 73ff 	add.w	r3, r3, #510	; 0x1fe
 8006d02:	781b      	ldrb	r3, [r3, #0]
  }
}
 8006d04:	4618      	mov	r0, r3
 8006d06:	3714      	adds	r7, #20
 8006d08:	46bd      	mov	sp, r7
 8006d0a:	f85d 7b04 	ldr.w	r7, [sp], #4
 8006d0e:	4770      	bx	lr

08006d10 <USBD_LL_SetUSBAddress>:
  * @param  pdev: Device handle
  * @param  dev_addr: Device address
  * @retval USBD status
  */
USBD_StatusTypeDef USBD_LL_SetUSBAddress(USBD_HandleTypeDef *pdev, uint8_t dev_addr)
{
 8006d10:	b580      	push	{r7, lr}
 8006d12:	b084      	sub	sp, #16
 8006d14:	af00      	add	r7, sp, #0
 8006d16:	6078      	str	r0, [r7, #4]
 8006d18:	460b      	mov	r3, r1
 8006d1a:	70fb      	strb	r3, [r7, #3]
  HAL_StatusTypeDef hal_status = HAL_OK;
 8006d1c:	2300      	movs	r3, #0
 8006d1e:	73fb      	strb	r3, [r7, #15]
  USBD_StatusTypeDef usb_status = USBD_OK;
 8006d20:	2300      	movs	r3, #0
 8006d22:	73bb      	strb	r3, [r7, #14]

  hal_status = HAL_PCD_SetAddress(pdev->pData, dev_addr);
 8006d24:	687b      	ldr	r3, [r7, #4]
 8006d26:	f8d3 32c4 	ldr.w	r3, [r3, #708]	; 0x2c4
 8006d2a:	78fa      	ldrb	r2, [r7, #3]
 8006d2c:	4611      	mov	r1, r2
 8006d2e:	4618      	mov	r0, r3
 8006d30:	f7fa ff58 	bl	8001be4 <HAL_PCD_SetAddress>
 8006d34:	4603      	mov	r3, r0
 8006d36:	73fb      	strb	r3, [r7, #15]

  usb_status =  USBD_Get_USB_Status(hal_status);
 8006d38:	7bfb      	ldrb	r3, [r7, #15]
 8006d3a:	4618      	mov	r0, r3
 8006d3c:	f000 f85c 	bl	8006df8 <USBD_Get_USB_Status>
 8006d40:	4603      	mov	r3, r0
 8006d42:	73bb      	strb	r3, [r7, #14]

  return usb_status;
 8006d44:	7bbb      	ldrb	r3, [r7, #14]
}
 8006d46:	4618      	mov	r0, r3
 8006d48:	3710      	adds	r7, #16
 8006d4a:	46bd      	mov	sp, r7
 8006d4c:	bd80      	pop	{r7, pc}

08006d4e <USBD_LL_Transmit>:
  * @param  pbuf: Pointer to data to be sent
  * @param  size: Data size
  * @retval USBD status
  */
USBD_StatusTypeDef USBD_LL_Transmit(USBD_HandleTypeDef *pdev, uint8_t ep_addr, uint8_t *pbuf, uint32_t size)
{
 8006d4e:	b580      	push	{r7, lr}
 8006d50:	b086      	sub	sp, #24
 8006d52:	af00      	add	r7, sp, #0
 8006d54:	60f8      	str	r0, [r7, #12]
 8006d56:	607a      	str	r2, [r7, #4]
 8006d58:	603b      	str	r3, [r7, #0]
 8006d5a:	460b      	mov	r3, r1
 8006d5c:	72fb      	strb	r3, [r7, #11]
  HAL_StatusTypeDef hal_status = HAL_OK;
 8006d5e:	2300      	movs	r3, #0
 8006d60:	75fb      	strb	r3, [r7, #23]
  USBD_StatusTypeDef usb_status = USBD_OK;
 8006d62:	2300      	movs	r3, #0
 8006d64:	75bb      	strb	r3, [r7, #22]

  hal_status = HAL_PCD_EP_Transmit(pdev->pData, ep_addr, pbuf, size);
 8006d66:	68fb      	ldr	r3, [r7, #12]
 8006d68:	f8d3 02c4 	ldr.w	r0, [r3, #708]	; 0x2c4
 8006d6c:	7af9      	ldrb	r1, [r7, #11]
 8006d6e:	683b      	ldr	r3, [r7, #0]
 8006d70:	687a      	ldr	r2, [r7, #4]
 8006d72:	f7fb f871 	bl	8001e58 <HAL_PCD_EP_Transmit>
 8006d76:	4603      	mov	r3, r0
 8006d78:	75fb      	strb	r3, [r7, #23]

  usb_status =  USBD_Get_USB_Status(hal_status);
 8006d7a:	7dfb      	ldrb	r3, [r7, #23]
 8006d7c:	4618      	mov	r0, r3
 8006d7e:	f000 f83b 	bl	8006df8 <USBD_Get_USB_Status>
 8006d82:	4603      	mov	r3, r0
 8006d84:	75bb      	strb	r3, [r7, #22]

  return usb_status;
 8006d86:	7dbb      	ldrb	r3, [r7, #22]
}
 8006d88:	4618      	mov	r0, r3
 8006d8a:	3718      	adds	r7, #24
 8006d8c:	46bd      	mov	sp, r7
 8006d8e:	bd80      	pop	{r7, pc}

08006d90 <USBD_LL_PrepareReceive>:
  * @param  pbuf: Pointer to data to be received
  * @param  size: Data size
  * @retval USBD status
  */
USBD_StatusTypeDef USBD_LL_PrepareReceive(USBD_HandleTypeDef *pdev, uint8_t ep_addr, uint8_t *pbuf, uint32_t size)
{
 8006d90:	b580      	push	{r7, lr}
 8006d92:	b086      	sub	sp, #24
 8006d94:	af00      	add	r7, sp, #0
 8006d96:	60f8      	str	r0, [r7, #12]
 8006d98:	607a      	str	r2, [r7, #4]
 8006d9a:	603b      	str	r3, [r7, #0]
 8006d9c:	460b      	mov	r3, r1
 8006d9e:	72fb      	strb	r3, [r7, #11]
  HAL_StatusTypeDef hal_status = HAL_OK;
 8006da0:	2300      	movs	r3, #0
 8006da2:	75fb      	strb	r3, [r7, #23]
  USBD_StatusTypeDef usb_status = USBD_OK;
 8006da4:	2300      	movs	r3, #0
 8006da6:	75bb      	strb	r3, [r7, #22]

  hal_status = HAL_PCD_EP_Receive(pdev->pData, ep_addr, pbuf, size);
 8006da8:	68fb      	ldr	r3, [r7, #12]
 8006daa:	f8d3 02c4 	ldr.w	r0, [r3, #708]	; 0x2c4
 8006dae:	7af9      	ldrb	r1, [r7, #11]
 8006db0:	683b      	ldr	r3, [r7, #0]
 8006db2:	687a      	ldr	r2, [r7, #4]
 8006db4:	f7fa ffed 	bl	8001d92 <HAL_PCD_EP_Receive>
 8006db8:	4603      	mov	r3, r0
 8006dba:	75fb      	strb	r3, [r7, #23]

  usb_status =  USBD_Get_USB_Status(hal_status);
 8006dbc:	7dfb      	ldrb	r3, [r7, #23]
 8006dbe:	4618      	mov	r0, r3
 8006dc0:	f000 f81a 	bl	8006df8 <USBD_Get_USB_Status>
 8006dc4:	4603      	mov	r3, r0
 8006dc6:	75bb      	strb	r3, [r7, #22]

  return usb_status;
 8006dc8:	7dbb      	ldrb	r3, [r7, #22]
}
 8006dca:	4618      	mov	r0, r3
 8006dcc:	3718      	adds	r7, #24
 8006dce:	46bd      	mov	sp, r7
 8006dd0:	bd80      	pop	{r7, pc}

08006dd2 <USBD_LL_GetRxDataSize>:
  * @param  pdev: Device handle
  * @param  ep_addr: Endpoint number
  * @retval Recived Data Size
  */
uint32_t USBD_LL_GetRxDataSize(USBD_HandleTypeDef *pdev, uint8_t ep_addr)
{
 8006dd2:	b580      	push	{r7, lr}
 8006dd4:	b082      	sub	sp, #8
 8006dd6:	af00      	add	r7, sp, #0
 8006dd8:	6078      	str	r0, [r7, #4]
 8006dda:	460b      	mov	r3, r1
 8006ddc:	70fb      	strb	r3, [r7, #3]
  return HAL_PCD_EP_GetRxCount((PCD_HandleTypeDef*) pdev->pData, ep_addr);
 8006dde:	687b      	ldr	r3, [r7, #4]
 8006de0:	f8d3 32c4 	ldr.w	r3, [r3, #708]	; 0x2c4
 8006de4:	78fa      	ldrb	r2, [r7, #3]
 8006de6:	4611      	mov	r1, r2
 8006de8:	4618      	mov	r0, r3
 8006dea:	f7fb f81d 	bl	8001e28 <HAL_PCD_EP_GetRxCount>
 8006dee:	4603      	mov	r3, r0
}
 8006df0:	4618      	mov	r0, r3
 8006df2:	3708      	adds	r7, #8
 8006df4:	46bd      	mov	sp, r7
 8006df6:	bd80      	pop	{r7, pc}

08006df8 <USBD_Get_USB_Status>:
  * @brief  Retuns the USB status depending on the HAL status:
  * @param  hal_status: HAL status
  * @retval USB status
  */
USBD_StatusTypeDef USBD_Get_USB_Status(HAL_StatusTypeDef hal_status)
{
 8006df8:	b480      	push	{r7}
 8006dfa:	b085      	sub	sp, #20
 8006dfc:	af00      	add	r7, sp, #0
 8006dfe:	4603      	mov	r3, r0
 8006e00:	71fb      	strb	r3, [r7, #7]
  USBD_StatusTypeDef usb_status = USBD_OK;
 8006e02:	2300      	movs	r3, #0
 8006e04:	73fb      	strb	r3, [r7, #15]

  switch (hal_status)
 8006e06:	79fb      	ldrb	r3, [r7, #7]
 8006e08:	2b03      	cmp	r3, #3
 8006e0a:	d817      	bhi.n	8006e3c <USBD_Get_USB_Status+0x44>
 8006e0c:	a201      	add	r2, pc, #4	; (adr r2, 8006e14 <USBD_Get_USB_Status+0x1c>)
 8006e0e:	f852 f023 	ldr.w	pc, [r2, r3, lsl #2]
 8006e12:	bf00      	nop
 8006e14:	08006e25 	.word	0x08006e25
 8006e18:	08006e2b 	.word	0x08006e2b
 8006e1c:	08006e31 	.word	0x08006e31
 8006e20:	08006e37 	.word	0x08006e37
  {
    case HAL_OK :
      usb_status = USBD_OK;
 8006e24:	2300      	movs	r3, #0
 8006e26:	73fb      	strb	r3, [r7, #15]
    break;
 8006e28:	e00b      	b.n	8006e42 <USBD_Get_USB_Status+0x4a>
    case HAL_ERROR :
      usb_status = USBD_FAIL;
 8006e2a:	2303      	movs	r3, #3
 8006e2c:	73fb      	strb	r3, [r7, #15]
    break;
 8006e2e:	e008      	b.n	8006e42 <USBD_Get_USB_Status+0x4a>
    case HAL_BUSY :
      usb_status = USBD_BUSY;
 8006e30:	2301      	movs	r3, #1
 8006e32:	73fb      	strb	r3, [r7, #15]
    break;
 8006e34:	e005      	b.n	8006e42 <USBD_Get_USB_Status+0x4a>
    case HAL_TIMEOUT :
      usb_status = USBD_FAIL;
 8006e36:	2303      	movs	r3, #3
 8006e38:	73fb      	strb	r3, [r7, #15]
    break;
 8006e3a:	e002      	b.n	8006e42 <USBD_Get_USB_Status+0x4a>
    default :
      usb_status = USBD_FAIL;
 8006e3c:	2303      	movs	r3, #3
 8006e3e:	73fb      	strb	r3, [r7, #15]
    break;
 8006e40:	bf00      	nop
  }
  return usb_status;
 8006e42:	7bfb      	ldrb	r3, [r7, #15]
}
 8006e44:	4618      	mov	r0, r3
 8006e46:	3714      	adds	r7, #20
 8006e48:	46bd      	mov	sp, r7
 8006e4a:	f85d 7b04 	ldr.w	r7, [sp], #4
 8006e4e:	4770      	bx	lr

08006e50 <__errno>:
 8006e50:	4b01      	ldr	r3, [pc, #4]	; (8006e58 <__errno+0x8>)
 8006e52:	6818      	ldr	r0, [r3, #0]
 8006e54:	4770      	bx	lr
 8006e56:	bf00      	nop
 8006e58:	20000188 	.word	0x20000188

08006e5c <__libc_init_array>:
 8006e5c:	b570      	push	{r4, r5, r6, lr}
 8006e5e:	4e0d      	ldr	r6, [pc, #52]	; (8006e94 <__libc_init_array+0x38>)
 8006e60:	4c0d      	ldr	r4, [pc, #52]	; (8006e98 <__libc_init_array+0x3c>)
 8006e62:	1ba4      	subs	r4, r4, r6
 8006e64:	10a4      	asrs	r4, r4, #2
 8006e66:	2500      	movs	r5, #0
 8006e68:	42a5      	cmp	r5, r4
 8006e6a:	d109      	bne.n	8006e80 <__libc_init_array+0x24>
 8006e6c:	4e0b      	ldr	r6, [pc, #44]	; (8006e9c <__libc_init_array+0x40>)
 8006e6e:	4c0c      	ldr	r4, [pc, #48]	; (8006ea0 <__libc_init_array+0x44>)
 8006e70:	f000 f8ea 	bl	8007048 <_init>
 8006e74:	1ba4      	subs	r4, r4, r6
 8006e76:	10a4      	asrs	r4, r4, #2
 8006e78:	2500      	movs	r5, #0
 8006e7a:	42a5      	cmp	r5, r4
 8006e7c:	d105      	bne.n	8006e8a <__libc_init_array+0x2e>
 8006e7e:	bd70      	pop	{r4, r5, r6, pc}
 8006e80:	f856 3025 	ldr.w	r3, [r6, r5, lsl #2]
 8006e84:	4798      	blx	r3
 8006e86:	3501      	adds	r5, #1
 8006e88:	e7ee      	b.n	8006e68 <__libc_init_array+0xc>
 8006e8a:	f856 3025 	ldr.w	r3, [r6, r5, lsl #2]
 8006e8e:	4798      	blx	r3
 8006e90:	3501      	adds	r5, #1
 8006e92:	e7f2      	b.n	8006e7a <__libc_init_array+0x1e>
 8006e94:	080070d8 	.word	0x080070d8
 8006e98:	080070d8 	.word	0x080070d8
 8006e9c:	080070d8 	.word	0x080070d8
 8006ea0:	080070dc 	.word	0x080070dc

08006ea4 <malloc>:
 8006ea4:	4b02      	ldr	r3, [pc, #8]	; (8006eb0 <malloc+0xc>)
 8006ea6:	4601      	mov	r1, r0
 8006ea8:	6818      	ldr	r0, [r3, #0]
 8006eaa:	f000 b861 	b.w	8006f70 <_malloc_r>
 8006eae:	bf00      	nop
 8006eb0:	20000188 	.word	0x20000188

08006eb4 <free>:
 8006eb4:	4b02      	ldr	r3, [pc, #8]	; (8006ec0 <free+0xc>)
 8006eb6:	4601      	mov	r1, r0
 8006eb8:	6818      	ldr	r0, [r3, #0]
 8006eba:	f000 b80b 	b.w	8006ed4 <_free_r>
 8006ebe:	bf00      	nop
 8006ec0:	20000188 	.word	0x20000188

08006ec4 <memset>:
 8006ec4:	4402      	add	r2, r0
 8006ec6:	4603      	mov	r3, r0
 8006ec8:	4293      	cmp	r3, r2
 8006eca:	d100      	bne.n	8006ece <memset+0xa>
 8006ecc:	4770      	bx	lr
 8006ece:	f803 1b01 	strb.w	r1, [r3], #1
 8006ed2:	e7f9      	b.n	8006ec8 <memset+0x4>

08006ed4 <_free_r>:
 8006ed4:	b538      	push	{r3, r4, r5, lr}
 8006ed6:	4605      	mov	r5, r0
 8006ed8:	2900      	cmp	r1, #0
 8006eda:	d045      	beq.n	8006f68 <_free_r+0x94>
 8006edc:	f851 3c04 	ldr.w	r3, [r1, #-4]
 8006ee0:	1f0c      	subs	r4, r1, #4
 8006ee2:	2b00      	cmp	r3, #0
 8006ee4:	bfb8      	it	lt
 8006ee6:	18e4      	addlt	r4, r4, r3
 8006ee8:	f000 f8ac 	bl	8007044 <__malloc_lock>
 8006eec:	4a1f      	ldr	r2, [pc, #124]	; (8006f6c <_free_r+0x98>)
 8006eee:	6813      	ldr	r3, [r2, #0]
 8006ef0:	4610      	mov	r0, r2
 8006ef2:	b933      	cbnz	r3, 8006f02 <_free_r+0x2e>
 8006ef4:	6063      	str	r3, [r4, #4]
 8006ef6:	6014      	str	r4, [r2, #0]
 8006ef8:	4628      	mov	r0, r5
 8006efa:	e8bd 4038 	ldmia.w	sp!, {r3, r4, r5, lr}
 8006efe:	f000 b8a2 	b.w	8007046 <__malloc_unlock>
 8006f02:	42a3      	cmp	r3, r4
 8006f04:	d90c      	bls.n	8006f20 <_free_r+0x4c>
 8006f06:	6821      	ldr	r1, [r4, #0]
 8006f08:	1862      	adds	r2, r4, r1
 8006f0a:	4293      	cmp	r3, r2
 8006f0c:	bf04      	itt	eq
 8006f0e:	681a      	ldreq	r2, [r3, #0]
 8006f10:	685b      	ldreq	r3, [r3, #4]
 8006f12:	6063      	str	r3, [r4, #4]
 8006f14:	bf04      	itt	eq
 8006f16:	1852      	addeq	r2, r2, r1
 8006f18:	6022      	streq	r2, [r4, #0]
 8006f1a:	6004      	str	r4, [r0, #0]
 8006f1c:	e7ec      	b.n	8006ef8 <_free_r+0x24>
 8006f1e:	4613      	mov	r3, r2
 8006f20:	685a      	ldr	r2, [r3, #4]
 8006f22:	b10a      	cbz	r2, 8006f28 <_free_r+0x54>
 8006f24:	42a2      	cmp	r2, r4
 8006f26:	d9fa      	bls.n	8006f1e <_free_r+0x4a>
 8006f28:	6819      	ldr	r1, [r3, #0]
 8006f2a:	1858      	adds	r0, r3, r1
 8006f2c:	42a0      	cmp	r0, r4
 8006f2e:	d10b      	bne.n	8006f48 <_free_r+0x74>
 8006f30:	6820      	ldr	r0, [r4, #0]
 8006f32:	4401      	add	r1, r0
 8006f34:	1858      	adds	r0, r3, r1
 8006f36:	4282      	cmp	r2, r0
 8006f38:	6019      	str	r1, [r3, #0]
 8006f3a:	d1dd      	bne.n	8006ef8 <_free_r+0x24>
 8006f3c:	6810      	ldr	r0, [r2, #0]
 8006f3e:	6852      	ldr	r2, [r2, #4]
 8006f40:	605a      	str	r2, [r3, #4]
 8006f42:	4401      	add	r1, r0
 8006f44:	6019      	str	r1, [r3, #0]
 8006f46:	e7d7      	b.n	8006ef8 <_free_r+0x24>
 8006f48:	d902      	bls.n	8006f50 <_free_r+0x7c>
 8006f4a:	230c      	movs	r3, #12
 8006f4c:	602b      	str	r3, [r5, #0]
 8006f4e:	e7d3      	b.n	8006ef8 <_free_r+0x24>
 8006f50:	6820      	ldr	r0, [r4, #0]
 8006f52:	1821      	adds	r1, r4, r0
 8006f54:	428a      	cmp	r2, r1
 8006f56:	bf04      	itt	eq
 8006f58:	6811      	ldreq	r1, [r2, #0]
 8006f5a:	6852      	ldreq	r2, [r2, #4]
 8006f5c:	6062      	str	r2, [r4, #4]
 8006f5e:	bf04      	itt	eq
 8006f60:	1809      	addeq	r1, r1, r0
 8006f62:	6021      	streq	r1, [r4, #0]
 8006f64:	605c      	str	r4, [r3, #4]
 8006f66:	e7c7      	b.n	8006ef8 <_free_r+0x24>
 8006f68:	bd38      	pop	{r3, r4, r5, pc}
 8006f6a:	bf00      	nop
 8006f6c:	20000210 	.word	0x20000210

08006f70 <_malloc_r>:
 8006f70:	b570      	push	{r4, r5, r6, lr}
 8006f72:	1ccd      	adds	r5, r1, #3
 8006f74:	f025 0503 	bic.w	r5, r5, #3
 8006f78:	3508      	adds	r5, #8
 8006f7a:	2d0c      	cmp	r5, #12
 8006f7c:	bf38      	it	cc
 8006f7e:	250c      	movcc	r5, #12
 8006f80:	2d00      	cmp	r5, #0
 8006f82:	4606      	mov	r6, r0
 8006f84:	db01      	blt.n	8006f8a <_malloc_r+0x1a>
 8006f86:	42a9      	cmp	r1, r5
 8006f88:	d903      	bls.n	8006f92 <_malloc_r+0x22>
 8006f8a:	230c      	movs	r3, #12
 8006f8c:	6033      	str	r3, [r6, #0]
 8006f8e:	2000      	movs	r0, #0
 8006f90:	bd70      	pop	{r4, r5, r6, pc}
 8006f92:	f000 f857 	bl	8007044 <__malloc_lock>
 8006f96:	4a21      	ldr	r2, [pc, #132]	; (800701c <_malloc_r+0xac>)
 8006f98:	6814      	ldr	r4, [r2, #0]
 8006f9a:	4621      	mov	r1, r4
 8006f9c:	b991      	cbnz	r1, 8006fc4 <_malloc_r+0x54>
 8006f9e:	4c20      	ldr	r4, [pc, #128]	; (8007020 <_malloc_r+0xb0>)
 8006fa0:	6823      	ldr	r3, [r4, #0]
 8006fa2:	b91b      	cbnz	r3, 8006fac <_malloc_r+0x3c>
 8006fa4:	4630      	mov	r0, r6
 8006fa6:	f000 f83d 	bl	8007024 <_sbrk_r>
 8006faa:	6020      	str	r0, [r4, #0]
 8006fac:	4629      	mov	r1, r5
 8006fae:	4630      	mov	r0, r6
 8006fb0:	f000 f838 	bl	8007024 <_sbrk_r>
 8006fb4:	1c43      	adds	r3, r0, #1
 8006fb6:	d124      	bne.n	8007002 <_malloc_r+0x92>
 8006fb8:	230c      	movs	r3, #12
 8006fba:	6033      	str	r3, [r6, #0]
 8006fbc:	4630      	mov	r0, r6
 8006fbe:	f000 f842 	bl	8007046 <__malloc_unlock>
 8006fc2:	e7e4      	b.n	8006f8e <_malloc_r+0x1e>
 8006fc4:	680b      	ldr	r3, [r1, #0]
 8006fc6:	1b5b      	subs	r3, r3, r5
 8006fc8:	d418      	bmi.n	8006ffc <_malloc_r+0x8c>
 8006fca:	2b0b      	cmp	r3, #11
 8006fcc:	d90f      	bls.n	8006fee <_malloc_r+0x7e>
 8006fce:	600b      	str	r3, [r1, #0]
 8006fd0:	50cd      	str	r5, [r1, r3]
 8006fd2:	18cc      	adds	r4, r1, r3
 8006fd4:	4630      	mov	r0, r6
 8006fd6:	f000 f836 	bl	8007046 <__malloc_unlock>
 8006fda:	f104 000b 	add.w	r0, r4, #11
 8006fde:	1d23      	adds	r3, r4, #4
 8006fe0:	f020 0007 	bic.w	r0, r0, #7
 8006fe4:	1ac3      	subs	r3, r0, r3
 8006fe6:	d0d3      	beq.n	8006f90 <_malloc_r+0x20>
 8006fe8:	425a      	negs	r2, r3
 8006fea:	50e2      	str	r2, [r4, r3]
 8006fec:	e7d0      	b.n	8006f90 <_malloc_r+0x20>
 8006fee:	428c      	cmp	r4, r1
 8006ff0:	684b      	ldr	r3, [r1, #4]
 8006ff2:	bf16      	itet	ne
 8006ff4:	6063      	strne	r3, [r4, #4]
 8006ff6:	6013      	streq	r3, [r2, #0]
 8006ff8:	460c      	movne	r4, r1
 8006ffa:	e7eb      	b.n	8006fd4 <_malloc_r+0x64>
 8006ffc:	460c      	mov	r4, r1
 8006ffe:	6849      	ldr	r1, [r1, #4]
 8007000:	e7cc      	b.n	8006f9c <_malloc_r+0x2c>
 8007002:	1cc4      	adds	r4, r0, #3
 8007004:	f024 0403 	bic.w	r4, r4, #3
 8007008:	42a0      	cmp	r0, r4
 800700a:	d005      	beq.n	8007018 <_malloc_r+0xa8>
 800700c:	1a21      	subs	r1, r4, r0
 800700e:	4630      	mov	r0, r6
 8007010:	f000 f808 	bl	8007024 <_sbrk_r>
 8007014:	3001      	adds	r0, #1
 8007016:	d0cf      	beq.n	8006fb8 <_malloc_r+0x48>
 8007018:	6025      	str	r5, [r4, #0]
 800701a:	e7db      	b.n	8006fd4 <_malloc_r+0x64>
 800701c:	20000210 	.word	0x20000210
 8007020:	20000214 	.word	0x20000214

08007024 <_sbrk_r>:
 8007024:	b538      	push	{r3, r4, r5, lr}
 8007026:	4c06      	ldr	r4, [pc, #24]	; (8007040 <_sbrk_r+0x1c>)
 8007028:	2300      	movs	r3, #0
 800702a:	4605      	mov	r5, r0
 800702c:	4608      	mov	r0, r1
 800702e:	6023      	str	r3, [r4, #0]
 8007030:	f7f9 fcdc 	bl	80009ec <_sbrk>
 8007034:	1c43      	adds	r3, r0, #1
 8007036:	d102      	bne.n	800703e <_sbrk_r+0x1a>
 8007038:	6823      	ldr	r3, [r4, #0]
 800703a:	b103      	cbz	r3, 800703e <_sbrk_r+0x1a>
 800703c:	602b      	str	r3, [r5, #0]
 800703e:	bd38      	pop	{r3, r4, r5, pc}
 8007040:	20000b8c 	.word	0x20000b8c

08007044 <__malloc_lock>:
 8007044:	4770      	bx	lr

08007046 <__malloc_unlock>:
 8007046:	4770      	bx	lr

08007048 <_init>:
 8007048:	b5f8      	push	{r3, r4, r5, r6, r7, lr}
 800704a:	bf00      	nop
 800704c:	bcf8      	pop	{r3, r4, r5, r6, r7}
 800704e:	bc08      	pop	{r3}
 8007050:	469e      	mov	lr, r3
 8007052:	4770      	bx	lr

08007054 <_fini>:
 8007054:	b5f8      	push	{r3, r4, r5, r6, r7, lr}
 8007056:	bf00      	nop
 8007058:	bcf8      	pop	{r3, r4, r5, r6, r7}
 800705a:	bc08      	pop	{r3}
 800705c:	469e      	mov	lr, r3
 800705e:	4770      	bx	lr
